_ZTVNSt3__116__narrow_to_utf8ILm16EEE = 0x0000000000905718 + __sdk_start;
_ZN2nn2sf6detail38ObjectImplFactoryWithStatefulAllocatorINS0_4cmif6client16CmifProxyFactoryINS_6aocsrv6detail20IAddOnContentManagerENS0_4hipc6client18Hipc2ProxyKindBaseILNS9_6detail11MessageTypeE4EEENS0_30MemoryResourceAllocationPolicyEE13ServiceObjectESF_E6Object7ReleaseEv = 0x0000000000172718 + __sdk_start;
_ZTVNSt3__18__c_nodeE = 0x0000000000903a18 + __sdk_start;
_ZNK2nn5audio6server12SinkInfoBase12GetParameterEv = 0x0000000000191038 + __sdk_start;
sincosl = 0x00000000003ac678 + __sdk_start;
_ZN2nn5audio6server24AudioRendererManagerImpl15AudioDeviceImplD2Ev = 0x000000000019396c + __sdk_start;
_ZN2nn4htcs4SendEiPKvmi = 0x0000000000126934 + __sdk_start;
_ZTVN2nn3hid23VibrationNodeConnectionE = 0x00000000008e6ee0 + __sdk_start;
_ZN2nn2sf4cmif6client32GetClientProcessorWithObjectBaseINS2_15CmifDomainProxyINS0_4hipc6client38Hipc2ClientSessionManagedProxyKindBaseINS6_18Hipc2ProxyKindBaseILNS5_6detail11MessageTypeE4EEEEEEEE14ObjectAssignerINS0_30MemoryResourceAllocationPolicyENS_14MemoryResourceEE14AllocateObjectINS_4bcat6detail3ipc12IBcatServiceEEEvi = 0x00000000000ce864 + __sdk_start;
_ZN2nn2sf4hipc6client24Hipc2ClientCoreProcessorILNS1_6detail11MessageTypeE4ENS0_4cmif6detail14CoreMethodInfoINSt3__15tupleIJNS7_18OutRawArgumentInfoILm4ELm4ELl0EEENS7_18BufferArgumentInfoILi0ELi22ELm256EEEEEELm0ELm4ELb0EEESF_E7ProcessEPNS2_26Hipc2ClientProxyBaseObjectENS6_6client24OutRawClientArgumentTypeILm4ELm4EEENSK_24BufferClientArgumentTypeEj = 0x000000000014d960 + __sdk_start;
_celt_autocorr = 0x00000000000dd7b8 + __sdk_start;
__muldc3 = 0x0000000000382058 + __sdk_start;
_ZN2nn2pl22GetSharedFontLoadStateENS0_14SharedFontTypeE = 0x00000000001b39c8 + __sdk_start;
_ZNK2nn2sf22UnitHeapMemoryResource11do_is_equalERKNS_14MemoryResourceE = 0x00000000000b6580 + __sdk_start;
_ZN2nn6socket6detail9HStrErrorEi = 0x00000000000a9b88 + __sdk_start;
_ZN2nn3hid15VibrationPlayer12SetLoopRangeEii = 0x0000000000217e70 + __sdk_start;
_ZN2nn2sf4hipc6client24Hipc2ClientCoreProcessorILNS1_6detail11MessageTypeE4ENS0_4cmif6detail14CoreMethodInfoINSt3__15tupleIJNS7_21OutObjectArgumentInfoILi0ELi0EEENS7_17InRawArgumentInfoILm8ELm8ELl0EEEEEELm8ELm0ELb1EEESF_E21ProcessWithOutObjectsEPNS2_26Hipc2ClientProxyBaseObjectENS6_6client27OutObjectClientArgumentTypeENSK_23InRawClientArgumentTypeILm8ELm8EvEEjPNS0_13SharedPointerINS0_14IServiceObjectEEE = 0x000000000012a268 + __sdk_start;
_ZNSt3__113basic_ostreamIwNS_11char_traitsIwEEED0Ev = 0x000000000030f730 + __sdk_start;
nnmem_nlib_rwlock_init = 0x000000000006afd8 + __sdk_start;
_ZN2nn2sf4cmif6client6detail13CmifProxyImplINS_7account4baas18IGuestLoginRequestENS2_15CmifDomainProxyINS0_4hipc6client38Hipc2ClientSessionManagedProxyKindBaseINSA_18Hipc2ProxyKindBaseILNS9_6detail11MessageTypeE4EEEEEEENS0_25StatelessAllocationPolicyINS0_22ExpHeapStaticAllocatorILm2048ENS5_6detail12ObjectHolder24ObjectHolderAllocatorTagEEEEES7_E27_nn_sf_sync_GetProfileImageENS0_3OutIjvEERKNS0_9OutBufferE = 0x00000000000afe14 + __sdk_start;
_ZNKSt3__18time_getIwNS_19istreambuf_iteratorIwNS_11char_traitsIwEEEEE17__get_weekdaynameERiRS4_S4_RjRKNS_5ctypeIwEE = 0x0000000000320a10 + __sdk_start;
_ZNSt3__112basic_stringIcNS_11char_traitsIcEENS_9allocatorIcEEE7replaceEmmRKS5_mm = 0x00000000003409dc + __sdk_start;
_ZN2nn7account8OpenUserEPNS0_10UserHandleERKNS0_3UidE = 0x00000000000abe44 + __sdk_start;
_ZNSt3__118condition_variable10notify_oneEv = 0x0000000000302e4c + __sdk_start;
_ZN2nn2lm6detail24LogPacketTransmitterBase11PushUleb128Ej = 0x00000000001298c8 + __sdk_start;
NvRmGpuLibOpen = 0x000000000026767c + __sdk_start;
_ZTSN2nn2sf6detail39ObjectImplFactoryWithStatelessAllocatorINS0_4cmif6client16CmifProxyFactoryINS_3hid15IHidDebugServerENS0_4hipc6client18Hipc2ProxyKindBaseILNS8_6detail11MessageTypeE4EEENS0_25StatelessAllocationPolicyINS0_22ExpHeapStaticAllocatorILm16384ENS6_6detail14HidDebugServerEEEEEE13ServiceObjectESJ_E6ObjectE = 0x0000000000796970 + __sdk_start;
_ZN2nn2sf4hipc6detail25HipcMessageBufferAccessor15SetHeadPointersERKNS2_21HipcMessageHeaderInfoE = 0x0000000000094424 + __sdk_start;
__mulsf3 = 0x0000000000382868 + __sdk_start;
_ZNK2nn3mii6detail16Ver3StoreDataRaw14GetMouthAspectEv = 0x00000000001ab9a8 + __sdk_start;
_ZN2nn2sf4cmif6client6detail13CmifProxyImplINS_5visrv2sf21ISystemDisplayServiceENS0_4hipc6client18Hipc2ProxyKindBaseILNS8_6detail11MessageTypeE4EEENS0_30MemoryResourceAllocationPolicyES7_E30_nn_sf_sync_GetDisplayRgbRangeENS0_3OutIjvEEm = 0x00000000001b9984 + __sdk_start;
_ZN2nn2pl17GetSharedFontSizeENS0_14SharedFontTypeE = 0x00000000001b3bf4 + __sdk_start;
_ZN2nn6socket11GetSockNameEiP8sockaddrPj = 0x000000000009a544 + __sdk_start;
_IO_feof_unlocked = 0x00000000003b9db8 + __sdk_start;
_ZN2nn2sf4cmif6client6detail13CmifProxyImplINS_7account31IAccountServiceForAdministratorENS2_15CmifDomainProxyINS0_4hipc6client38Hipc2ClientSessionManagedProxyKindBaseINS9_18Hipc2ProxyKindBaseILNS8_6detail11MessageTypeE4EEEEEEENS0_25StatelessAllocationPolicyINS0_22ExpHeapStaticAllocatorILm2048ENS5_6detail12ObjectHolder24ObjectHolderAllocatorTagEEEEES6_E45_nn_sf_sync_CreateFloatingRegistrationRequestENS0_3OutINS0_13SharedPointerINS5_4baas28IFloatingRegistrationRequestEEEvEEONS0_12NativeHandleEj = 0x00000000000b24d0 + __sdk_start;
_ZN2nn2sf4cmif6client6detail13CmifProxyImplINS_8settings21ISystemSettingsServerENS0_4hipc6client18Hipc2ProxyKindBaseILNS7_6detail11MessageTypeE4EEENS0_25StatelessAllocationPolicyINS0_22ExpHeapStaticAllocatorILm16384ES6_EEEES6_E34_nn_sf_sync_SetBluetoothEnableFlagEb = 0x0000000000165518 + __sdk_start;
fnt_RoundOff = 0x00000000001de174 + __sdk_start;
_ZNSt3__126__libcpp_condvar_broadcastEPN2nn2os21ConditionVariableTypeE = 0x0000000000349614 + __sdk_start;
_ZN2nn2os6detail36MultiWaitHolderOfMessageQueueNotFull20RemoveFromObjectListEv = 0x000000000008c6b0 + __sdk_start;
glslc_Free = 0x000000000024597c + __sdk_start;
_ZNSt3__113basic_istreamIwNS_11char_traitsIwEEErsEPFRNS_8ios_baseES5_E = 0x000000000030b218 + __sdk_start;
_ZN2nn5audio6server14DeviceSinkInfoC2Ev = 0x0000000000191040 + __sdk_start;
__stderr_used = 0x0000000000911340 + __sdk_start;
_ZN2nn3mii8Database3GetEPiPNS0_15CharInfoElementEii = 0x00000000001b1098 + __sdk_start;
fgetwc = 0x00000000003ba438 + __sdk_start;
_ZN2nn5audio24PerformanceBufferManager17UpdateInParameterEPv = 0x0000000000177d24 + __sdk_start;
_ZN2nn3hid6detail43IsUsbFullKeyControllerEnabledForApplicationEPb = 0x000000000020f9a4 + __sdk_start;
_ZN2nn4nifm15FinalizeForTestEv = 0x00000000001487d4 + __sdk_start;
_ZN2nn3mii6detail16Ver3StoreDataRaw14SetCreatorNameERKNS0_8NicknameE = 0x00000000001aef08 + __sdk_start;
_ZZN2nn2sf31SimpleAllInOneHipcClientManagerILm10EE27InitializeShimLibraryHolderINS_5visrv2sf18ISystemRootServiceEEENS_6ResultEPNS0_23ShimLibraryObjectHolderIT_EEPKcPNS_14MemoryResourceEENUlPvE_8__invokeESG_ = 0x00000000001bbe30 + __sdk_start;
nnmem_nlib_utf16nlen_ = 0x000000000006f5a4 + __sdk_start;
_ZN2nn3hid19GetTouchScreenStateILm8EEEvPNS0_16TouchScreenStateIXT_EEE = 0x000000000021580c + __sdk_start;
_ZN2nn2fs6detail18FileSystemAccessor10DeleteFileEPKc = 0x000000000004bad0 + __sdk_start;
_ZN2nn4nifm6detail13RequestClient31SetConnectionConfirmationOptionENS0_28ConnectionConfirmationOptionE = 0x00000000001441d8 + __sdk_start;
_ZN2nn5audio6server30CommandProcessingTimeEstimator8EstimateERKNS0_25PcmInt16DataSourceCommandE = 0x000000000018cf90 + __sdk_start;
_ZN2nn3hid12GetNpadStateEPNS0_16NpadFullKeyStateERKj = 0x000000000021406c + __sdk_start;
_ZN2nn2sf4cmif6client6detail13CmifProxyImplINS_3apm8ISessionENS0_4hipc6client18Hipc2ProxyKindBaseILNS7_6detail11MessageTypeE4EEENS0_30MemoryResourceAllocationPolicyES6_E39_nn_sf_sync_SetPerformanceConfigurationENS5_15PerformanceModeENS5_24PerformanceConfigurationE = 0x00000000000c80a4 + __sdk_start;
fgetws = 0x00000000003ba480 + __sdk_start;
_ZN7android18GraphicBufferAllocD0Ev = 0x0000000000294dd0 + __sdk_start;
_ZN2nn3apm27GetInternalManagerForSystemEv = 0x00000000000c767c + __sdk_start;
nnosBroadcastConditionVariable = 0x000000000008a0f0 + __sdk_start;
_ZN2nn5audio6server6detail21GetActiveChannelCountEv = 0x0000000000193dd8 + __sdk_start;
_ZN2nn4nifm6detail13RequestClient11SetPriorityEh = 0x0000000000144134 + __sdk_start;
_ZN2nn2sf4cmif6client34CmifDomainProxyClientCoreProcessorINS0_4hipc6client38Hipc2ClientSessionManagedProxyKindBaseINS5_18Hipc2ProxyKindBaseILNS4_6detail11MessageTypeE4EEEEENS1_6detail14CoreMethodInfoINSt3__15tupleIJNSC_17InRawArgumentInfoILm36ELm4ELl0EEEEEELm36ELm0ELb0EEESI_E7ProcessEPNS2_23CmifDomainClientMessageISB_E15ProxyBaseObjectENS2_23InRawClientArgumentTypeILm36ELm4EvEEj = 0x0000000000146120 + __sdk_start;
NvRmSyncIsFd = 0x0000000000251abc + __sdk_start;
_ZN2nn2sf4cmif6client34CmifDomainProxyClientCoreProcessorINS0_4hipc6client38Hipc2ClientSessionManagedProxyKindBaseINS5_18Hipc2ProxyKindBaseILNS4_6detail11MessageTypeE4EEEEENS1_6detail14CoreMethodInfoINSt3__15tupleIJNSC_18OutRawArgumentInfoILm4ELm4ELl0EEENSG_ILm4ELm4ELl4EEENSC_17InRawArgumentInfoILm4ELm4ELl0EEENSJ_ILm4ELm4ELl4EEENSJ_ILm4ELm4ELl8EEENSC_18BufferArgumentInfoILi0ELi33ELm0EEEEEELm12ELm8ELb0EEESP_E7ProcessEPNS2_23CmifDomainClientMessageISB_E15ProxyBaseObjectENS2_24OutRawClientArgumentTypeILm4ELm4EEESX_NS2_23InRawClientArgumentTypeILm4ELm4EvEESZ_SZ_NS2_24BufferClientArgumentTypeEj = 0x00000000000a4044 + __sdk_start;
_ZN2nn3ngc6detail14ContentsReader17GetFilterDataSizeEPjNS0_26ProfanityFilterPatternListE = 0x000000000013836c + __sdk_start;
_ZN2nn2fs15GetFileOpenModeENS0_10FileHandleE = 0x000000000004d818 + __sdk_start;
cuda_DebugPrintf = 0x0000000000245ca4 + __sdk_start;
__toread_needs_stdio_exit = 0x00000000003bd654 + __sdk_start;
_ZN2nn3ssl10ConnectionD2Ev = 0x00000000001687f8 + __sdk_start;
opus_multistream_packet_pad = 0x00000000001064bc + __sdk_start;
_ZN2nn3mii15PrivateDatabaseC2Ev = 0x00000000001b11e4 + __sdk_start;
NvOsUserEventSignal = 0x0000000000244888 + __sdk_start;
_ZN2nn3hid6detail7Session10DeactivateEv = 0x0000000000207b58 + __sdk_start;
_ZN2nn5prepo6detail3ipc15GetPrepoServiceEv = 0x00000000001590ec + __sdk_start;
_ZN2nn2sf4cmif6client34CmifDomainProxyClientCoreProcessorINS0_4hipc6client38Hipc2ClientSessionManagedProxyKindBaseINS5_18Hipc2ProxyKindBaseILNS4_6detail11MessageTypeE4EEEEENS1_6detail14CoreMethodInfoINSt3__15tupleIJNSC_18OutRawArgumentInfoILm56ELm8ELl0EEEEEELm0ELm56ELb0EEESI_E7ProcessEPNS2_23CmifDomainClientMessageISB_E15ProxyBaseObjectENS2_24OutRawClientArgumentTypeILm56ELm8EEEj = 0x00000000000ae0dc + __sdk_start;
_ZN2nn7friends6detail3ipc19CreateFriendServiceEPPNS2_14IFriendServiceE = 0x0000000000119594 + __sdk_start;
_ZN2nn3hid5debug27SetHomeButtonAutoPilotStateERKNS1_24HomeButtonAutoPilotStateE = 0x000000000021169c + __sdk_start;
_ZN2nn4bcat6detail17ShimLibraryGlobalD2Ev = 0x00000000000cbf00 + __sdk_start;
get_ttf_table_info = 0x00000000001fac78 + __sdk_start;
_ZN2nn5audio21ResetVoiceDroppedFlagEPNS0_9VoiceTypeE = 0x000000000017988c + __sdk_start;
_ZN2nn2os6detail26ThreadManagerImplByHorizon18ResumeThreadUnsafeEPNS0_10ThreadTypeE = 0x000000000008ec40 + __sdk_start;
silk_InitDecoder = 0x00000000000ed650 + __sdk_start;
_ZN7android10VectorImpl11setCapacityEm = 0x00000000002b3d4c + __sdk_start;
_ZN2nn2fs21GetSdCardUserAreaSizeEPl = 0x0000000000065804 + __sdk_start;
_ZN2nn4nifm17NetworkConnection20SubmitRequestAndWaitEv = 0x000000000014a0b4 + __sdk_start;
_ZN2nn3ngc6detail12OutputStream14GetWorkBuffer_EPm = 0x000000000013e89c + __sdk_start;
_ZNK2nn3mii6detail16Ver3StoreDataRaw11GetPadding9Ev = 0x00000000001b0dac + __sdk_start;
_ZN2nn5prepo6detail19PlayReportGenerator11AddKeyValueEPmPKcdPhmm = 0x0000000000158c48 + __sdk_start;
_ZNSt3__18numpunctIwE2idE = 0x0000000000a0a1f8 + __sdk_start;
celt_rcp = 0x00000000000dfb84 + __sdk_start;
_ZN2nn5audio6common19WorkBufferAllocator8AllocateEmm = 0x000000000017a7fc + __sdk_start;
_ZNSt3__18valarrayImE6resizeEmm = 0x0000000000349890 + __sdk_start;
_ZN2nn2vi6detail22ServiceReferenceHolder16GetSystemServiceEPNS_2sf13SharedPointerINS_5visrv2sf21ISystemDisplayServiceEEE = 0x00000000001bf02c + __sdk_start;
__muldf3 = 0x0000000000382204 + __sdk_start;
NvRmOpenNew = 0x0000000000250778 + __sdk_start;
NvRmMemHandleFree = 0x0000000000251014 + __sdk_start;
_ZNSt3__114codecvt_bynameIwc11__mbstate_tED2Ev = 0x000000000032ca2c + __sdk_start;
_ZN2nn2fs19CanMountRomForDebugEv = 0x0000000000061544 + __sdk_start;
_ZTVN2nn3ngc6detail12OutputStreamE = 0x00000000008ddcb8 + __sdk_start;
_ZTINSt3__19money_putIwNS_19ostreambuf_iteratorIwNS_11char_traitsIwEEEEEE = 0x00000000009067e0 + __sdk_start;
_ZN2nn2ec6detail20g_ShopPageArgStorageE = 0x00000000009a67c8 + __sdk_start;
_ZN2nn2sf13SharedPointerINS_5fssrv2sf16IFileSystemProxyEED2Ev = 0x0000000000051544 + __sdk_start;
__gnu_f2h_ieee = 0x0000000000383fcc + __sdk_start;
_ZN2nn8settings6detail25GetBluetoothAfhEnableFlagEPb = 0x000000000015e89c + __sdk_start;
__stdio_write = 0x0000000000389cd0 + __sdk_start;
_ZNSt3__18ios_base11adjustfieldE = 0x00000000007b2ac8 + __sdk_start;
ftello64 = 0x00000000003bad54 + __sdk_start;
fsg_PrivateFontSpaceSize = 0x00000000001e3454 + __sdk_start;
_ZN2nn2lm6detail15LogPacketHeader7SetHeadEb = 0x0000000000129508 + __sdk_start;
_ZTINSt3__112codecvt_baseE = 0x0000000000905588 + __sdk_start;
_ZN2nn4diag6detail7LogImplERKNS0_11LogMetaInfoEPKcz = 0x000000000004356c + __sdk_start;
NvOsThreadSetName = 0x00000000002444ac + __sdk_start;
tonality_analysis_reset = 0x0000000000106728 + __sdk_start;
ceilf = 0x00000000003a5868 + __sdk_start;
_ZN2nn5audio24PerformanceBufferManager13GetBufferBaseEv = 0x0000000000177ce8 + __sdk_start;
__cxa_begin_catch = 0x0000000000377bfc + __sdk_start;
_ZN2nn5image13ExifExtractorD1Ev = 0x000000000002f1fc + __sdk_start;
_ZNK2nn3mii6detail16Ver3StoreDataRaw12GetReserved0Ev = 0x00000000001b077c + __sdk_start;
_ZN2nn5audio3dsp7MailBox4RecvEv = 0x0000000000196588 + __sdk_start;
_ZTSN2nn2sf4cmif6client16CmifProxyFactoryINS_8settings21ISystemSettingsServerENS0_4hipc6client18Hipc2ProxyKindBaseILNS6_6detail11MessageTypeE4EEENS0_25StatelessAllocationPolicyINS0_22ExpHeapStaticAllocatorILm16384ES5_EEEEE13ServiceObjectE = 0x0000000000770210 + __sdk_start;
_ZNKSt3__17collateIcE7do_hashEPKcS3_ = 0x00000000003128cc + __sdk_start;
_ZN2nn2sf4cmif6client34CmifDomainProxyClientCoreProcessorINS0_4hipc6client38Hipc2ClientSessionManagedProxyKindBaseINS5_18Hipc2ProxyKindBaseILNS4_6detail11MessageTypeE4EEEEENS1_6detail14CoreMethodInfoINSt3__15tupleIJNSC_17InRawArgumentInfoILm16ELm8ELl0EEENSC_18BufferArgumentInfoILi0ELi9ELm0EEENSI_ILi1ELi5ELm0EEENSG_ILm8ELm8ELl16EEEEEELm24ELm0ELb1EEESM_E7ProcessEPNS2_23CmifDomainClientMessageISB_E15ProxyBaseObjectENS2_23InRawClientArgumentTypeILm16ELm8EvEENS2_24BufferClientArgumentTypeESV_NST_ILm8ELm8EvEEj = 0x000000000015994c + __sdk_start;
_ZNK2nn2os6detail27MultiWaitHolderOfTimerEvent10IsSignaledEv = 0x000000000008c490 + __sdk_start;
_ZN2nn5image6detail4jpeg17jpeg_set_defaultsEPNS2_20jpeg_compress_structE = 0x0000000000016c3c + __sdk_start;
ceill = 0x00000000003a58ec + __sdk_start;
_ZN2nn2sf4cmif6client6detail13CmifProxyImplINS_3pcv6detail11IPcvServiceENS0_4hipc6client18Hipc2ProxyKindBaseILNS8_6detail11MessageTypeE4EEENS0_30MemoryResourceAllocationPolicyES7_E24_nn_sf_sync_GetClockRateENS0_3OutIjvEEi = 0x00000000002f7930 + __sdk_start;
_ZN2nn2sf4cmif6client34CmifDomainProxyClientCoreProcessorINS0_4hipc6client38Hipc2ClientSessionManagedProxyKindBaseINS5_18Hipc2ProxyKindBaseILNS4_6detail11MessageTypeE4EEEEENS1_6detail14CoreMethodInfoINSt3__15tupleIJNSC_18BufferArgumentInfoILi0ELi6ELm0EEENSC_17InRawArgumentInfoILm8ELm8ELl0EEENSG_ILi1ELi5ELm0EEENSI_ILm8ELm8ELl8EEEEEELm16ELm0ELb0EEESM_E7ProcessEPNS2_23CmifDomainClientMessageISB_E15ProxyBaseObjectENS2_24BufferClientArgumentTypeENS2_23InRawClientArgumentTypeILm8ELm8EvEEST_SV_j = 0x0000000000059b08 + __sdk_start;
_ZTSN2nn2sf4cmif6client6detail13CmifProxyImplINS_7account4http15IOAuthProcedureENS2_15CmifDomainProxyINS0_4hipc6client38Hipc2ClientSessionManagedProxyKindBaseINSA_18Hipc2ProxyKindBaseILNS9_6detail11MessageTypeE4EEEEEEENS0_25StatelessAllocationPolicyINS0_22ExpHeapStaticAllocatorILm2048ENS5_6detail12ObjectHolder24ObjectHolderAllocatorTagEEEEENS5_3nas40IOAuthProcedureForNintendoAccountLinkageEEE = 0x000000000074d220 + __sdk_start;
_ZN2nn2sf4cmif6client34CmifDomainProxyClientCoreProcessorINS0_4hipc6client38Hipc2ClientSessionManagedProxyKindBaseINS5_18Hipc2ProxyKindBaseILNS4_6detail11MessageTypeE4EEEEENS1_6detail14CoreMethodInfoINSt3__15tupleIJNSC_17InRawArgumentInfoILm8ELm4ELl0EEENSC_18BufferArgumentInfoILi0ELi25ELm664EEEEEELm8ELm0ELb0EEESK_E7ProcessEPNS2_23CmifDomainClientMessageISB_E15ProxyBaseObjectENS2_23InRawClientArgumentTypeILm8ELm4EvEENS2_24BufferClientArgumentTypeEj = 0x0000000000131e30 + __sdk_start;
_ZNSt3__18__c_nodeD1Ev = 0x00000000003030ec + __sdk_start;
_ZNSt13runtime_errorC1EPKc = 0x000000000033ee40 + __sdk_start;
__cxa_throw_bad_array_new_length = 0x0000000000349d78 + __sdk_start;
_ZN2nn2la20PrepareLibraryAppletEPKvmNS_6applet8AppletIdEb = 0x00000000001a0684 + __sdk_start;
NvRmGpuDeviceZbcGetDepthTableEntry = 0x0000000000267880 + __sdk_start;
_ZN2nn3ldn24GetNetworkInfoForMonitorEPNS0_11NetworkInfoE = 0x0000000000231ca0 + __sdk_start;
_ZTSN2nn2sf4cmif6client16CmifProxyFactoryINS_7account24IBaasAccessTokenAccessorENS2_15CmifDomainProxyINS0_4hipc6client38Hipc2ClientSessionManagedProxyKindBaseINS8_18Hipc2ProxyKindBaseILNS7_6detail11MessageTypeE4EEEEEEENS0_30MemoryResourceAllocationPolicyEE13ServiceObjectE = 0x000000000074ea40 + __sdk_start;
_ZNK2nn5audio6server10MixContext8GetCountEv = 0x0000000000190180 + __sdk_start;
_ZN2nn3hid6system28RegisterAppletResourceUserIdERKNS_6applet20AppletResourceUserIdEb = 0x00000000002108e0 + __sdk_start;
_ZTIN2nn2sf4cmif6client6detail9CmifProxyINS_4pctl6detail3ipc23IParentalControlServiceENS2_15CmifDomainProxyINS0_4hipc6client38Hipc2ClientSessionManagedProxyKindBaseINSB_18Hipc2ProxyKindBaseILNSA_6detail11MessageTypeE4EEEEEEENS0_30MemoryResourceAllocationPolicyEvEE = 0x00000000008defa0 + __sdk_start;
_ZN2nn3ngc6detail12BinaryWriter10WriteArrayEPKdm = 0x000000000013a96c + __sdk_start;
_ZN2nn5audio20IsBufferMixerEnabledEPKNS0_15BufferMixerTypeE = 0x0000000000174790 + __sdk_start;
_ZN2nn2sf4cmif6client6detail13CmifProxyImplINS_7friends6detail3ipc14IFriendServiceENS2_15CmifDomainProxyINS0_4hipc6client38Hipc2ClientSessionManagedProxyKindBaseINSB_18Hipc2ProxyKindBaseILNSA_6detail11MessageTypeE4EEEEEEENS0_30MemoryResourceAllocationPolicyES8_E26_nn_sf_sync_GetFriendCountENS0_3OutIivEERKNS_7account3UidERKNS7_17SizedFriendFilterEm = 0x000000000011a1a8 + __sdk_start;
_ZN2nn4util10BitFlagSetILi256ENS_3hid11KeyboardKeyEE4FlagILi91EE4MaskE = 0x00000000007905f8 + __sdk_start;
_ZN2nn4util8Vector3f13ConstantUnitXE = 0x000000000073a7f0 + __sdk_start;
multimedia_Alloc = 0x00000000002459f8 + __sdk_start;
_ZZN2nn2sf31SimpleAllInOneHipcClientManagerILm10EE27InitializeShimLibraryHolderINS_5visrv2sf18ISystemRootServiceEEENS_6ResultEPNS0_23ShimLibraryObjectHolderIT_EEPKcPNS_14MemoryResourceEENUlPNS0_13SharedPointerIS6_EEE_clESI_ = 0x00000000001bba9c + __sdk_start;
_ZN2nn6socket6detail8RecvFromEiPvmiP8sockaddrPj = 0x000000000009b0a8 + __sdk_start;
_ZN2nn4lmem6detail14GetHeapFillValEi = 0x0000000000069544 + __sdk_start;
_ZTVN2nn2sf22UnmanagedServiceObjectINS_5audio6detail21IAudioRendererManagerENS2_6server24AudioRendererManagerImplEEE = 0x00000000008e3a78 + __sdk_start;
_ZN2nn5audio6server9VoiceInfo10InitializeEv = 0x0000000000191ab4 + __sdk_start;
_ZN2nn5audio17GetFinalMixNodeIdEPKNS0_12FinalMixTypeE = 0x0000000000176f94 + __sdk_start;
NvOsBreakPoint = 0x0000000000245664 + __sdk_start;
_ZN2nn5audio24GetActiveAudioDeviceNameEPNS0_15AudioDeviceNameE = 0x0000000000184908 + __sdk_start;
_ZNSt3__114collate_bynameIwEC1ERKNS_12basic_stringIcNS_11char_traitsIcEENS_9allocatorIcEEEEm = 0x0000000000331f54 + __sdk_start;
_ZN2nn3err13MakeErrorCodeEjj = 0x000000000010eeec + __sdk_start;
_ZN2nn5image6detail4jpeg23jpeg_destroy_decompressEPNS2_22jpeg_decompress_structE = 0x0000000000018f24 + __sdk_start;
_ZN2nn3nsd6detail3ipc22GetNasServiceSettingExEPNS_6ResultEPNS0_17NasServiceSettingERKNS0_14NasServiceNameE = 0x000000000014c1fc + __sdk_start;
_ZN2nn3mii6detail11CoreDataRaw12SetMouthTypeEi = 0x00000000001a56a4 + __sdk_start;
_ZNK2nn3ngc6detail3Bp_6ExportEPNS1_12BinaryWriterE = 0x000000000013acdc + __sdk_start;
_ZN2nn5image6detail4jpeg21jpeg_CreateDecompressEPNS2_22jpeg_decompress_structEim = 0x0000000000018e1c + __sdk_start;
_ZNK2nn7friends12AsyncContext9GetResultEv = 0x000000000011665c + __sdk_start;
cimag = 0x00000000003990b4 + __sdk_start;
_ZN2nn2fs18GetSdCardSpeedModeEPNS0_15SdCardSpeedModeE = 0x0000000000065540 + __sdk_start;
_ZNSt3__111__money_getIwE13__gather_infoEbRKNS_6localeERNS_10money_base7patternERwS8_RNS_12basic_stringIcNS_11char_traitsIcEENS_9allocatorIcEEEERNS9_IwNSA_IwEENSC_IwEEEESJ_SJ_Ri = 0x0000000000329f8c + __sdk_start;
_ZN2nn2sf4hipc6server6detail29HipcAllInOneServerManagerBaseD1Ev = 0x0000000000094bf0 + __sdk_start;
_ZN2nn2sf4cmif6client34CmifDomainProxyClientCoreProcessorINS0_4hipc6client38Hipc2ClientSessionManagedProxyKindBaseINS5_18Hipc2ProxyKindBaseILNS4_6detail11MessageTypeE4EEEEENS1_6detail14CoreMethodInfoINSt3__15tupleIJNSC_18OutRawArgumentInfoILm8ELm8ELl0EEENSC_17InRawArgumentInfoILm8ELm8ELl0EEENSI_ILm8ELm8ELl8EEEEEELm16ELm8ELb0EEESL_E7ProcessEPNS2_23CmifDomainClientMessageISB_E15ProxyBaseObjectENS2_24OutRawClientArgumentTypeILm8ELm8EEENS2_23InRawClientArgumentTypeILm8ELm8EvEESV_j = 0x000000000005a89c + __sdk_start;
_ZTSN2nn2sf4cmif6client6detail13CmifProxyImplINS_3hid19IHidTemporaryServerENS0_4hipc6client18Hipc2ProxyKindBaseILNS7_6detail11MessageTypeE4EEENS0_25StatelessAllocationPolicyINS0_22ExpHeapStaticAllocatorILm16384ENS5_6detail18HidTemporaryServerEEEEES6_EE = 0x0000000000798350 + __sdk_start;
_ZN2nn4time23StandardUserSystemClock3nowEv = 0x000000000016eda4 + __sdk_start;
_ZN2nn2ec6detail15ShowShopPageArgC2EPKc = 0x000000000019e944 + __sdk_start;
_ZTINSt3__115__codecvt_utf16IDiLb1EEE = 0x0000000000905dc0 + __sdk_start;
_ZTSN2nn7account31IAccountServiceForAdministratorE = 0x000000000074b360 + __sdk_start;
_ZNKSt3__117moneypunct_bynameIcLb0EE16do_decimal_pointEv = 0x0000000000324f48 + __sdk_start;
_ZN2nn7account27StoreSaveDataThumbnailImageERKNS0_3UidERKNS_13ApplicationIdEPKvm = 0x00000000000ac6a8 + __sdk_start;
_ZN2nn2sf4cmif6client34CmifDomainProxyClientCoreProcessorINS0_4hipc6client38Hipc2ClientSessionManagedProxyKindBaseINS5_18Hipc2ProxyKindBaseILNS4_6detail11MessageTypeE4EEEEENS1_6detail14CoreMethodInfoINSt3__15tupleIJNSC_18OutRawArgumentInfoILm32ELm8ELl0EEENSC_18BufferArgumentInfoILi0ELi25ELm769EEEEEELm0ELm32ELb0EEESK_E7ProcessEPNS2_23CmifDomainClientMessageISB_E15ProxyBaseObjectENS2_24OutRawClientArgumentTypeILm32ELm8EEENS2_24BufferClientArgumentTypeEj = 0x0000000000055d2c + __sdk_start;
_ZTIN2nn2sf4cmif6client6detail9CmifProxyINS_2am7service7IWindowENS2_15CmifDomainProxyINS0_4hipc6client38Hipc2ClientSessionManagedProxyKindBaseINSA_18Hipc2ProxyKindBaseILNS9_6detail11MessageTypeE4EEEEEEENS0_30MemoryResourceAllocationPolicyEvEE = 0x00000000008d6db0 + __sdk_start;
_ZN2nn3ssl14BuiltInManager22GetBuiltInCertificatesEPPNS1_22BuiltInCertificateInfoEPhjPNS0_15CaCertificateIdEj = 0x0000000000169ff4 + __sdk_start;
_ZN2nn4util8Vector3f13ConstantUnitYE = 0x000000000073a800 + __sdk_start;
_ZN2nn3ldn10InitializeEv = 0x00000000002314e0 + __sdk_start;
nnutilZlib_inflateInit2_ = 0x00000000000356a0 + __sdk_start;
compose_trans = 0x00000000001e3d04 + __sdk_start;
_ZN2nn7account16GetProfileDigestEPNS0_13ProfileDigestERKNS0_3UidE = 0x00000000000abc44 + __sdk_start;
_ZN2nn2sf4cmif6client6detail13CmifProxyImplINS_4nifm6detail15IGeneralServiceENS2_15CmifDomainProxyINS0_4hipc6client38Hipc2ClientSessionManagedProxyKindBaseINSA_18Hipc2ProxyKindBaseILNS9_6detail11MessageTypeE4EEEEEEENS0_25StatelessAllocationPolicyINS0_22ExpHeapStaticAllocatorILm16384ENS6_21ServiceProviderClient30CreateNifmUserServiceObjectTagEEEEES7_E50_nn_sf_sync_SetWirelessCommunicationEnabledForTestEb = 0x000000000014561c + __sdk_start;
_ZTTN7android19IGraphicBufferAllocE = 0x00000000008f8fa0 + __sdk_start;
nnmem_nlib_fd_preadv = 0x000000000007140c + __sdk_start;
_ZN2nn2sf13SharedPointerINS_3hid26IActiveVibrationDeviceListEED2Ev = 0x000000000020fdac + __sdk_start;
_ZN2nn4diag13OnResultCatchENS_6ResultERKNS0_10SourceInfoE = 0x0000000000043e24 + __sdk_start;
_ZN2nn4time19StandardSteadyClock3nowEv = 0x000000000016e980 + __sdk_start;
_ZN2nn8settings6detail14SetAudioVolumeERKNS0_6system11AudioVolumeEi = 0x000000000015d618 + __sdk_start;
cexpf = 0x0000000000398f5c + __sdk_start;
_ZTINSt3__18ios_base7failureE = 0x0000000000903fb0 + __sdk_start;
btowc = 0x00000000003b00b4 + __sdk_start;
_ZTVN2nn2sf6detail38ObjectImplFactoryWithStatefulAllocatorINS0_4cmif6client16CmifProxyFactoryINS_5visrv2sf19IManagerRootServiceENS0_4hipc6client18Hipc2ProxyKindBaseILNS9_6detail11MessageTypeE4EEENS0_30MemoryResourceAllocationPolicyEE13ServiceObjectESF_E6ObjectE = 0x00000000008e4450 + __sdk_start;
_ZTIN2nn2am7service18IDisplayControllerE = 0x00000000008d7080 + __sdk_start;
_ZN2nn2sf4cmif6client6detail13CmifProxyImplINS_6aocsrv6detail20IAddOnContentManagerENS0_4hipc6client18Hipc2ProxyKindBaseILNS8_6detail11MessageTypeE4EEENS0_30MemoryResourceAllocationPolicyES7_E44_nn_sf_sync_CountAddOnContentByApplicationIdENS0_3OutIivEENS_3ncm13ApplicationIdE = 0x00000000001727d0 + __sdk_start;
__iscntrl_l = 0x000000000039fee8 + __sdk_start;
cexpl = 0x0000000000399058 + __sdk_start;
_ZN2nn5audio6common24GetSplitterSendDataMagicEv = 0x000000000017aefc + __sdk_start;
cuda_DebugString = 0x0000000000245ca0 + __sdk_start;
_ZN2nn3mii6detail17PantsPresentColorE = 0x00000000007812fc + __sdk_start;
celt_cos_norm = 0x00000000000dfd8c + __sdk_start;
_ZN2nn2sf4cmif6client6detail13CmifProxyImplINS_2am7service18IDisplayControllerENS2_15CmifDomainProxyINS0_4hipc6client38Hipc2ClientSessionManagedProxyKindBaseINSA_18Hipc2ProxyKindBaseILNS9_6detail11MessageTypeE4EEEEEEENS0_30MemoryResourceAllocationPolicyES7_E39_nn_sf_sync_ClearAppletTransitionBufferEj = 0x00000000000bfc64 + __sdk_start;
_ZN2nn2sf4cmif6client6detail13CmifProxyImplINS_5visrv2sf22IManagerDisplayServiceENS0_4hipc6client18Hipc2ProxyKindBaseILNS8_6detail11MessageTypeE4EEENS0_30MemoryResourceAllocationPolicyES7_E34_nn_sf_sync_GetDisplayHotplugEventENS0_3OutINS0_12NativeHandleEvEEm = 0x00000000001bab68 + __sdk_start;
_ZN2nn5audio3dsp23ApplyLinearEnvelopeGainEPiPKiiii = 0x000000000019be70 + __sdk_start;
nvgr_decompress = 0x0000000000267258 + __sdk_start;
_ZN2nn4time10InitializeEv = 0x000000000016d29c + __sdk_start;
_ZTSN2nn2am7service13ILockAccessorE = 0x00000000007508e0 + __sdk_start;
_ZNKSt3__110moneypunctIwLb1EE13do_pos_formatEv = 0x0000000000324c1c + __sdk_start;
_ZNKSt3__17num_getIcNS_19istreambuf_iteratorIcNS_11char_traitsIcEEEEE15__do_get_signedIlEES4_S4_S4_RNS_8ios_baseERjRT_ = 0x0000000000313198 + __sdk_start;
_ZN2nn8settings6detail12SetQuestFlagEb = 0x00000000001614c0 + __sdk_start;
_ZNK2nn5image13ExifExtractor16ExtractThumbnailEPm = 0x000000000002f8bc + __sdk_start;
_ZN2nn3hid6system6detail27GetAvailableFirmwareVersionEPNS1_15FirmwareVersionENS1_11UniquePadIdE = 0x00000000001fef5c + __sdk_start;
_ZN2nn3mii6detail12StoreDataRaw10SetEyeTypeEi = 0x00000000001a8614 + __sdk_start;
_ZN2nn7nlibsdk4heap11CentralHeap7ReallocEPvmPS3_ = 0x0000000000082234 + __sdk_start;
_ZTSN2nn2sf4cmif6client6detail9CmifProxyINS_2am7service24IApplicationProxyServiceENS2_15CmifDomainProxyINS0_4hipc6client38Hipc2ClientSessionManagedProxyKindBaseINSA_18Hipc2ProxyKindBaseILNS9_6detail11MessageTypeE4EEEEEEENS0_30MemoryResourceAllocationPolicyEvEE = 0x0000000000757f90 + __sdk_start;
_ZN2nn2sf4cmif6client6detail13CmifProxyImplINS_2am7service19IApplicationCreatorENS2_15CmifDomainProxyINS0_4hipc6client38Hipc2ClientSessionManagedProxyKindBaseINSA_18Hipc2ProxyKindBaseILNS9_6detail11MessageTypeE4EEEEEEENS0_30MemoryResourceAllocationPolicyES7_E29_nn_sf_sync_CreateApplicationENS0_3OutINS0_13SharedPointerINS6_20IApplicationAccessorEEEvEENS_3ncm13ApplicationIdE = 0x00000000000c32c0 + __sdk_start;
_ZN2nn2sf4cmif6client6detail13CmifProxyImplINS_7account24IBaasAccessTokenAccessorENS2_15CmifDomainProxyINS0_4hipc6client38Hipc2ClientSessionManagedProxyKindBaseINS9_18Hipc2ProxyKindBaseILNS8_6detail11MessageTypeE4EEEEEEENS0_30MemoryResourceAllocationPolicyES6_E42_nn_sf_sync_RegisterNotificationTokenAsyncENS0_3OutINS0_13SharedPointerINS5_6detail13IAsyncContextEEEvEERKNS5_3UidERKNS_4npns17NotificationTokenE = 0x00000000000b67e0 + __sdk_start;
__muldi3 = 0x000000000038241c + __sdk_start;
_ZN2nn2os14WaitTimerEventEPNS0_14TimerEventTypeE = 0x0000000000087458 + __sdk_start;
_ZNSt3__110istrstreamD0Ev = 0x000000000034811c + __sdk_start;
_ZNK2nn3mii6detail16Ver3StoreDataRaw14GetCreatorNameEPNS0_8NicknameE = 0x00000000001ac210 + __sdk_start;
_ZN2nn3ngc6detail12BinaryWriter10WriteArrayEPKfm = 0x000000000013a968 + __sdk_start;
_ZN2nn2fs26ReadOnlyFileSystemTemplateINSt3__110unique_ptrINS0_3fsa11IFileSystemENS2_14default_deleteIS5_EEEEE12DoRenameFileEPKcSB_ = 0x0000000000061af0 + __sdk_start;
_ZN2nn4util8Vector3f13ConstantUnitZE = 0x000000000073a810 + __sdk_start;
_ZN2nn5audio43GetRequiredBufferSizeForAuxSendReturnBufferEPKNS0_22AudioRendererParameterEii = 0x0000000000174f10 + __sdk_start;
__towupper_l = 0x00000000003a0a04 + __sdk_start;
opus_encode_float = 0x0000000000104db0 + __sdk_start;
_ZN2nn6socket8resolver10serializer13DNSSerializer8ToBufferIcEElPhmPPT_ = 0x00000000000a88b4 + __sdk_start;
_ZN2nn2vi17SetDisplayCmuModeEPNS0_7DisplayENS0_7CmuModeE = 0x00000000001b6f40 + __sdk_start;
_ZN2nn2fs6detail30FileSystemServiceObjectAdapter17DoCreateDirectoryEPKc = 0x000000000005c554 + __sdk_start;
_ZN2nn2sf4cmif6client6detail13CmifProxyImplINS_7account4baas28IFloatingRegistrationRequestENS2_15CmifDomainProxyINS0_4hipc6client38Hipc2ClientSessionManagedProxyKindBaseINSA_18Hipc2ProxyKindBaseILNS9_6detail11MessageTypeE4EEEEEEENS0_25StatelessAllocationPolicyINS0_22ExpHeapStaticAllocatorILm2048ENS5_6detail12ObjectHolder24ObjectHolderAllocatorTagEEEEES7_E35_nn_sf_sync_EnsureIdTokenCacheAsyncENS0_3OutINS0_13SharedPointerINSK_13IAsyncContextEEEvEE = 0x00000000000b3308 + __sdk_start;
_ZN2nn2sf4cmif6client6detail13CmifProxyImplINS_3hid15IHidDebugServerENS0_4hipc6client18Hipc2ProxyKindBaseILNS7_6detail11MessageTypeE4EEENS0_25StatelessAllocationPolicyINS0_22ExpHeapStaticAllocatorILm16384ENS5_6detail14HidDebugServerEEEEES6_E49_nn_sf_sync_SetShiftAccelerometerCalibrationValueENS5_19SixAxisSensorHandleENS_6applet20AppletResourceUserIdEff = 0x0000000000218e24 + __sdk_start;
_ZN2nn6socket6detail5CloseEi = 0x000000000009ddcc + __sdk_start;
_ZN2nn4bcat6detail17ShimLibraryGlobal10InitializeEv = 0x00000000000cd7d0 + __sdk_start;
_ZN2nn3err19ApplicationErrorArgC1Ev = 0x000000000010f8fc + __sdk_start;
_ZNK2nn5image11ExifBuilder21GetAnalyzedOutputSizeEv = 0x000000000002f0e0 + __sdk_start;
nnutilZlib_deflateBound = 0x000000000003274c + __sdk_start;
_ZN2nn3hid5debug28SetSleepButtonAutoPilotStateERKNS1_25SleepButtonAutoPilotStateE = 0x0000000000215564 + __sdk_start;
_ZN2nn2sf4cmif6client6detail13CmifProxyImplINS_8settings22IFactorySettingsServerENS0_4hipc6client18Hipc2ProxyKindBaseILNS7_6detail11MessageTypeE4EEENS0_25StatelessAllocationPolicyINS0_22ExpHeapStaticAllocatorILm16384ES6_EEEES6_E35_nn_sf_sync_SetOverlayDispProgramIdENS_3ncm9ProgramIdE = 0x0000000000162398 + __sdk_start;
_ZN2nn3mii6detail12StoreDataRaw16SetFavoriteColorEi = 0x00000000001a85e0 + __sdk_start;
_ZN2nn2sf4cmif6client6detail13CmifProxyImplINS_8settings21ISystemSettingsServerENS0_4hipc6client18Hipc2ProxyKindBaseILNS7_6detail11MessageTypeE4EEENS0_25StatelessAllocationPolicyINS0_22ExpHeapStaticAllocatorILm16384ES6_EEEES6_E30_nn_sf_sync_GetFirmwareVersionENS0_3OutINS5_6system15FirmwareVersionEvEE = 0x00000000001649d4 + __sdk_start;
_ZN2nn5audio6server30CommandProcessingTimeEstimator8EstimateERKNS0_21ClearMixBufferCommandE = 0x000000000018d218 + __sdk_start;
_ZN2nn4util8Vector4f11ConstantOneE = 0x000000000073a830 + __sdk_start;
_ZN2nn2sf4hipc6server17HipcServerMessage10SetBuffersEPNS0_6detail14PointerAndSizeE = 0x000000000009687c + __sdk_start;
NvRmStreamInit = 0x000000000025288c + __sdk_start;
_ZN2nn4diag6detail23TentativeDumpStackTraceEv = 0x0000000000044550 + __sdk_start;
nnutilZlib_inflateReset2 = 0x00000000000355a4 + __sdk_start;
opus_multistream_surround_encoder_init = 0x000000000010a678 + __sdk_start;
_ZNK2nn2sf13SharedPointerINS_3fgm2sf8IRequestEE19FunctionForBoolTypeEv = 0x00000000002f311c + __sdk_start;
_ZNK2nn7friends11UserSetting25GetFriendRequestReceptionEv = 0x0000000000117ab4 + __sdk_start;
_ZTSN2nn2am7service17IApplicationProxyE = 0x0000000000757860 + __sdk_start;
_ZN2nn7account25ShowUserSelectorForSystemEPNS0_3UidERKNS0_21UserSelectionSettingsERKNS0_37UserSelectionSettingsForSystemServiceE = 0x00000000000aa370 + __sdk_start;
_ZN2nn7friends6detail4util10Utf8Stream6VerifyEPKc = 0x0000000000111374 + __sdk_start;
_ZN2nn8irsensor6detail30UnregisterAppletResourceUserIdERKNS_6applet20AppletResourceUserIdE = 0x000000000021f748 + __sdk_start;
_ZTVN2nn2sf6detail39ObjectImplFactoryWithStatelessAllocatorINS0_4cmif6client16CmifProxyFactoryINS_3hid15IAppletResourceENS0_4hipc6client18Hipc2ProxyKindBaseILNS8_6detail11MessageTypeE4EEENS0_25StatelessAllocationPolicyINS0_22ExpHeapStaticAllocatorILm16384ENS6_6detail9HidServerEEEEEE13ServiceObjectESJ_E6ObjectE = 0x00000000008e7748 + __sdk_start;
_ZN2nn8settings6system24SetBatteryPercentageFlagEb = 0x000000000015cce0 + __sdk_start;
_ZN2nn8settings6system18GetAccountSettingsEPNS1_15AccountSettingsE = 0x000000000015a12c + __sdk_start;
_ZN2nn2sf4cmif6client6detail13CmifProxyImplINS_8settings21ISystemSettingsServerENS0_4hipc6client18Hipc2ProxyKindBaseILNS7_6detail11MessageTypeE4EEENS0_25StatelessAllocationPolicyINS0_22ExpHeapStaticAllocatorILm16384ES6_EEEES6_E40_nn_sf_sync_SetHeadphoneVolumeUpdateFlagEb = 0x00000000001658fc + __sdk_start;
_ZN2nn5audio21GetPhysicalDeviceNameEPPKcS2_ = 0x0000000000174540 + __sdk_start;
_ZN2nn3hid21ShowControllerSupportERKNS0_20ControllerSupportArgE = 0x00000000002310a4 + __sdk_start;
_ZN2nn2sf4cmif6client6detail13CmifProxyImplINS_4nifm6detail15IGeneralServiceENS2_15CmifDomainProxyINS0_4hipc6client38Hipc2ClientSessionManagedProxyKindBaseINSA_18Hipc2ProxyKindBaseILNS9_6detail11MessageTypeE4EEEEEEENS0_25StatelessAllocationPolicyINS0_22ExpHeapStaticAllocatorILm16384ENS6_21ServiceProviderClient30CreateNifmUserServiceObjectTagEEEEES7_E23_nn_sf_sync_GetClientIdENS0_3OutINS5_8ClientIdEvEE = 0x00000000001450bc + __sdk_start;
_ZN2nn3svc7aarch644lp647GetInfoEPmNS0_8InfoTypeENS0_6HandleEm = 0x00000000000a9e04 + __sdk_start;
getenv = 0x00000000003a0eb4 + __sdk_start;
_ZN7android8Composer24setTransparentRegionHintERKNS_2spINS_21SurfaceComposerClientEEERKNS1_INS_7IBinderEEERKNS_6RegionE = 0x00000000002a5524 + __sdk_start;
_ZNK2nn3mii6detail16Ver3StoreDataRaw16GetBirthPlatformEv = 0x00000000001aa718 + __sdk_start;
_ZN2nn2sf4cmif6client6detail13CmifProxyImplINS_7timesrv6detail7service12ISteadyClockENS2_15CmifDomainProxyINS0_4hipc6client38Hipc2ClientSessionManagedProxyKindBaseINSB_18Hipc2ProxyKindBaseILNSA_6detail11MessageTypeE4EEEEEEENS0_25StatelessAllocationPolicyINS0_22ExpHeapStaticAllocatorILm16384ENS_4time6detail7service21ServiceProviderClient30CreateTimeUserServiceObjectTagEEEEES8_E12GetProxyInfoEv = 0x0000000000170424 + __sdk_start;
nnmem_nlib_utf32cplen = 0x000000000006f35c + __sdk_start;
_ZNSt13runtime_errorC2ERKS_ = 0x000000000033eec0 + __sdk_start;
_ZN2nn8settings18SetXpadKeyboardMapERKNS0_20BasicXpadKeyboardMapEi = 0x000000000015d438 + __sdk_start;
_ZTSN2nn5audio6server8SinkInfoINS0_6common15DeviceParameterENS1_15DeviceSinkStateEEE = 0x000000000077bfa0 + __sdk_start;
_ZTIN2nn2fs6detail24FileServiceObjectAdapterE = 0x00000000008cf2d0 + __sdk_start;
_ZNK2nn2sf13SharedPointerINS_3nfp6detail6IDebugEE19FunctionForBoolTypeEv = 0x00000000001325a4 + __sdk_start;
_ZNK7android14SurfaceControl10getSurfaceEv = 0x00000000002a4340 + __sdk_start;
_ZNK2nn3web15ShowNewsPageArg15PushToInChannelENS_6applet19LibraryAppletHandleE = 0x0000000000239288 + __sdk_start;
_ZTSN2nn3ldn6detail21ISystemServiceCreatorE = 0x000000000079be90 + __sdk_start;
_ZN2nn2os11StartThreadEPNS0_10ThreadTypeE = 0x0000000000088f54 + __sdk_start;
_ZTIN2nn2sf4cmif6client6detail9CmifProxyINS_7timesrv6detail7service16ITimeZoneServiceENS2_15CmifDomainProxyINS0_4hipc6client38Hipc2ClientSessionManagedProxyKindBaseINSB_18Hipc2ProxyKindBaseILNSA_6detail11MessageTypeE4EEEEEEENS0_25StatelessAllocationPolicyINS0_22ExpHeapStaticAllocatorILm16384ENS_4time6detail7service21ServiceProviderClient30CreateTimeUserServiceObjectTagEEEEEvEE = 0x00000000008e0bd0 + __sdk_start;
_ZN2nn2sf4cmif6client6detail13CmifProxyImplINS_3hid15IHidDebugServerENS0_4hipc6client18Hipc2ProxyKindBaseILNS7_6detail11MessageTypeE4EEENS0_25StatelessAllocationPolicyINS0_22ExpHeapStaticAllocatorILm16384ENS5_6detail14HidDebugServerEEEEES6_E30_nn_sf_sync_DeactivateKeyboardEv = 0x0000000000218bd4 + __sdk_start;
_ZZN22nerd_gillette_internal5otete11ImageCodec216EncodeWithQuintsINS0_17MaxSizedBitStreamILm876EEEEEfRT_RKNS_15StaticImageViewIhEERKNS7_IKhEEENKUlRhhhE_clESF_hh = 0x000000000022bb48 + __sdk_start;
_ZNKSt3__117moneypunct_bynameIcLb1EE16do_negative_signEv = 0x00000000003252e4 + __sdk_start;
nnosGetWritableHandleOfSystemEvent = 0x000000000008a158 + __sdk_start;
_ZTIN2nn5audio6detail27IAudioOutManagerForDebuggerE = 0x00000000008e2430 + __sdk_start;
_ZNSt3__17promiseIvEC1Ev = 0x00000000003058ec + __sdk_start;
_ZNKSt3__117moneypunct_bynameIcLb0EE11do_groupingEv = 0x0000000000324f58 + __sdk_start;
__nnmusl_DirClose = 0x00000000003c3a24 + __sdk_start;
_ZN2nn3hid6system25IsFirmwareUpdateAvailableEPbNS1_11UniquePadIdE = 0x00000000002113b8 + __sdk_start;
_ZN2nn2sf4cmif6client6detail13CmifProxyImplINS_4pctl6detail3ipc23IParentalControlServiceENS2_15CmifDomainProxyINS0_4hipc6client38Hipc2ClientSessionManagedProxyKindBaseINSB_18Hipc2ProxyKindBaseILNSA_6detail11MessageTypeE4EEEEEEENS0_30MemoryResourceAllocationPolicyES8_E32_nn_sf_sync_IsRestrictionEnabledENS0_3OutIbvEE = 0x0000000000152d0c + __sdk_start;
_ZTISt9exception = 0x0000000000907da0 + __sdk_start;
_ZN2nn6applet18CloseLibraryAppletENS0_19LibraryAppletHandleE = 0x00000000000c9c18 + __sdk_start;
_ZNK2nn2os6detail11VammManager29IsVirtualAddressMemoryEnabledEv = 0x000000000008cbf8 + __sdk_start;
_ZN2nn3svc7aarch644lp6413GetThreadListEPiPmiNS0_6HandleE = 0x00000000000aa014 + __sdk_start;
_ZN2nn2sf4cmif6client34CmifDomainProxyClientCoreProcessorINS0_4hipc6client38Hipc2ClientSessionManagedProxyKindBaseINS5_18Hipc2ProxyKindBaseILNS4_6detail11MessageTypeE4EEEEENS1_6detail14CoreMethodInfoINSt3__15tupleIJNSC_18OutRawArgumentInfoILm3ELm1ELl0EEEEEELm0ELm3ELb0EEESI_E7ProcessEPNS2_23CmifDomainClientMessageISB_E15ProxyBaseObjectENS2_24OutRawClientArgumentTypeILm3ELm1EEEj = 0x0000000000147ab0 + __sdk_start;
feof = 0x00000000003b9db8 + __sdk_start;
_ZNKSt3__115__codecvt_utf16IDiLb1EE6do_outER11__mbstate_tPKDiS5_RS5_PcS7_RS7_ = 0x0000000000336d04 + __sdk_start;
NvRmSurfaceWrite = 0x000000000024aea4 + __sdk_start;
_ZN2nn3ngc15ProfanityFilter19CheckProfanityWordsEPjjPPKcm = 0x0000000000134410 + __sdk_start;
_ZN2nn3ngc6detail12BinaryWriter10WriteArrayEPKhm = 0x000000000013a208 + __sdk_start;
_ZTSN2nn2sf4cmif6client16CmifProxyFactoryINS_2am7service16IAudioControllerENS2_15CmifDomainProxyINS0_4hipc6client38Hipc2ClientSessionManagedProxyKindBaseINS9_18Hipc2ProxyKindBaseILNS8_6detail11MessageTypeE4EEEEEEENS0_30MemoryResourceAllocationPolicyEE13ServiceObjectE = 0x00000000007517d0 + __sdk_start;
_ZN7android17BnSurfaceComposer10onTransactEjRKNS_6ParcelEPS1_j = 0x00000000002992b0 + __sdk_start;
_ZN2nn2sf4cmif6client34CmifDomainProxyClientCoreProcessorINS0_4hipc6client38Hipc2ClientSessionManagedProxyKindBaseINS5_18Hipc2ProxyKindBaseILNS4_6detail11MessageTypeE4EEEEENS1_6detail14CoreMethodInfoINSt3__15tupleIJNSC_17InRawArgumentInfoILm8ELm4ELl0EEENSG_ILm4ELm4ELl8EEENSG_ILm4ELm4ELl12EEEEEELm16ELm0ELb0EEESK_E7ProcessEPNS2_23CmifDomainClientMessageISB_E15ProxyBaseObjectENS2_23InRawClientArgumentTypeILm8ELm4EvEENSR_ILm4ELm4EvEEST_j = 0x0000000000130f64 + __sdk_start;
_Unwind_DeleteException = 0x000000000037c0a8 + __sdk_start;
_ZTVN2nn2sf6detail39ObjectImplFactoryWithStatelessAllocatorINS0_4cmif6client16CmifProxyFactoryINS_3mii6detail16IDatabaseServiceENS4_15CmifDomainProxyINS0_4hipc6client38Hipc2ClientSessionManagedProxyKindBaseINSB_18Hipc2ProxyKindBaseILNSA_6detail11MessageTypeE4EEEEEEENS0_25StatelessAllocationPolicyINS0_22ExpHeapStaticAllocatorILm16384ENS7_21ServiceProviderClient30CreateNifmUserServiceObjectTagEEEEEE13ServiceObjectESO_E6ObjectE = 0x00000000008e3d68 + __sdk_start;
_ZN2nn5audio6server12DetailAspectD2Ev = 0x000000000018b3f8 + __sdk_start;
_ZTSN2nn3ssl2sf11ISslContextE = 0x0000000000771090 + __sdk_start;
_ZNK2nn3err14SystemErrorArg15GetLanguageCodeEv = 0x0000000000110068 + __sdk_start;
_ZN2nn7friends19SyncBlockedUserListEPNS0_12AsyncContextERKNS_7account3UidE = 0x00000000001149ac + __sdk_start;
_ZThn32_N2nn2sf4cmif6client6detail13CmifProxyImplINS_7account4http15IOAuthProcedureENS2_15CmifDomainProxyINS0_4hipc6client38Hipc2ClientSessionManagedProxyKindBaseINSA_18Hipc2ProxyKindBaseILNS9_6detail11MessageTypeE4EEEEEEENS0_25StatelessAllocationPolicyINS0_22ExpHeapStaticAllocatorILm2048ENS5_6detail12ObjectHolder24ObjectHolderAllocatorTagEEEEENS5_3nas40IOAuthProcedureForNintendoAccountLinkageEE17GetCmifBaseObjectEv = 0x00000000000b452c + __sdk_start;
_ZN2nn3hid6detail23GetAppletResourceUserIdEv = 0x00000000001fce40 + __sdk_start;
_ZN2nn7account22DebugSetUserStateCloseERKNS0_3UidE = 0x00000000000acfb8 + __sdk_start;
_ZN2nn5audio17GetAuxInputOutputEPKNS0_7AuxTypeEPaS4_Pii = 0x0000000000175258 + __sdk_start;
_ZN2nn4bcat6detail17ShimLibraryGlobal17CreateFileServiceEPPNS1_3ipc25IDeliveryCacheFileServiceE = 0x00000000000cdad8 + __sdk_start;
_ZN2nn2sf4hipc6server17HipcServerMessage22BeginPreparingForReplyEPNS0_6detail14PointerAndSizeE = 0x000000000009677c + __sdk_start;
_ZNK2nn3hid15VibrationPlayer18GetCurrentPositionEv = 0x0000000000217e1c + __sdk_start;
_ZN2nn3mii8Database6FormatEv = 0x00000000001b116c + __sdk_start;
_ZN2nn4util10StringPool14SetStringCountEi = 0x000000000003a95c + __sdk_start;
_ZN2nn6crypto6detail6BigNumD1Ev = 0x0000000000001e90 + __sdk_start;
abs = 0x00000000003bd6f8 + __sdk_start;
_ZN2nn4util10BitFlagSetILi256ENS_3hid11KeyboardKeyEE4FlagILi54EE4MaskE = 0x0000000000790158 + __sdk_start;
_ZN2nn6result6detail27ResultToReturnTypeConverterIjvE7ConvertENS_6ResultE = 0x000000000014f4f4 + __sdk_start;
_ZN2nn2sf6detail38ObjectImplFactoryWithStatefulAllocatorINS0_4cmif6client16CmifProxyFactoryINS_5visrv2sf19IManagerRootServiceENS0_4hipc6client18Hipc2ProxyKindBaseILNS9_6detail11MessageTypeE4EEENS0_30MemoryResourceAllocationPolicyEE13ServiceObjectESF_E6Object7ReleaseEv = 0x00000000001b821c + __sdk_start;
_ZN7android5Fence4waitEj = 0x00000000002a9518 + __sdk_start;
gettext = 0x00000000003a3320 + __sdk_start;
_ZN2nn5audio18OpenDefaultAudioInEPNS0_7AudioInEPNS_2os11SystemEventERKNS0_16AudioInParameterE = 0x0000000000185ba0 + __sdk_start;
_ZN2nn3hid14KeyboardLayout7ItalianE = 0x0000000000790bc4 + __sdk_start;
_ZN2nn3mii6detail21RandomMiiEyeTypeTableE = 0x0000000000783c90 + __sdk_start;
_ZN22nerd_gillette_internal5otete11ImageCodec217OldDequantizationERiim = 0x0000000000227020 + __sdk_start;
_ZNK2nn5audio6server12VoiceContext13GetSortedInfoEi = 0x0000000000192b0c + __sdk_start;
_ZN2nn2sf4cmif6client6detail13CmifProxyImplINS_5visrv2sf21ISystemDisplayServiceENS0_4hipc6client18Hipc2ProxyKindBaseILNS8_6detail11MessageTypeE4EEENS0_30MemoryResourceAllocationPolicyES7_E35_nn_sf_sync_SetDisplayMagnificationEmiiii = 0x00000000001b9678 + __sdk_start;
_ZTVN2nn5audio6server15BufferMixerInfoE = 0x00000000008e3840 + __sdk_start;
_ZN2nn5audio6server24AudioRendererManagerImpl17AudioRendererImpl8GetStateENS_2sf3OutIivEE = 0x000000000018887c + __sdk_start;
_ZN2nn2sf4cmif6client6detail13CmifProxyImplINS_7account4baas18IGuestLoginRequestENS2_15CmifDomainProxyINS0_4hipc6client38Hipc2ClientSessionManagedProxyKindBaseINSA_18Hipc2ProxyKindBaseILNS9_6detail11MessageTypeE4EEEEEEENS0_25StatelessAllocationPolicyINS0_22ExpHeapStaticAllocatorILm2048ENS5_6detail12ObjectHolder24ObjectHolderAllocatorTagEEEEENS6_28IFloatingRegistrationRequestEE38_nn_sf_sync_GetLinkedNintendoAccountIdENS0_3OutINS5_17NintendoAccountIdEvEE = 0x00000000000b311c + __sdk_start;
regexec = 0x00000000003b716c + __sdk_start;
_ZN7android21SurfaceComposerClient12setUnderscanERKNS_2spINS_7IBinderEEEi = 0x00000000002a7b10 + __sdk_start;
_ZTSN2nn2sf6detail39ObjectImplFactoryWithStatelessAllocatorINS0_4cmif6client16CmifProxyFactoryINS_7account7profile8IProfileENS4_15CmifDomainProxyINS0_4hipc6client38Hipc2ClientSessionManagedProxyKindBaseINSB_18Hipc2ProxyKindBaseILNSA_6detail11MessageTypeE4EEEEEEENS0_25StatelessAllocationPolicyINS0_22ExpHeapStaticAllocatorILm2048ENS6_6detail12ObjectHolder24ObjectHolderAllocatorTagEEEEEE13ServiceObjectESP_E6ObjectE = 0x0000000000747370 + __sdk_start;
_ZN2nn4diag6detail8VLogImplERKNS0_11LogMetaDataEPKcSt9__va_list = 0x00000000000434bc + __sdk_start;
_ZN2nn3err15ResultBacktrace4MakeEPS1_PKNS_6ResultEi = 0x000000000010f898 + __sdk_start;
_ZN2nn3hid6detail24GetAccelerometerPlayModeEPNS0_21AccelerometerPlayModeENS0_19SixAxisSensorHandleE = 0x00000000002051d4 + __sdk_start;
_ZN2nn3mii6detail11CoreDataRaw13SetGlassScaleEi = 0x00000000001a5a00 + __sdk_start;
_ZN2nn6socket6detail19RequestCancelHandleEv = 0x00000000000a9bb8 + __sdk_start;
_ZN2nn2fs6detail24IsEnabledHandleAccessLogENS0_15DirectoryHandleE = 0x00000000000455fc + __sdk_start;
_ZN2nn7friends11UnblockUserEPNS0_12AsyncContextERKNS_7account3UidENS3_23NetworkServiceAccountIdE = 0x0000000000114864 + __sdk_start;
_ZN2nn6applet26PushToInteractiveInChannelENS0_19LibraryAppletHandleENS0_13StorageHandleE = 0x00000000000c9d58 + __sdk_start;
_ZN2nn2sf4cmif6client6detail13CmifProxyImplINS_4pctl6detail3ipc23IParentalControlServiceENS2_15CmifDomainProxyINS0_4hipc6client38Hipc2ClientSessionManagedProxyKindBaseINSB_18Hipc2ProxyKindBaseILNSA_6detail11MessageTypeE4EEEEEEENS0_30MemoryResourceAllocationPolicyES8_E41_nn_sf_sync_EnterRestrictedSystemSettingsEv = 0x0000000000152c6c + __sdk_start;
get_os2_table = 0x00000000001f9094 + __sdk_start;
_ZThn32_N2nn2sf4cmif6client6detail13CmifProxyImplINS_7timesrv6detail7service12ISteadyClockENS2_15CmifDomainProxyINS0_4hipc6client38Hipc2ClientSessionManagedProxyKindBaseINSB_18Hipc2ProxyKindBaseILNSA_6detail11MessageTypeE4EEEEEEENS0_25StatelessAllocationPolicyINS0_22ExpHeapStaticAllocatorILm16384ENS_4time6detail7service21ServiceProviderClient30CreateTimeUserServiceObjectTagEEEEES8_E17GetCmifBaseObjectEv = 0x000000000017053c + __sdk_start;
_ZN2nn3hid6detail29UnsetHomeButtonAutoPilotStateEv = 0x00000000001ffb24 + __sdk_start;
_ZNK2nn5audio6server11AddressInfo19HasMappedMemoryPoolEv = 0x000000000018fbac + __sdk_start;
_ZN2nn3mii6detail12StoreDataRaw11SetEyebrowYEi = 0x00000000001a8648 + __sdk_start;
_ZTSN2nn2sf4cmif6client6detail13CmifProxyImplINS_8settings21ISystemSettingsServerENS0_4hipc6client18Hipc2ProxyKindBaseILNS7_6detail11MessageTypeE4EEENS0_25StatelessAllocationPolicyINS0_22ExpHeapStaticAllocatorILm16384ES6_EEEES6_EE = 0x00000000007703e0 + __sdk_start;
_ZN2nn4bcat6detail3ipc8FinalizeEv = 0x00000000000cdf0c + __sdk_start;
_ZN2nn7account16GetUserExistenceEPbRKNS0_3UidE = 0x00000000000ab7f4 + __sdk_start;
_ZN2nn3mii6detail24NfpStoreDataExtentionRaw13SetBeardColorEi = 0x00000000001a68d4 + __sdk_start;
_ZNSt3__115__num_get_floatIeEET_PKcS3_Rj = 0x000000000033d548 + __sdk_start;
_ZN2nn3hid15KeyCodeComposer14DequeueOutputsEPti = 0x00000000002125b4 + __sdk_start;
_ZThn16_N2nn2sf4cmif6client6detail13CmifProxyImplINS_5visrv2sf18ISystemRootServiceENS0_4hipc6client18Hipc2ProxyKindBaseILNS8_6detail11MessageTypeE4EEENS0_30MemoryResourceAllocationPolicyES7_E17GetCmifBaseObjectEv = 0x00000000001bbe28 + __sdk_start;
_ZTSN2nn2sf4cmif6client6detail9CmifProxyINS_7friends6detail3ipc20INotificationServiceENS2_15CmifDomainProxyINS0_4hipc6client38Hipc2ClientSessionManagedProxyKindBaseINSB_18Hipc2ProxyKindBaseILNSA_6detail11MessageTypeE4EEEEEEENS0_30MemoryResourceAllocationPolicyEvEE = 0x0000000000763550 + __sdk_start;
_ZNK2nn3mii13AppletManager17GetValidUuidArrayEv = 0x00000000001b32bc + __sdk_start;
_ZTSN2nn2am7service18IDisplayControllerE = 0x0000000000751f80 + __sdk_start;
_ZN2nn5codec11OpusEncoder15SetWaveformTypeENS0_16OpusWaveformTypeE = 0x000000000010d2bc + __sdk_start;
_ZN2nn5swkbd13getExitReasonEv = 0x00000000001b53c0 + __sdk_start;
_ZThn32_N2nn2sf4cmif6client6detail13CmifProxyImplINS_3ssl2sf14ISslConnectionENS2_15CmifDomainProxyINS0_4hipc6client38Hipc2ClientSessionManagedProxyKindBaseINSA_18Hipc2ProxyKindBaseILNS9_6detail11MessageTypeE4EEEEEEENS0_24StatefulAllocationPolicyINS0_16ExpHeapAllocatorEEES7_E17GetCmifBaseObjectEv = 0x000000000016bc3c + __sdk_start;
_ZTSN2nn2fs6detail26EventNotifierObjectAdapterE = 0x000000000073c170 + __sdk_start;
_ZTSN2nn7account4baas28IFloatingRegistrationRequestE = 0x000000000074c2f0 + __sdk_start;
_ZN2nn5swkbd14InlineKeyboard26SetMovedCursorCallbackUtf8EPFvPKNS0_18MovedCursorArgUtf8EE = 0x00000000001b5830 + __sdk_start;
_ZN2nn5swkbd14InlineKeyboard28SetChangedStringCallbackUtf8EPFvPKNS0_20ChangedStringArgUtf8EE = 0x00000000001b5810 + __sdk_start;
NvRmGpuChannelSetTimeslice = 0x0000000000267e34 + __sdk_start;
_ZNSt3__17__sort5IRNS_6__lessIttEEPtEEjT0_S5_S5_S5_S5_T_ = 0x00000000002fcbcc + __sdk_start;
_ZN2nn5audio22RequestResumeAudioOutsENS_6applet20AppletResourceUserIdENS_8TimeSpanEPNS_2os15SystemEventTypeE = 0x000000000017d4a4 + __sdk_start;
_ZN2nn8settings6detail22ResetXpadGenericPadMapEi = 0x0000000000167d7c + __sdk_start;
_ZN2nn3nfp29StartNicknameAndOwnerSettingsEPNS0_12DeviceHandleEPbPNS0_12RegisterInfoERKNS0_24AmiiboSettingsStartParamERKNS0_7TagInfoE = 0x000000000012d94c + __sdk_start;
_ZN2nn2sf4cmif6client6detail13CmifProxyImplINS_5visrv2sf21ISystemDisplayServiceENS0_4hipc6client18Hipc2ProxyKindBaseILNS8_6detail11MessageTypeE4EEENS0_30MemoryResourceAllocationPolicyES7_E28_nn_sf_sync_ListDisplayModesENS0_3OutIlvEERKNS0_8OutArrayINS_2vi15DisplayModeInfoEEEm = 0x00000000001b9824 + __sdk_start;
_ZN2nn5prepo10PlayReportC1Ev = 0x000000000015797c + __sdk_start;
strtok_r = 0x0000000000397998 + __sdk_start;
_ZTSN2nn7account31NintendoAccountLinkageProcedureE = 0x000000000074f2d0 + __sdk_start;
_ZN2nn8settings6detail24SetInitialLaunchSettingsERKNS0_6system21InitialLaunchSettingsE = 0x0000000000161300 + __sdk_start;
_ZN7android21SurfaceComposerClient15setSurfaceARUIDERKNS_2spINS_7IBinderEEERKN2nn6applet20AppletResourceUserIdE = 0x00000000002a61ac + __sdk_start;
_ZN2nn3hid20GetTouchScreenStatesILm4EEEiPNS0_16TouchScreenStateIXT_EEEi = 0x0000000000215b90 + __sdk_start;
_ZN2nn2sf4cmif6client6detail13CmifProxyImplINS_8settings21ISystemSettingsServerENS0_4hipc6client18Hipc2ProxyKindBaseILNS7_6detail11MessageTypeE4EEENS0_25StatelessAllocationPolicyINS0_22ExpHeapStaticAllocatorILm16384ES6_EEEES6_E50_nn_sf_sync_GetPushNotificationActivityModeOnSleepENS0_3OutIivEE = 0x0000000000165944 + __sdk_start;
nnutilZlib__dist_code = 0x0000000000737d46 + __sdk_start;
_ZNSt3__112basic_stringIwNS_11char_traitsIwEENS_9allocatorIwEEE6__initEPKwmm = 0x0000000000343800 + __sdk_start;
nnfontllFsReadFile = 0x00000000001fc948 + __sdk_start;
_ZN2nn4lmem14CreateUnitHeapEPvmmiiNS0_13InfoPlacementE = 0x0000000000069218 + __sdk_start;
_ZN2nn2sf4hipc6detail25HipcMessageBufferAccessor14SetReceiveListEimm = 0x0000000000094ac4 + __sdk_start;
pthread_condattr_init = 0x00000000003c13a0 + __sdk_start;
_ZN2nn2ec26ShowShopConsumableItemListENS_13ApplicationIdERKNS_7account10UserHandleE = 0x000000000019d4f0 + __sdk_start;
_ZN2nn3ngc6detail12BinaryWriter10WriteArrayEPKjm = 0x000000000013a5c8 + __sdk_start;
_ZN2nn2sf4cmif6client34CmifDomainProxyClientCoreProcessorINS0_4hipc6client38Hipc2ClientSessionManagedProxyKindBaseINS5_18Hipc2ProxyKindBaseILNS4_6detail11MessageTypeE4EEEEENS1_6detail14CoreMethodInfoINSt3__15tupleIJNSC_18OutRawArgumentInfoILm4ELm4ELl0EEENSG_ILm4ELm4ELl4EEENSC_17InRawArgumentInfoILm4ELm4ELl0EEENSC_18BufferArgumentInfoILi0ELi34ELm0EEEEEELm4ELm8ELb0EEESN_E7ProcessEPNS2_23CmifDomainClientMessageISB_E15ProxyBaseObjectENS2_24OutRawClientArgumentTypeILm4ELm4EEESV_NS2_23InRawClientArgumentTypeILm4ELm4EvEENS2_24BufferClientArgumentTypeEj = 0x00000000000a43a4 + __sdk_start;
_ZNSt3__114basic_iostreamIcNS_11char_traitsIcEEEC2EPNS_15basic_streambufIcS2_EE = 0x00000000003115ac + __sdk_start;
_ZN2nn3mii6detail19GetNicknameQuestionEPNS0_8NicknameE = 0x00000000001a6e68 + __sdk_start;
_ZN2nn2sf4cmif6client6detail13CmifProxyImplINS_7account4baas12IManagerBaseENS2_15CmifDomainProxyINS0_4hipc6client38Hipc2ClientSessionManagedProxyKindBaseINSA_18Hipc2ProxyKindBaseILNS9_6detail11MessageTypeE4EEEEEEENS0_25StatelessAllocationPolicyINS0_22ExpHeapStaticAllocatorILm2048ENS5_6detail12ObjectHolder24ObjectHolderAllocatorTagEEEEENS6_14IAdministratorEE12GetProxyInfoEv = 0x00000000000b36b0 + __sdk_start;
_ZN2nn2sf6detail38ObjectImplFactoryWithStatefulAllocatorINS0_4cmif6client16CmifProxyFactoryINS_2am7service24IApplicationProxyServiceENS4_15CmifDomainProxyINS0_4hipc6client38Hipc2ClientSessionManagedProxyKindBaseINSB_18Hipc2ProxyKindBaseILNSA_6detail11MessageTypeE4EEEEEEENS0_30MemoryResourceAllocationPolicyEE13ServiceObjectESJ_E6Object7ReleaseEv = 0x00000000000c6ae8 + __sdk_start;
_ZN2nn5audio16VoiceInfoManagerC1Ev = 0x0000000000179b94 + __sdk_start;
_ZNKSt3__110moneypunctIwLb1EE14do_frac_digitsEv = 0x0000000000324c14 + __sdk_start;
FSS_get_advance = 0x00000000001cb1c4 + __sdk_start;
_ZN2nn2vi18GetBlockingServiceEv = 0x00000000001b72bc + __sdk_start;
FS_init_ex = 0x00000000001c6cd4 + __sdk_start;
_ZN2nn2sf4cmif6client6detail13CmifProxyImplINS_2am7service21IApplicationFunctionsENS2_15CmifDomainProxyINS0_4hipc6client38Hipc2ClientSessionManagedProxyKindBaseINSA_18Hipc2ProxyKindBaseILNS9_6detail11MessageTypeE4EEEEEEENS0_30MemoryResourceAllocationPolicyES7_E26_nn_sf_sync_ExtendSaveDataENS0_3OutIlvEEhRKNS_7account3UidEll = 0x00000000000c58b0 + __sdk_start;
_ZN2nn3ngc15ProfanityFilterC1EPvm = 0x00000000001341f0 + __sdk_start;
property_get = 0x0000000000287100 + __sdk_start;
_ZN2nn2fs3fsa5IFileD2Ev = 0x000000000004b064 + __sdk_start;
_ZN2nn2sf4cmif6client6detail13CmifProxyImplINS_7account7profile8IProfileENS2_15CmifDomainProxyINS0_4hipc6client38Hipc2ClientSessionManagedProxyKindBaseINSA_18Hipc2ProxyKindBaseILNS9_6detail11MessageTypeE4EEEEEEENS0_25StatelessAllocationPolicyINS0_22ExpHeapStaticAllocatorILm2048ENS5_6detail12ObjectHolder24ObjectHolderAllocatorTagEEEEES7_E15_nn_sf_sync_GetENS0_3OutINS6_11ProfileBaseEvEENSQ_INS6_8UserDataEvEE = 0x00000000000ade5c + __sdk_start;
__fgetwc_unlocked = 0x00000000003ba2ec + __sdk_start;
strtold = 0x0000000000396c90 + __sdk_start;
_ZN2nn2sf4cmif6client32GetClientProcessorWithObjectBaseINS2_15CmifDomainProxyINS0_4hipc6client38Hipc2ClientSessionManagedProxyKindBaseINS6_18Hipc2ProxyKindBaseILNS5_6detail11MessageTypeE4EEEEEEEE14ObjectAssignerINS0_30MemoryResourceAllocationPolicyENS_14MemoryResourceEE14AllocateObjectINS_2am7service19ILibraryAppletProxyEEEvi = 0x00000000000c3530 + __sdk_start;
_ZN7android6Parcel19writeInterfaceTokenERKNS_8String16E = 0x000000000027f2a0 + __sdk_start;
_ZNKSt3__18time_getIcNS_19istreambuf_iteratorIcNS_11char_traitsIcEEEEE10__get_hourERiRS4_S4_RjRKNS_5ctypeIcEE = 0x000000000031f850 + __sdk_start;
_ZTSN2nn2sf4cmif6client6detail13CmifProxyImplINS_2am7service22IGlobalStateControllerENS2_15CmifDomainProxyINS0_4hipc6client38Hipc2ClientSessionManagedProxyKindBaseINSA_18Hipc2ProxyKindBaseILNS9_6detail11MessageTypeE4EEEEEEENS0_30MemoryResourceAllocationPolicyES7_EE = 0x0000000000755430 + __sdk_start;
_ZN2nn3ssl7Context12GetContextIdEPm = 0x00000000001682dc + __sdk_start;
_ZN2nn5audio15ReleaseSplitterEPNS0_19AudioRendererConfigEPNS0_12SplitterTypeE = 0x0000000000178648 + __sdk_start;
_ZN2nn2os21UnlinkMultiWaitHolderEPNS0_19MultiWaitHolderTypeE = 0x0000000000088538 + __sdk_start;
strtoll = 0x00000000003be530 + __sdk_start;
_ZN2nn5image6detail31GetBufferSizeForJpegCompressionEPmRKNS0_9DimensionENS0_17JpegSamplingRatioE = 0x000000000002db34 + __sdk_start;
nvdcSetCmu = 0x0000000000239e6c + __sdk_start;
_ZN2nn4lmem15CreateFrameHeapEPvmi = 0x0000000000068dfc + __sdk_start;
_ZN2nn4util30ConvertStringUtf16NativeToUtf8EPciPKti = 0x000000000003ec0c + __sdk_start;
_ZN7android10VectorImpl12appendVectorERKS0_ = 0x00000000002b2e8c + __sdk_start;
_ZTSNSt3__113basic_istreamIcNS_11char_traitsIcEEEE = 0x00000000007b2c20 + __sdk_start;
_ZTSN2nn3hid6detail8RingLifoINS0_18SixAxisSensorStateELi16ENS1_13AtomicStorageIS3_EEEE = 0x000000000078f280 + __sdk_start;
_ZN2nn5prepo6detail4util18Utf8StreamVerifier5ClearEv = 0x0000000000156ebc + __sdk_start;
nnmem_nlib_vdprintf = 0x000000000006bad8 + __sdk_start;
__nnmusl_pthread_once_lock_finalize = 0x00000000003c48e0 + __sdk_start;
_ZN2nn3hid6detail24SetSupportedNpadStyleSetENS_4util10BitFlagSetILi32ENS0_12NpadStyleTagEEE = 0x00000000002029a0 + __sdk_start;
_ZTVN2nn2sf6detail38ObjectImplFactoryWithStatefulAllocatorINS0_4cmif6client16CmifProxyFactoryINS_2am7service18ICommonStateGetterENS4_15CmifDomainProxyINS0_4hipc6client38Hipc2ClientSessionManagedProxyKindBaseINSB_18Hipc2ProxyKindBaseILNSA_6detail11MessageTypeE4EEEEEEENS0_30MemoryResourceAllocationPolicyEE13ServiceObjectESJ_E6ObjectE = 0x00000000008d6638 + __sdk_start;
_ZN2nn3ntc4shim30EnsureNetworkClockAvailabilityEv = 0x0000000000171544 + __sdk_start;
_ZN2nn2sf6detail38ObjectImplFactoryWithStatefulAllocatorINS0_4cmif6client16CmifProxyFactoryINS_3pcv6detail11IPcvServiceENS0_4hipc6client18Hipc2ProxyKindBaseILNS9_6detail11MessageTypeE4EEENS0_30MemoryResourceAllocationPolicyEE13ServiceObjectESF_E6Object12AddReferenceEv = 0x00000000002f77f8 + __sdk_start;
_ZNK2nn5audio6server10PoolMapper3MapEPNS1_14MemoryPoolInfoE = 0x000000000018f90c + __sdk_start;
_ZN2nn4edid6detail21GetEstablishedTimingIEPFbPKNS0_15DisplayModeInfoEPKNS0_17DisplayTimingInfoEPKNS0_13ImageSizeInfoEPvESB_h = 0x00000000000406b0 + __sdk_start;
_ZTVN2nn2sf6detail39ObjectImplFactoryWithStatelessAllocatorINS0_4cmif6client16CmifProxyFactoryINS_8irsensor15IIrSensorServerENS0_4hipc6client18Hipc2ProxyKindBaseILNS8_6detail11MessageTypeE4EEENS0_25StatelessAllocationPolicyINS0_22ExpHeapStaticAllocatorILm16384ENS6_6detail14IrSensorServerEEEEEE13ServiceObjectESJ_E6ObjectE = 0x00000000008e8098 + __sdk_start;
_ZTSN2nn2sf4cmif6client6detail9CmifProxyINS_4bcat6detail3ipc12IBcatServiceENS2_15CmifDomainProxyINS0_4hipc6client38Hipc2ClientSessionManagedProxyKindBaseINSB_18Hipc2ProxyKindBaseILNSA_6detail11MessageTypeE4EEEEEEENS0_30MemoryResourceAllocationPolicyEvEE = 0x00000000007596c0 + __sdk_start;
_ZN2nn7account13ProfileEditorD1Ev = 0x00000000000ba1f0 + __sdk_start;
_ZN2nn2am20GetDisplayControllerEv = 0x00000000000baa0c + __sdk_start;
_ZN2nn4lmem6detail23GetExpHeapTotalFreeSizeEPNS1_8HeapHeadE = 0x0000000000069b3c + __sdk_start;
_ZN2nn8irsensor6detail13StatusManager9ClearLifoERKNS0_14IrCameraHandleE = 0x00000000002200e8 + __sdk_start;
_ZNK2nn5audio6common10NodeStates12GetNodeCountEv = 0x000000000017aedc + __sdk_start;
_ZN2nn2fs18IsSaveDataExistingERKNS0_6UserIdE = 0x0000000000062714 + __sdk_start;
_ZN7android8BnMemory10onTransactEjRKNS_6ParcelEPS1_j = 0x0000000000278b40 + __sdk_start;
_ZTSNSt3__119__shared_weak_countE = 0x00000000007b4f40 + __sdk_start;
NvRmGpuRegOpsSessionClose = 0x0000000000267ef0 + __sdk_start;
_ZN2nn3nfp29StartNicknameAndOwnerSettingsEPNS0_7TagInfoEPNS0_12DeviceHandleEPbPNS0_12RegisterInfoERKNS0_24AmiiboSettingsStartParamE = 0x000000000012ef4c + __sdk_start;
_ZN2nn4time39AsyncEnsureNetworkClockAvailabilityTask9StartTaskEv = 0x000000000016e410 + __sdk_start;
NvRmChipGetCapabilityBool = 0x000000000024a8f0 + __sdk_start;
_ZN2nn3hid20GetTouchScreenStatesILm14EEEiPNS0_16TouchScreenStateIXT_EEEi = 0x0000000000215f50 + __sdk_start;
_ZN2nn3mii6detail16Ver3StoreDataRaw12SetLocalonlyEi = 0x00000000001aeb4c + __sdk_start;
_ZN2nn7friends9SetOptionEiz = 0x00000000001126b0 + __sdk_start;
_ZN2nn3hid6detail20BindNfcActivateEventERjPNS_2os15SystemEventTypeENS3_14EventClearModeE = 0x0000000000206cd0 + __sdk_start;
_ZTSN2nn7account24IBaasAccessTokenAccessorE = 0x000000000074ed60 + __sdk_start;
_ZTVN2nn3hid15VibrationWriterE = 0x00000000008e70b8 + __sdk_start;
_ZN2nn4bcat21DeliveryCacheProgress6DetachEv = 0x00000000000cd3cc + __sdk_start;
_ZN2nn2sf6detail38ObjectImplFactoryWithStatefulAllocatorINS0_4cmif6client16CmifProxyFactoryINS_2am7service18ICommonStateGetterENS4_15CmifDomainProxyINS0_4hipc6client38Hipc2ClientSessionManagedProxyKindBaseINSB_18Hipc2ProxyKindBaseILNSA_6detail11MessageTypeE4EEEEEEENS0_30MemoryResourceAllocationPolicyEE13ServiceObjectESJ_E6Object7ReleaseEv = 0x00000000000bdd4c + __sdk_start;
_ZNSt3__19strstreamD0Ev = 0x000000000034844c + __sdk_start;
pthread_getschedparam = 0x000000000038a05c + __sdk_start;
_ZN2nn3hid6detail18SharedMemoryHolder10InitializeEv = 0x0000000000208f58 + __sdk_start;
_ZN2nn2fs6detail18FileSystemAccessor25CleanDirectoryRecursivelyEPKc = 0x000000000004bce0 + __sdk_start;
_ZNSt3__120__threads_data_queue12acquire_nodeEv = 0x0000000000306944 + __sdk_start;
snprintf = 0x00000000003bbaac + __sdk_start;
_ZN2nn3mem17StandardAllocatorC2EPvm = 0x0000000000082f00 + __sdk_start;
_ZNKSt3__119__shared_weak_count13__get_deleterERKSt9type_info = 0x000000000033d7f8 + __sdk_start;
__term_heap = 0x00000000001cc744 + __sdk_start;
_ZN2nn3nfp18DeleteRegisterInfoERKNS0_12DeviceHandleE = 0x000000000012ed48 + __sdk_start;
_ZTINSt3__18__c_nodeE = 0x0000000000903a58 + __sdk_start;
_ZN7android21SurfaceComposerClient8setLayerERKNS_2spINS_7IBinderEEEi = 0x00000000002a690c + __sdk_start;
_ZN2nn2sf4cmif6client6detail13CmifProxyImplINS_2am7service15ISelfControllerENS2_15CmifDomainProxyINS0_4hipc6client38Hipc2ClientSessionManagedProxyKindBaseINSA_18Hipc2ProxyKindBaseILNS9_6detail11MessageTypeE4EEEEEEENS0_30MemoryResourceAllocationPolicyES7_E36_nn_sf_sync_SetRestartMessageEnabledEb = 0x00000000000becf4 + __sdk_start;
_ZN2nn5audio3dsp8ApplyMixEPiPKiii = 0x000000000019b930 + __sdk_start;
_ZTIN2nn2sf4cmif6client6detail13CmifProxyImplINS_4nifm6detail15IGeneralServiceENS2_15CmifDomainProxyINS0_4hipc6client38Hipc2ClientSessionManagedProxyKindBaseINSA_18Hipc2ProxyKindBaseILNS9_6detail11MessageTypeE4EEEEEEENS0_25StatelessAllocationPolicyINS0_22ExpHeapStaticAllocatorILm16384ENS6_21ServiceProviderClient30CreateNifmUserServiceObjectTagEEEEES7_EE = 0x00000000008de050 + __sdk_start;
__nnmusl_PRead = 0x00000000003c3600 + __sdk_start;
_ZN2nn2fs34OpenGameCardDetectionEventNotifierEPNSt3__110unique_ptrINS0_14IEventNotifierENS1_14default_deleteIS3_EEEE = 0x000000000005d1c8 + __sdk_start;
_ZNK7android7RefBase14forceIncStrongEPKv = 0x00000000002ae404 + __sdk_start;
_ZN2nn2sf4cmif6client6detail13CmifProxyImplINS_3hid16IHidSystemServerENS0_4hipc6client18Hipc2ProxyKindBaseILNS7_6detail11MessageTypeE4EEENS0_25StatelessAllocationPolicyINS0_22ExpHeapStaticAllocatorILm16384ENS5_6detail15HidSystemServerEEEEES6_E41_nn_sf_sync_GetPlayReportControllerUsagesENS0_3OutIlvEERKNS0_8OutArrayINS5_6system25PlayReportControllerUsageEEE = 0x000000000021c708 + __sdk_start;
_ZN2nn4nifm38SetRequestConnectionConfirmationOptionENS0_13RequestHandleENS0_28ConnectionConfirmationOptionE = 0x0000000000149b1c + __sdk_start;
_ZN2nn3ngc6detail14ContentsReader13GetFilterDataEPvNS0_26ProfanityFilterPatternListEj = 0x0000000000138258 + __sdk_start;
log10 = 0x00000000003a9e18 + __sdk_start;
_ZNK2nn7friends13FriendSetting12GetNewlyFlagEv = 0x00000000001180ec + __sdk_start;
_ZNKSt3__114__codecvt_utf8IDsE9do_lengthER11__mbstate_tPKcS5_m = 0x0000000000335cf4 + __sdk_start;
_ZNK2nn3hid23VibrationNodeConnection11IsConnectedEv = 0x0000000000217b0c + __sdk_start;
_ZN2nn3hid6detail8RingLifoINS1_15UniquePadConfigELi1ENS1_13AtomicStorageIS3_EEED2Ev = 0x0000000000208ea8 + __sdk_start;
_ZTSN2nn3htc4tenv15IServiceManagerE = 0x00000000007412e0 + __sdk_start;
_ZNSt3__18ios_base8showbaseE = 0x00000000007b2ab0 + __sdk_start;
_ZTSN2nn2os6detail36MultiWaitHolderOfMessageQueueNotFullE = 0x0000000000742fa0 + __sdk_start;
_ZN2nn5audio6server24AudioRendererManagerImplD0Ev = 0x0000000000188c98 + __sdk_start;
_ZN2nn5image6detail4jpeg23jpeg_default_colorspaceEPNS2_20jpeg_compress_structE = 0x0000000000016e2c + __sdk_start;
_ZThn16_N2nn2sf4cmif6client6detail13CmifProxyImplINS_8settings28IFirmwareDebugSettingsServerENS0_4hipc6client18Hipc2ProxyKindBaseILNS7_6detail11MessageTypeE4EEENS0_25StatelessAllocationPolicyINS0_22ExpHeapStaticAllocatorILm16384ES6_EEEES6_E17GetCmifBaseObjectEv = 0x0000000000163820 + __sdk_start;
_ZN2nn4time6detail7service21ServiceProviderClientD2Ev = 0x000000000016f60c + __sdk_start;
_ZN2nn2sf4cmif6client6detail13CmifProxyImplINS_7friends6detail3ipc20INotificationServiceENS2_15CmifDomainProxyINS0_4hipc6client38Hipc2ClientSessionManagedProxyKindBaseINSB_18Hipc2ProxyKindBaseILNSA_6detail11MessageTypeE4EEEEEEENS0_30MemoryResourceAllocationPolicyES8_E20_nn_sf_sync_GetEventENS0_3OutINS0_12NativeHandleEvEE = 0x000000000011ed04 + __sdk_start;
nvdcEnableVblank = 0x000000000023a990 + __sdk_start;
_ZN2nn2sf4cmif6client6detail13CmifProxyImplINS_4nifm6detail8IRequestENS2_15CmifDomainProxyINS0_4hipc6client38Hipc2ClientSessionManagedProxyKindBaseINSA_18Hipc2ProxyKindBaseILNS9_6detail11MessageTypeE4EEEEEEENS0_25StatelessAllocationPolicyINS0_22ExpHeapStaticAllocatorILm16384ENS6_21ServiceProviderClient30CreateNifmUserServiceObjectTagEEEEES7_E38_nn_sf_sync_UnregisterSocketDescriptorEi = 0x0000000000145ef4 + __sdk_start;
_ZN2nn7account48NintendoAccountApplicationAuthorizationProcedureC2ERKNS0_3UidEPNS0_4http15IOAuthProcedureE = 0x00000000000b9c28 + __sdk_start;
__ftello = 0x00000000003bad54 + __sdk_start;
_ZNK2nn3mii6detail24NfpStoreDataExtentionRaw13GetGlassColorEv = 0x00000000001a6894 + __sdk_start;
_ZN2nn2vi6detail18SystemServiceProxyC2Ev = 0x00000000001bf230 + __sdk_start;
frexp = 0x00000000003a86cc + __sdk_start;
multimedia_DebugVprintf = 0x0000000000245c20 + __sdk_start;
_ZTIN2nn2sf6detail38ObjectImplFactoryWithStatefulAllocatorINS0_4cmif6client16CmifProxyFactoryINS_2am7service26ILibraryAppletSelfAccessorENS4_15CmifDomainProxyINS0_4hipc6client38Hipc2ClientSessionManagedProxyKindBaseINSB_18Hipc2ProxyKindBaseILNSA_6detail11MessageTypeE4EEEEEEENS0_30MemoryResourceAllocationPolicyEE13ServiceObjectESJ_E6ObjectE = 0x00000000008d8690 + __sdk_start;
nvdcGetModeDB2 = 0x000000000023b694 + __sdk_start;
__nnmusl_ErrnoLocation = 0x00000000003c6034 + __sdk_start;
FSS_get_glyph_metrics = 0x00000000001c9c08 + __sdk_start;
vwprintf = 0x00000000003bd230 + __sdk_start;
_ZN2nn4util10BitFlagSetILi256ENS_3hid11KeyboardKeyEE4FlagILi17EE4MaskE = 0x000000000078fcb8 + __sdk_start;
_ZTSN2nn5audio6server12DetailAspectE = 0x000000000077bc20 + __sdk_start;
_ZNSt3__17codecvtIDic11__mbstate_tED0Ev = 0x00000000003350f8 + __sdk_start;
_ZN2nn2sf4cmif6client6detail13CmifProxyImplINS_2am7service21IApplicationFunctionsENS2_15CmifDomainProxyINS0_4hipc6client38Hipc2ClientSessionManagedProxyKindBaseINSA_18Hipc2ProxyKindBaseILNS9_6detail11MessageTypeE4EEEEEEENS0_30MemoryResourceAllocationPolicyES7_E54_nn_sf_sync_BeginBlockingHomeButtonShortAndLongPressedEl = 0x00000000000c58f8 + __sdk_start;
_ZTv0_n24_N7android7BBinderD0Ev = 0x00000000002763cc + __sdk_start;
_ZN2nn5audio13DelayLineTickEPNS0_11FXDelayLineEi = 0x000000000017b080 + __sdk_start;
rand = 0x00000000003b0ef8 + __sdk_start;
_ZThn16_N2nn2sf4cmif6client6detail13CmifProxyImplINS_3hid15IAppletResourceENS0_4hipc6client18Hipc2ProxyKindBaseILNS7_6detail11MessageTypeE4EEENS0_25StatelessAllocationPolicyINS0_22ExpHeapStaticAllocatorILm16384ENS5_6detail9HidServerEEEEES6_E17GetCmifBaseObjectEv = 0x000000000021a958 + __sdk_start;
_ZTIN2nn4bcat6detail3ipc29IDeliveryCacheProgressServiceE = 0x00000000008da370 + __sdk_start;
_ZTIN2nn2sf6detail39ObjectImplFactoryWithStatelessAllocatorINS0_4cmif6client16CmifProxyFactoryINS_8settings24ISettingsItemKeyIteratorENS0_4hipc6client18Hipc2ProxyKindBaseILNS8_6detail11MessageTypeE4EEENS0_25StatelessAllocationPolicyINS0_22ExpHeapStaticAllocatorILm16384ENS6_28IFirmwareDebugSettingsServerEEEEEE13ServiceObjectESI_E6ObjectE = 0x00000000008df9a0 + __sdk_start;
_ZN2nn4util10BitFlagSetILi256ENS_3hid11KeyboardKeyEE4FlagILi99EE4MaskE = 0x00000000007906f8 + __sdk_start;
_ZN2nn2sf4cmif6client34CmifDomainProxyClientCoreProcessorINS0_4hipc6client38Hipc2ClientSessionManagedProxyKindBaseINS5_18Hipc2ProxyKindBaseILNS4_6detail11MessageTypeE4EEEEENS1_6detail14CoreMethodInfoINSt3__15tupleIJNSC_18OutRawArgumentInfoILm8ELm4ELl0EEENSC_21OutHandleArgumentInfoILi0ELi1EEENSG_ILm4ELm4ELl8EEENSC_18BufferArgumentInfoILi0ELi6ELm0EEENSC_17InRawArgumentInfoILm16ELm8ELl0EEEEEELm16ELm12ELb0EEESP_E7ProcessEPNS2_23CmifDomainClientMessageISB_E15ProxyBaseObjectENS2_24OutRawClientArgumentTypeILm8ELm4EEENS2_27OutHandleClientArgumentTypeENSW_ILm4ELm4EEENS2_24BufferClientArgumentTypeENS2_23InRawClientArgumentTypeILm16ELm8EvEEj = 0x0000000000154cac + __sdk_start;
_ZN2nn2fs26ReadOnlyFileSystemTemplateINSt3__110unique_ptrINS0_3fsa11IFileSystemENS2_14default_deleteIS5_EEEEE17DoCreateDirectoryEPKc = 0x0000000000061ac0 + __sdk_start;
_ZN2nn2sf4cmif6client6detail13CmifProxyImplINS_8settings22IFactorySettingsServerENS0_4hipc6client18Hipc2ProxyKindBaseILNS7_6detail11MessageTypeE4EEENS0_25StatelessAllocationPolicyINS0_22ExpHeapStaticAllocatorILm16384ES6_EEEES6_E31_nn_sf_sync_GetSpeakerParameterENS0_3OutINS5_7factory16SpeakerParameterEvEE = 0x00000000001624f4 + __sdk_start;
_ZN2nn3nfc6mifare6client27RequiredMcuVersionDataCountE = 0x00000000007670a8 + __sdk_start;
_ZN2nn7friends6detail20AsyncContextInternal6CancelEv = 0x000000000011926c + __sdk_start;
_ZN2nn2sf4cmif6client6detail13CmifProxyImplINS_3hid16IHidSystemServerENS0_4hipc6client18Hipc2ProxyKindBaseILNS7_6detail11MessageTypeE4EEENS0_25StatelessAllocationPolicyINS0_22ExpHeapStaticAllocatorILm16384ENS5_6detail15HidSystemServerEEEEES6_E56_nn_sf_sync_AcquirePlayReportRegisteredDeviceUpdateEventENS0_3OutINS0_12NativeHandleEvEE = 0x000000000021c734 + __sdk_start;
_ZN7android8String165setToERKS0_ = 0x00000000002af144 + __sdk_start;
_ZTIN2nn4bcat6detail3ipc28IDeliveryCacheStorageServiceE = 0x00000000008da4c0 + __sdk_start;
_ZN2nn3fgm7Request10InitializeENS0_6ModuleEjNS_2os14EventClearModeE = 0x00000000002f1f60 + __sdk_start;
_ZN2nn2sf4hipc6client24Hipc2ClientCoreProcessorILNS1_6detail11MessageTypeE4ENS0_4cmif6detail14CoreMethodInfoINSt3__15tupleIJNS7_18OutRawArgumentInfoILm4ELm4ELl0EEENSB_ILm4ELm4ELl4EEENS7_17InRawArgumentInfoILm4ELm4ELl0EEENS7_18BufferArgumentInfoILi0ELi33ELm0EEENSE_ILm4ELm4ELl4EEENSG_ILi1ELi33ELm0EEENSE_ILm4ELm4ELl8EEEEEELm12ELm8ELb0EEESL_E7ProcessEPNS2_26Hipc2ClientProxyBaseObjectENS6_6client24OutRawClientArgumentTypeILm4ELm4EEESS_NSQ_23InRawClientArgumentTypeILm4ELm4EvEENSQ_24BufferClientArgumentTypeESU_SV_SU_j = 0x00000000000a18a0 + __sdk_start;
_ZNKSt3__17num_getIcNS_19istreambuf_iteratorIcNS_11char_traitsIcEEEEE17__do_get_unsignedImEES4_S4_S4_RNS_8ios_baseERjRT_ = 0x0000000000314378 + __sdk_start;
_ZN2nn5image6detail4jpeg23jinit_c_main_controllerEPNS2_20jpeg_compress_structEb = 0x0000000000012e20 + __sdk_start;
_ZN2nn3mii6detail26RandomMiiFacelineMakeTableE = 0x0000000000788448 + __sdk_start;
_ZN2nn2vi6detail18SystemServiceProxy26InitializeRelayServiceImplEv = 0x00000000001bf88c + __sdk_start;
NvOsStat = 0x000000000023e5f4 + __sdk_start;
_ZN2nn3mii6detail12StoreDataRaw15SetEyebrowScaleEi = 0x00000000001a8638 + __sdk_start;
_ZN2nn5audio14MemoryPoolInfoC2Ev = 0x00000000001770d8 + __sdk_start;
_ZTINSt3__115time_get_bynameIwNS_19istreambuf_iteratorIwNS_11char_traitsIwEEEEEE = 0x0000000000906440 + __sdk_start;
_ZN2nn7account21DebugSetUserStateOpenERKNS0_3UidE = 0x00000000000acf84 + __sdk_start;
_ZNSt3__118__time_get_storageIcEC1EPKc = 0x0000000000321ff8 + __sdk_start;
_ZNKSt3__115__codecvt_utf16IDsLb1EE10do_unshiftER11__mbstate_tPcS4_RS4_ = 0x0000000000336904 + __sdk_start;
_ZNK2nn7friends13FriendRequest16GetRequestStatusEv = 0x0000000000116c60 + __sdk_start;
_ZNK2nn5audio6server12SinkInfoBase10ShouldSkipEv = 0x0000000000191018 + __sdk_start;
comb_filter = 0x00000000000d37d8 + __sdk_start;
_ZN2nn5audio6server11EntryAspectC2EPNS1_16CommandGeneratorENS0_20PerformanceEntryTypeEj = 0x000000000018b208 + __sdk_start;
alphasort64 = 0x00000000003a0c84 + __sdk_start;
_ZNK7android12SharedBuffer11attemptEditEv = 0x00000000002aeb18 + __sdk_start;
_ZN2nn2sf4hipc6detail25HipcMessageBufferAccessor12SetProcessIdEm = 0x0000000000094850 + __sdk_start;
_ZN2nn2vi26GetDisplayIdWithValidationEPKNS0_7DisplayE = 0x00000000001bd380 + __sdk_start;
_ZN2nn3pcv14ReleaseControlENS0_6ModuleE = 0x00000000002f74b4 + __sdk_start;
_ZN2nn3hid29GetNpadHandheldActivationModeEv = 0x0000000000214524 + __sdk_start;
_ZN2nn5audio19SplitterInfoManager19AcquireSplitterInfoEiii = 0x0000000000178d94 + __sdk_start;
_ZN2nn2sf4cmif6client6detail13CmifProxyImplINS_4pctl6detail3ipc23IParentalControlServiceENS2_15CmifDomainProxyINS0_4hipc6client38Hipc2ClientSessionManagedProxyKindBaseINSB_18Hipc2ProxyKindBaseILNSA_6detail11MessageTypeE4EEEEEEENS0_30MemoryResourceAllocationPolicyES8_E50_nn_sf_sync_UpdateFreeCommunicationApplicationListERKNS0_7InArrayINS5_32FreeCommunicationApplicationInfoEEE = 0x0000000000152eb0 + __sdk_start;
_ZN2nn6socket8resolver9GetOptionENS1_6Option4typeERm = 0x00000000000a55a8 + __sdk_start;
_ZN2nn3hid6detail20GetTouchScreenStatesILm3EEENS_6ResultEPiPNS0_16TouchScreenStateIXT_EEEi = 0x000000000020b350 + __sdk_start;
_ZN2nn3mii6detail21ServiceProviderClientD2Ev = 0x00000000001b1788 + __sdk_start;
_ZN22nerd_gillette_internal5otete7jaimev114DecodeShapeROKERNS1_13ShapeInPacketEPKhmPmRKNS1_17IntensityInPacketE = 0x0000000000223a18 + __sdk_start;
_ZTSN2nn2sf4cmif6client6detail13CmifProxyImplINS_2am7service15IAppletAccessorENS2_15CmifDomainProxyINS0_4hipc6client38Hipc2ClientSessionManagedProxyKindBaseINSA_18Hipc2ProxyKindBaseILNS9_6detail11MessageTypeE4EEEEEEENS0_30MemoryResourceAllocationPolicyENS6_20IApplicationAccessorEEE = 0x0000000000752920 + __sdk_start;
_ZTSN2nn2fs15RomFsFileSystemE = 0x000000000073b9a0 + __sdk_start;
_ZN2nn2fs11FileStorage5WriteElPKvm = 0x00000000000494c8 + __sdk_start;
_ZN2nn4edid6detail10InitializeEPNS0_4EdidE = 0x00000000000411f8 + __sdk_start;
_ZN2nn2fs9CloseFileENS0_10FileHandleE = 0x000000000004d18c + __sdk_start;
_ZTSN2nn2sf6detail38ObjectImplFactoryWithStatefulAllocatorINS0_4cmif6client16CmifProxyFactoryINS_4bcat6detail3ipc12IBcatServiceENS4_15CmifDomainProxyINS0_4hipc6client38Hipc2ClientSessionManagedProxyKindBaseINSC_18Hipc2ProxyKindBaseILNSB_6detail11MessageTypeE4EEEEEEENS0_30MemoryResourceAllocationPolicyEE13ServiceObjectESK_E6ObjectE = 0x0000000000759460 + __sdk_start;
frame_size_select = 0x0000000000101814 + __sdk_start;
log1p = 0x00000000003aa168 + __sdk_start;
_ZN2nn5audio23SplitterDestinationDataC1Ei = 0x00000000001794dc + __sdk_start;
_ZTSN2nn2sf4cmif6client16CmifProxyFactoryINS_2am7service13ILockAccessorENS2_15CmifDomainProxyINS0_4hipc6client38Hipc2ClientSessionManagedProxyKindBaseINS9_18Hipc2ProxyKindBaseILNS8_6detail11MessageTypeE4EEEEEEENS0_30MemoryResourceAllocationPolicyEE13ServiceObjectE = 0x00000000007505d0 + __sdk_start;
_ZN2nn3ngc6detail9CalcRank1EjPKmPKjPKh = 0x0000000000142e58 + __sdk_start;
_ZN2nn3hid5debug28SetTouchScreenAutoPilotStateILm15EEEvRKNS1_25TouchScreenAutoPilotStateIXT_EEE = 0x00000000002164b0 + __sdk_start;
_ZN2nn3hid23VibrationNodeConnectionC1EPNS0_13VibrationNodeES3_ = 0x00000000002179ac + __sdk_start;
_ZN7android12ConsumerBaseD0Ev = 0x0000000000293d34 + __sdk_start;
nnosGetUsedTlsSlotCount = 0x000000000008a240 + __sdk_start;
nnsocketBind = 0x000000000009a710 + __sdk_start;
_ZN2nn7friends15GetProfileExtraEPNS0_12AsyncContextEPNS0_12ProfileExtraERKNS_7account3UidERKNS0_10FriendCodeE = 0x0000000000114fb8 + __sdk_start;
FSS_inverse_map_char = 0x00000000001cbab4 + __sdk_start;
_ZN7android7String816convertToResPathEv = 0x00000000002b18b4 + __sdk_start;
_ZTSN2nn3spl6detail16IRandomInterfaceE = 0x000000000073b410 + __sdk_start;
_ZN2nn2os26GetMultiWaitHolderUserDataEPKNS0_19MultiWaitHolderTypeE = 0x0000000000088618 + __sdk_start;
NvRmChannelModuleMutexUnlock = 0x00000000002558f0 + __sdk_start;
_ZNSt3__16localeC1ERKNS_12basic_stringIcNS_11char_traitsIcEENS_9allocatorIcEEEE = 0x0000000000331004 + __sdk_start;
_ZN2nn6fontll18ScalableFontEngine22GetPointerToWorkBufferEv = 0x00000000001c3158 + __sdk_start;
_ZN2nn5audio6server24AudioRendererManagerImpl15AudioDeviceImpl26SetAudioDeviceOutputVolumeERKNS_2sf8InBufferEf = 0x0000000000193ab0 + __sdk_start;
_ZN2nn2sf22UnmanagedServiceObjectINS_5audio6detail21IAudioRendererManagerENS2_6server24AudioRendererManagerImplEE7ReleaseEv = 0x0000000000193e94 + __sdk_start;
nnmem_nlib_mutex_trylock_for = 0x000000000007a794 + __sdk_start;
_ZN2nn2os6detail27InterruptEventImplByHorizon9TimedWaitENS_8TimeSpanE = 0x000000000008f068 + __sdk_start;
_ZN2nn2sf4cmif6client6detail13CmifProxyImplINS_7friends6detail3ipc14IFriendServiceENS2_15CmifDomainProxyINS0_4hipc6client38Hipc2ClientSessionManagedProxyKindBaseINSB_18Hipc2ProxyKindBaseILNSA_6detail11MessageTypeE4EEEEEEENS0_30MemoryResourceAllocationPolicyES8_E54_nn_sf_sync_SendFriendRequestWithNintendoNetworkIdInfoERKNS_7account3UidENSL_23NetworkServiceAccountIdEiRKNS5_7MiiNameERKNS5_16MiiImageUrlParamESS_SV_ = 0x000000000011a7f4 + __sdk_start;
silk_stereo_only_code_mid_iCDF = 0x000000000075f6d5 + __sdk_start;
_ZNK2nn3hid6detail8RingLifoINS0_16TouchScreenStateILm16EEELi16ENS1_29TouchScreenStateAtomicStorageEE8ReadImplINS3_ILm9EEEEEiPT_i = 0x000000000020d47c + __sdk_start;
_ZTSN2nn2fs8IStorageE = 0x000000000073b8d0 + __sdk_start;
_ZTIN2nn2sf4cmif6client16CmifProxyFactoryINS_2am7service15IDebugFunctionsENS2_15CmifDomainProxyINS0_4hipc6client38Hipc2ClientSessionManagedProxyKindBaseINS9_18Hipc2ProxyKindBaseILNS8_6detail11MessageTypeE4EEEEEEENS0_30MemoryResourceAllocationPolicyEE13ServiceObjectE = 0x00000000008d7270 + __sdk_start;
_ZN2nn3ngc6detail12BinaryWriter4InitENS2_13EndianSettingE = 0x0000000000139bf8 + __sdk_start;
_ZNSt3__18ios_base7copyfmtERKS0_ = 0x0000000000306fd8 + __sdk_start;
_ZN2nn2fs6detail10MountTable18CanAcceptMountNameEPKc = 0x000000000004c6a4 + __sdk_start;
_ZNKSt3__112basic_stringIwNS_11char_traitsIwEENS_9allocatorIwEEE5rfindEPKwmm = 0x00000000003431fc + __sdk_start;
_ZN2nn2fs19GetGameCardAsicInfoEPNS_2gc14RmaInformationEPKvm = 0x000000000005dd54 + __sdk_start;
_ZN2nn2sf6detail38ObjectImplFactoryWithStatefulAllocatorINS0_4cmif6client16CmifProxyFactoryINS_2am7service21ILibraryAppletCreatorENS4_15CmifDomainProxyINS0_4hipc6client38Hipc2ClientSessionManagedProxyKindBaseINSB_18Hipc2ProxyKindBaseILNSA_6detail11MessageTypeE4EEEEEEENS0_30MemoryResourceAllocationPolicyEE13ServiceObjectESJ_E6Object12AddReferenceEv = 0x00000000000c2454 + __sdk_start;
_ZN2nn5audio6server17AudioRenderSystem17SignalSystemEventEv = 0x0000000000188768 + __sdk_start;
log2f = 0x00000000003aa6a0 + __sdk_start;
_ZN2nn4util10StringPool12SetSignatureEv = 0x000000000003a964 + __sdk_start;
_ZN2nn2sf4hipc6client24Hipc2ClientCoreProcessorILNS1_6detail11MessageTypeE4ENS0_4cmif6detail14CoreMethodInfoINSt3__15tupleIJNS7_17InRawArgumentInfoILm4ELm4ELl4EEENSB_ILm8ELm8ELl8EEENSB_ILm1ELm1ELl0EEENS7_18BufferArgumentInfoILi0ELi5ELm0EEENS7_18OutRawArgumentInfoILm4ELm4ELl0EEENSH_ILm4ELm4ELl4EEENSF_ILi1ELi6ELm0EEENSH_ILm4ELm4ELl8EEEEEELm16ELm12ELb1EEESM_E7ProcessEPNS2_26Hipc2ClientProxyBaseObjectENS6_6client23InRawClientArgumentTypeILm4ELm4EvEENSS_ILm8ELm8EvEENSS_ILm1ELm1EvEENSR_24BufferClientArgumentTypeENSR_24OutRawClientArgumentTypeILm4ELm4EEESY_SW_SY_j = 0x00000000000a7424 + __sdk_start;
_ZNKSt3__112basic_stringIwNS_11char_traitsIwEENS_9allocatorIwEEE7compareEPKw = 0x00000000003436c0 + __sdk_start;
check_sfnt = 0x00000000001f7d04 + __sdk_start;
_ZN2nn3mii6detail11CoreDataRaw11SetEyeColorEi = 0x00000000001a522c + __sdk_start;
_ZN2nn2os6detail21WaitInterProcessEventEPNS1_21InterProcessEventTypeE = 0x000000000008a400 + __sdk_start;
log2l = 0x00000000003aa7f8 + __sdk_start;
_ZN2nn5audio27GetFinalOutputRecorderStateEPKNS0_19FinalOutputRecorderE = 0x0000000000186c1c + __sdk_start;
_ZNSt3__111regex_errorC1ENS_15regex_constants10error_typeE = 0x000000000033e494 + __sdk_start;
NvOsAlloc = 0x000000000023e49c + __sdk_start;
_ZN2nn4bcat22DeliveryCacheDirectoryC2Ev = 0x00000000000cc9c4 + __sdk_start;
__ofl_unlock = 0x00000000003887a0 + __sdk_start;
_ZN2nn3mii6detail34ModifyVer3StoreDataNicknameInvalidEPNS0_8NicknameE = 0x00000000001a89e0 + __sdk_start;
_ZN2nn2sf4cmif6client6detail13CmifProxyImplINS_3fgm2sf9IDebuggerENS0_4hipc6client18Hipc2ProxyKindBaseILNS8_6detail11MessageTypeE4EEENS0_25StatelessAllocationPolicyINS0_22ExpHeapStaticAllocatorILm16384ENS5_8DebuggerEEEEES7_E16_nn_sf_sync_ReadERKNS0_9OutBufferENS0_3OutIjvEESO_SO_ = 0x00000000002f3694 + __sdk_start;
_ZN2nn5prepo16SystemPlayReport5ClearEv = 0x0000000000157f78 + __sdk_start;
_ZN2nn8settings6detail13GetLdnChannelEPi = 0x000000000015f7b8 + __sdk_start;
_ZN2nn3nsd22GetNasServiceSettingExEPNS0_17NasServiceSettingERKNS0_14NasServiceNameE = 0x000000000014b984 + __sdk_start;
_ZN2nn2sf4cmif6client32GetClientProcessorWithObjectBaseINS2_15CmifDomainProxyINS0_4hipc6client38Hipc2ClientSessionManagedProxyKindBaseINS6_18Hipc2ProxyKindBaseILNS5_6detail11MessageTypeE4EEEEEEEE14ObjectAssignerINS0_25StatelessAllocationPolicyINS0_22ExpHeapStaticAllocatorILm16384ENS_4nifm6detail21ServiceProviderClient30CreateNifmUserServiceObjectTagEEEEENS0_6detail23StatelessDummyAllocatorEE14AllocateObjectINSJ_15IGeneralServiceEEEvi = 0x0000000000144f84 + __sdk_start;
__isoc99_fwscanf = 0x00000000003bb1b0 + __sdk_start;
_ZN2nn2sf22UnmanagedServiceObjectINS0_4hipc6detail12IHipcManagerENS2_6server34HipcServerSessionManagerWithDomain15HipcManagerImplEE12AddReferenceEv = 0x00000000000979c0 + __sdk_start;
_ZNSt3__112ctype_bynameIcEC1ERKNS_12basic_stringIcNS_11char_traitsIcEENS_9allocatorIcEEEEm = 0x0000000000332dcc + __sdk_start;
_ZN2nn2sf4hipc6server6detail29HipcAllInOneServerManagerBase16ProcessAsSessionEPNS_2os19MultiWaitHolderTypeEPvm = 0x00000000000952c0 + __sdk_start;
_ZN2nn3hid6detail20GetNpadJoyAssignmentEPNS0_21NpadJoyAssignmentModeERKj = 0x0000000000203464 + __sdk_start;
_ZN2nn2sf4cmif6client6detail13CmifProxyImplINS_8settings22IFactorySettingsServerENS0_4hipc6client18Hipc2ProxyKindBaseILNS7_6detail11MessageTypeE4EEENS0_25StatelessAllocationPolicyINS0_22ExpHeapStaticAllocatorILm16384ES6_EEEES6_E29_nn_sf_sync_GetSslCertificateENS0_3OutINS5_7factory14SslCertificateEvEE = 0x0000000000162444 + __sdk_start;
_ZN2nn6crypto6detail8p256_mulEPNS1_10p256_pointEPKjiPKS2_PKNS1_10p256_curveE = 0x0000000000003e94 + __sdk_start;
_ZN2nn2sf4cmif6client6detail13CmifProxyImplINS_7account4baas24IManagerForSystemServiceENS2_15CmifDomainProxyINS0_4hipc6client38Hipc2ClientSessionManagedProxyKindBaseINSA_18Hipc2ProxyKindBaseILNS9_6detail11MessageTypeE4EEEEEEENS0_25StatelessAllocationPolicyINS0_22ExpHeapStaticAllocatorILm2048ENS5_6detail12ObjectHolder24ObjectHolderAllocatorTagEEEEENS6_14IAdministratorEE56_nn_sf_sync_RefreshNintendoAccountUserResourceCacheAsyncENS0_3OutINS0_13SharedPointerINSK_13IAsyncContextEEEvEE = 0x00000000000b381c + __sdk_start;
_ZN2nn2sf4cmif6client6detail13CmifProxyImplINS_4pctl6detail3ipc23IParentalControlServiceENS2_15CmifDomainProxyINS0_4hipc6client38Hipc2ClientSessionManagedProxyKindBaseINSB_18Hipc2ProxyKindBaseILNSA_6detail11MessageTypeE4EEEEEEENS0_30MemoryResourceAllocationPolicyES8_E31_nn_sf_sync_FinishUnlinkPairingENS6_9AsyncDataEb = 0x0000000000153438 + __sdk_start;
NvRmSyncGetFd = 0x000000000024e184 + __sdk_start;
_ZN2nn5audio6server11AddressInfo7SetPoolEPNS1_14MemoryPoolInfoE = 0x000000000018f678 + __sdk_start;
_ZN2nn5audio14DelayParameter24SupportedChannelCountMaxE = 0x00000000007741b8 + __sdk_start;
_ZN2nn2fs6detail24FileServiceObjectAdapterD2Ev = 0x000000000005c0b4 + __sdk_start;
_ZTSN2nn2sf4cmif6client6detail9CmifProxyINS_7timesrv6detail7service16ITimeZoneServiceENS2_15CmifDomainProxyINS0_4hipc6client38Hipc2ClientSessionManagedProxyKindBaseINSB_18Hipc2ProxyKindBaseILNSA_6detail11MessageTypeE4EEEEEEENS0_25StatelessAllocationPolicyINS0_22ExpHeapStaticAllocatorILm16384ENS_4time6detail7service21ServiceProviderClient30CreateTimeUserServiceObjectTagEEEEEvEE = 0x0000000000772ed0 + __sdk_start;
_ZNSt3__112strstreambuf6__initEPclS1_ = 0x0000000000347728 + __sdk_start;
_ZN2nn8irsensor6detail15IrSensorSession25GetWindowOfInterestConfigERKNS0_14IrCameraHandleE = 0x0000000000220b6c + __sdk_start;
_ZNKSt3__15ctypeIwE5do_isEPKwS3_Pt = 0x000000000033235c + __sdk_start;
_ZN7android21SurfaceComposerClient14setClientARUIDERKN2nn6applet20AppletResourceUserIdE = 0x00000000002a5cac + __sdk_start;
_ZTIN2nn2sf4cmif6client16CmifProxyFactoryINS_3hid15IAppletResourceENS0_4hipc6client18Hipc2ProxyKindBaseILNS6_6detail11MessageTypeE4EEENS0_25StatelessAllocationPolicyINS0_22ExpHeapStaticAllocatorILm16384ENS4_6detail9HidServerEEEEEE13ServiceObjectE = 0x00000000008e7830 + __sdk_start;
_ZN2nn8irsensor28GetTeraPluginProcessorStatesEPNS0_24TeraPluginProcessorStateEPiiljiRKNS0_14IrCameraHandleE = 0x0000000000221a0c + __sdk_start;
_ZN2nn4time38CancelEnsuringNetworkClockAvailabilityEv = 0x000000000016e3a8 + __sdk_start;
_ZN7android7String8C1EPKDi = 0x00000000002afd04 + __sdk_start;
_ZN2nn8settings6system18SetAudioOutputModeENS1_15AudioOutputModeENS1_21AudioOutputModeTargetE = 0x000000000015a294 + __sdk_start;
_ZTIN2nn2sf6detail39ObjectImplFactoryWithStatelessAllocatorINS0_4cmif6client16CmifProxyFactoryINS_7timesrv6detail7service14IStaticServiceENS4_15CmifDomainProxyINS0_4hipc6client38Hipc2ClientSessionManagedProxyKindBaseINSC_18Hipc2ProxyKindBaseILNSB_6detail11MessageTypeE4EEEEEEENS0_25StatelessAllocationPolicyINS0_22ExpHeapStaticAllocatorILm16384ENS_4time6detail7service21ServiceProviderClient30CreateTimeUserServiceObjectTagEEEEEE13ServiceObjectESS_E6ObjectE = 0x00000000008e07a0 + __sdk_start;
_ZN2nn5audio6server11InfoUpdater18UpdateSplitterInfoERNS1_15SplitterContextE = 0x000000000018e178 + __sdk_start;
__lesf2 = 0x000000000037ea54 + __sdk_start;
_ZN2nn5audio6server12SinkInfoBase7CleanUpEv = 0x0000000000191028 + __sdk_start;
_ZNKSt3__110moneypunctIcLb1EE14do_frac_digitsEv = 0x0000000000324acc + __sdk_start;
_ZTIN2nn3hid6detail8RingLifoINS0_10MouseStateELi16ENS1_13AtomicStorageIS3_EEEE = 0x00000000008e5ff8 + __sdk_start;
_ZTSN2nn3hid6detail17CaptureButtonLifoE = 0x000000000078f490 + __sdk_start;
_ZN2nn8settings6detail23GetExternalRtcResetFlagEPb = 0x00000000001600a0 + __sdk_start;
_ZN2nn6fontll18ScalableFontEngineD1Ev = 0x00000000001c30b0 + __sdk_start;
_ZN2nn3hid6detail32BindJoyDetachOnBluetoothOffEventEPNS_2os15SystemEventTypeENS2_14EventClearModeE = 0x00000000002002f4 + __sdk_start;
_ZN2nn3hid6detail20BindSleepButtonEventEPNS_2os15SystemEventTypeENS2_14EventClearModeE = 0x0000000000209b40 + __sdk_start;
_ZN2nn2la21CommonArgumentsWriterC2Ej = 0x00000000001a100c + __sdk_start;
nvdcSetCsc = 0x000000000023a0a4 + __sdk_start;
_ZN7android7String8C1EPKDs = 0x00000000002afca0 + __sdk_start;
__nnmusl_MutexUnlock = 0x00000000003c45c0 + __sdk_start;
_ZNSt3__110moneypunctIwLb0EE2idE = 0x0000000000a0a0f0 + __sdk_start;
_ZN2nn2sf4cmif6client6detail13CmifProxyImplINS_7account19IAccountServiceBaseENS2_15CmifDomainProxyINS0_4hipc6client38Hipc2ClientSessionManagedProxyKindBaseINS9_18Hipc2ProxyKindBaseILNS8_6detail11MessageTypeE4EEEEEEENS0_25StatelessAllocationPolicyINS0_22ExpHeapStaticAllocatorILm2048ENS5_6detail12ObjectHolder24ObjectHolderAllocatorTagEEEEENS5_31IAccountServiceForSystemServiceEE29_nn_sf_sync_GetLastOpenedUserENS0_3OutINS5_3UidEvEE = 0x00000000000b01a4 + __sdk_start;
_ZN2nn2fs15GetSaveDataSizeEPlS1_RKNS_7account3UidE = 0x0000000000120b78 + __sdk_start;
_ZN2nn3err9ShowErrorENS_6ResultE = 0x000000000010ef1c + __sdk_start;
_ZN2nn2sf4cmif6client6detail13CmifProxyImplINS_2am7service18ICommonStateGetterENS2_15CmifDomainProxyINS0_4hipc6client38Hipc2ClientSessionManagedProxyKindBaseINSA_18Hipc2ProxyKindBaseILNS9_6detail11MessageTypeE4EEEEEEENS0_30MemoryResourceAllocationPolicyES7_E12GetProxyInfoEv = 0x00000000000bdda4 + __sdk_start;
_ZTIN2nn2os6detail33MultiWaitHolderOfNativeWaitObjectE = 0x00000000008d0390 + __sdk_start;
_ZN2nn2fs10CreateFileEPKcl = 0x000000000004d81c + __sdk_start;
_ZN7android12uptimeMillisEv = 0x00000000002b18b8 + __sdk_start;
_ZTIN2nn2sf6detail27UnmanagedEmplacedImplHolderINS0_4hipc6server34HipcServerSessionManagerWithDomain15HipcManagerImplEEE = 0x00000000008d0df0 + __sdk_start;
_ZTIN2nn2sf4hipc6server6detail29HipcAllInOneServerManagerBaseE = 0x00000000008d0a90 + __sdk_start;
NvRmStreamFlush = 0x0000000000254604 + __sdk_start;
_ZN2nn7nlibsdk4heap12TlsHeapCache15AllocFunc_Mode0INSt3__117integral_constantIbLb0EEEEEPvPS2_m = 0x000000000007bcf0 + __sdk_start;
_ZN2nn2sf4hipc6client34HipcSimpleClientSessionManagerBase4Impl18InitializeByHandleINS_7account31IAccountServiceForAdministratorENS0_25StatelessAllocationPolicyINS0_22ExpHeapStaticAllocatorILm2048ENS6_6detail12ObjectHolder24ObjectHolderAllocatorTagEEEEEEENS_6ResultEPNS0_13SharedPointerIT_EENS_3svc6HandleE = 0x00000000000b1c7c + __sdk_start;
_ZN2nn3mii13AppletManagerC1Ev = 0x00000000001b3184 + __sdk_start;
drand48 = 0x00000000003b0e08 + __sdk_start;
_ZN2nn3hid6detail18DeactivateIrSensorERjNS_6applet20AppletResourceUserIdE = 0x00000000002070d0 + __sdk_start;
NvOsEventPoolLink = 0x0000000000244618 + __sdk_start;
_ZN2nn3hid6detail17StopSixAxisSensorERKNS0_26ConsoleSixAxisSensorHandleE = 0x00000000001fde48 + __sdk_start;
_ZN2nn2sf4cmif6client34CmifDomainProxyClientCoreProcessorINS0_4hipc6client38Hipc2ClientSessionManagedProxyKindBaseINS5_18Hipc2ProxyKindBaseILNS4_6detail11MessageTypeE4EEEEENS1_6detail14CoreMethodInfoINSt3__15tupleIJNSC_18OutRawArgumentInfoILm4ELm4ELl0EEENSC_21OutObjectArgumentInfoILi0ELi0EEEEEELm0ELm4ELb0EEESK_E21ProcessWithOutObjectsEPNS2_23CmifDomainClientMessageISB_E15ProxyBaseObjectENS2_24OutRawClientArgumentTypeILm4ELm4EEENS2_27OutObjectClientArgumentTypeEjPNS0_13SharedPointerINS0_14IServiceObjectEEE = 0x00000000001246b8 + __sdk_start;
_ZN2nn3hid20GetNpadJoyAssignmentERKj = 0x00000000002141ec + __sdk_start;
_ZNK2nn3mii11AppletInput7GetModeEv = 0x00000000001b2ffc + __sdk_start;
_ZN2nn8irsensor6detail13StatusManager18AllocateMomentLifoERKNS0_14IrCameraHandleE = 0x000000000021fdd4 + __sdk_start;
_ZN2nn8settings6detail25CreateSettingsServerProxyEPNS_2sf13SharedPointerINS0_15ISettingsServerEEE = 0x00000000001642d8 + __sdk_start;
_ZNSt3__117__widen_from_utf8ILm16EED1Ev = 0x0000000000312764 + __sdk_start;
_ZN7android21SurfaceComposerClient17getBuiltInDisplayEi = 0x00000000002a6598 + __sdk_start;
_ZNSt3__114__shared_count16__release_sharedEv = 0x000000000033d6a4 + __sdk_start;
_ZN2nn3hid6detail13GetXpadStatesEPiPNS0_14BasicXpadStateEiRKNS0_11BasicXpadIdE = 0x00000000001fd33c + __sdk_start;
_ZN2nn2sf4cmif6client6detail13CmifProxyImplINS_3hid19IHidTemporaryServerENS0_4hipc6client18Hipc2ProxyKindBaseILNS7_6detail11MessageTypeE4EEENS0_25StatelessAllocationPolicyINS0_22ExpHeapStaticAllocatorILm16384ENS5_6detail18HidTemporaryServerEEEEES6_E12GetProxyInfoEv = 0x000000000021db14 + __sdk_start;
_ZN2nn2sf4cmif6client34CmifDomainProxyClientCoreProcessorINS0_4hipc6client38Hipc2ClientSessionManagedProxyKindBaseINS5_18Hipc2ProxyKindBaseILNS4_6detail11MessageTypeE4EEEEENS1_6detail14CoreMethodInfoINSt3__15tupleIJNSC_17InRawArgumentInfoILm32ELm1ELl0EEEEEELm32ELm0ELb0EEESI_E7ProcessEPNS2_23CmifDomainClientMessageISB_E15ProxyBaseObjectENS2_23InRawClientArgumentTypeILm32ELm1EvEEj = 0x00000000000cfd94 + __sdk_start;
_ZN2nn2sf4cmif6client6detail13CmifProxyImplINS_2am7service21IApplicationFunctionsENS2_15CmifDomainProxyINS0_4hipc6client38Hipc2ClientSessionManagedProxyKindBaseINSA_18Hipc2ProxyKindBaseILNS9_6detail11MessageTypeE4EEEEEEENS0_30MemoryResourceAllocationPolicyES7_E47_nn_sf_sync_SetMediaPlaybackStateForApplicationEb = 0x00000000000c59b8 + __sdk_start;
_ZN2nn2sf4cmif6client6detail13CmifProxyImplINS_7account4baas12IManagerBaseENS2_15CmifDomainProxyINS0_4hipc6client38Hipc2ClientSessionManagedProxyKindBaseINSA_18Hipc2ProxyKindBaseILNS9_6detail11MessageTypeE4EEEEEEENS0_25StatelessAllocationPolicyINS0_22ExpHeapStaticAllocatorILm2048ENS5_6detail12ObjectHolder24ObjectHolderAllocatorTagEEEEENS6_22IManagerForApplicationEE28_nn_sf_sync_LoadIdTokenCacheENS0_3OutIjvEERKNS0_9OutBufferE = 0x00000000000aea30 + __sdk_start;
_ZTSN2nn4bcat6detail3ipc29IDeliveryCacheProgressServiceE = 0x0000000000759db0 + __sdk_start;
_ZNSt3__119__thread_local_dataEv = 0x0000000000349030 + __sdk_start;
_ZNSt3__113basic_ostreamIcNS_11char_traitsIcEEED2Ev = 0x000000000030d788 + __sdk_start;
wcspbrk = 0x00000000003c0c5c + __sdk_start;
atan = 0x00000000003a4384 + __sdk_start;
_ZNK2nn2sf4hipc6server17HipcServerMessage18GetInNativeHandlesEPNS0_12NativeHandleE = 0x0000000000096684 + __sdk_start;
_ZNK2nn3ngc6detail2Bp7MemSizeEv = 0x000000000013c5c0 + __sdk_start;
_ZN2nn2sf4hipc6detail25HipcMessageBufferAccessor6SetTagEt = 0x0000000000094838 + __sdk_start;
_ZN2nn2sf4cmif6client6detail13CmifProxyImplINS_8settings24ISettingsItemKeyIteratorENS0_4hipc6client18Hipc2ProxyKindBaseILNS7_6detail11MessageTypeE4EEENS0_25StatelessAllocationPolicyINS0_22ExpHeapStaticAllocatorILm16384ENS5_28IFirmwareDebugSettingsServerEEEEES6_E18_nn_sf_sync_GetKeyENS0_3OutImvEERKNS0_9OutBufferE = 0x0000000000164040 + __sdk_start;
opus_encoder_ctl = 0x0000000000105044 + __sdk_start;
_ZN2nn5audio41I3DL2ReverbGetRequiredDelayLineBufferSizeEii = 0x000000000017b568 + __sdk_start;
_ZNSt3__16thread6detachEv = 0x0000000000348f08 + __sdk_start;
_ZN2nn2sf4cmif6client6detail13CmifProxyImplINS_7account19IAccountServiceBaseENS2_15CmifDomainProxyINS0_4hipc6client38Hipc2ClientSessionManagedProxyKindBaseINS9_18Hipc2ProxyKindBaseILNS8_6detail11MessageTypeE4EEEEEEENS0_25StatelessAllocationPolicyINS0_22ExpHeapStaticAllocatorILm2048ENS5_6detail12ObjectHolder24ObjectHolderAllocatorTagEEEEENS5_31IAccountServiceForSystemServiceEE17GetCmifBaseObjectEv = 0x00000000000b0670 + __sdk_start;
_ZN2nn4nifm6detail27GetScanRequestClientPointerEPPNS1_17ScanRequestClientE = 0x00000000001485d4 + __sdk_start;
_ZNK2nn3mii6detail12StoreDataRaw8GetMoleYEv = 0x00000000001a8158 + __sdk_start;
_ZN2nn4pctl18PairingAccountInfoC2Ev = 0x0000000000151370 + __sdk_start;
__atomic_load_1 = 0x0000000000384f94 + __sdk_start;
__atomic_load_2 = 0x0000000000384fb8 + __sdk_start;
ec_decode = 0x00000000000ddfa0 + __sdk_start;
_ZN2nn2sf4cmif6client6detail13CmifProxyImplINS_8settings22IFactorySettingsServerENS0_4hipc6client18Hipc2ProxyKindBaseILNS7_6detail11MessageTypeE4EEENS0_25StatelessAllocationPolicyINS0_22ExpHeapStaticAllocatorILm16384ES6_EEEES6_E38_nn_sf_sync_GetWirelessLanCountryCodesENS0_3OutIivEERKNS0_8OutArrayINS5_7factory11CountryCodeEEE = 0x000000000016232c + __sdk_start;
__atomic_load_4 = 0x0000000000384fdc + __sdk_start;
_ZN7android14SurfaceControl17setLayerStackMaskEi = 0x00000000002a3ffc + __sdk_start;
__atomic_load_8 = 0x0000000000385000 + __sdk_start;
_ZNSt3__115basic_streambufIwNS_11char_traitsIwEEEaSERKS3_ = 0x0000000000308028 + __sdk_start;
_ZTSN2nn3hid6detail8RingLifoINS0_6system18NpadSystemExtStateELi16ENS1_13AtomicStorageIS4_EEEE = 0x000000000078f1f0 + __sdk_start;
_ZN2nn3hid15VibrationTarget24GetVibrationDeviceHandleEv = 0x000000000021828c + __sdk_start;
_ZN2nn2sf6detail39ObjectImplFactoryWithStatelessAllocatorINS0_4cmif6client16CmifProxyFactoryINS_3hid16IHidSystemServerENS0_4hipc6client18Hipc2ProxyKindBaseILNS8_6detail11MessageTypeE4EEENS0_25StatelessAllocationPolicyINS0_22ExpHeapStaticAllocatorILm16384ENS6_6detail15HidSystemServerEEEEEE13ServiceObjectESJ_E6Object12AddReferenceEv = 0x000000000021c150 + __sdk_start;
_ZN2nn7friends14GetMiiImageUrlEPNS0_3UrlERKNS0_16MiiImageUrlParamE = 0x0000000000115670 + __sdk_start;
_ZN2nn2fs8ReadFileEPmNS0_10FileHandleElPvmRKNS0_10ReadOptionE = 0x000000000004d304 + __sdk_start;
_ZN2nn3svc7aarch644lp6421GetDebugThreadContextEPNS0_13ThreadContextENS0_6HandleEmj = 0x00000000000aa02c + __sdk_start;
_ZN2nn2sf4cmif6client6detail13CmifProxyImplINS_2am7service18IDisplayControllerENS2_15CmifDomainProxyINS0_4hipc6client38Hipc2ClientSessionManagedProxyKindBaseINSA_18Hipc2ProxyKindBaseILNS9_6detail11MessageTypeE4EEEEEEENS0_30MemoryResourceAllocationPolicyES7_E46_nn_sf_sync_ReleaseLastForegroundCaptureBufferEv = 0x00000000000bfb78 + __sdk_start;
_ZN2nn4util18MatrixRowMajor4x3f16ConstantIdentityE = 0x000000000073a6f0 + __sdk_start;
_ZTv0_n24_NSt3__113basic_ostreamIcNS_11char_traitsIcEEED0Ev = 0x000000000030d7d0 + __sdk_start;
_ZN2nn2os21GetThreadSuspendCountEPKNS0_10ThreadTypeE = 0x0000000000089358 + __sdk_start;
_ZN2nn2fs13MountSaveDataEPKcNS_3ncm13ApplicationIdERKNS_7account3UidE = 0x00000000001204a8 + __sdk_start;
_ZTVN7android12ConsumerBaseE = 0x00000000008f7f28 + __sdk_start;
_ZN2nn3mii13AppletManager16SetResultSuccessEv = 0x00000000001b32d0 + __sdk_start;
_ZNSt3__121recursive_timed_mutexC1Ev = 0x000000000033dde0 + __sdk_start;
_ZNSt3__117iostream_categoryEv = 0x0000000000311860 + __sdk_start;
_ZTCNSt3__110istrstreamE0_NS_13basic_istreamIcNS_11char_traitsIcEEEE = 0x00000000009078d0 + __sdk_start;
_ZN2nn8irsensor6detail15IrSensorSession18StopImageProcessorERKNS0_14IrCameraHandleE = 0x0000000000220a80 + __sdk_start;
_ZTIN2nn2sf4cmif6client6detail9CmifProxyINS_8settings28IFirmwareDebugSettingsServerENS0_4hipc6client18Hipc2ProxyKindBaseILNS7_6detail11MessageTypeE4EEENS0_25StatelessAllocationPolicyINS0_22ExpHeapStaticAllocatorILm16384ES6_EEEEvEE = 0x00000000008df810 + __sdk_start;
_ZN2nn8settings6detail24ResetDebugPadKeyboardMapEv = 0x0000000000161fcc + __sdk_start;
_ZTSN2nn2sf6detail39ObjectImplFactoryWithStatelessAllocatorINS0_4cmif6client16CmifProxyFactoryINS_8irsensor15IIrSensorServerENS0_4hipc6client18Hipc2ProxyKindBaseILNS8_6detail11MessageTypeE4EEENS0_25StatelessAllocationPolicyINS0_22ExpHeapStaticAllocatorILm16384ENS6_6detail14IrSensorServerEEEEEE13ServiceObjectESJ_E6ObjectE = 0x00000000007986e0 + __sdk_start;
_ZN2nn5audio19RegisterBufferEventEPNS0_8AudioOutEPNS_2os11SystemEventE = 0x000000000018571c + __sdk_start;
_ZNK7android13GraphicBuffer16getFlattenedSizeEv = 0x00000000002aa594 + __sdk_start;
_ZN2nn5audio22GetI3dl2ReverbRoomGainEPKNS0_15I3dl2ReverbTypeE = 0x0000000000176068 + __sdk_start;
_ZNSt3__112system_error6__initERKNS_10error_codeENS_12basic_stringIcNS_11char_traitsIcEENS_9allocatorIcEEEE = 0x0000000000348858 + __sdk_start;
_ZN2nn2sf4cmif6client6detail13CmifProxyImplINS_3hid16IHidSystemServerENS0_4hipc6client18Hipc2ProxyKindBaseILNS7_6detail11MessageTypeE4EEENS0_25StatelessAllocationPolicyINS0_22ExpHeapStaticAllocatorILm16384ENS5_6detail15HidSystemServerEEEEES6_E33_nn_sf_sync_GetNpadSystemExtStyleENS0_3OutIlvEESL_j = 0x000000000021c48c + __sdk_start;
_ZN2nn5audio24PerformanceBufferManagerC2Ev = 0x0000000000177c68 + __sdk_start;
_ZN2nn2sf4cmif6client6detail13CmifProxyImplINS_2am7service18ICommonStateGetterENS2_15CmifDomainProxyINS0_4hipc6client38Hipc2ClientSessionManagedProxyKindBaseINSA_18Hipc2ProxyKindBaseILNS9_6detail11MessageTypeE4EEEEEEENS0_30MemoryResourceAllocationPolicyES7_E32_nn_sf_sync_PushToGeneralChannelENS0_13SharedPointerINS6_8IStorageEEE = 0x00000000000bdf6c + __sdk_start;
_ZTVN2nn2os6detail26MultiWaitHolderOfSemaphoreE = 0x00000000008d0268 + __sdk_start;
__ledf2 = 0x000000000037e7b8 + __sdk_start;
_ZN2nn2sf4cmif6client6detail13CmifProxyImplINS_7friends6detail3ipc14IFriendServiceENS2_15CmifDomainProxyINS0_4hipc6client38Hipc2ClientSessionManagedProxyKindBaseINSB_18Hipc2ProxyKindBaseILNSA_6detail11MessageTypeE4EEEEEEENS0_30MemoryResourceAllocationPolicyES8_E30_nn_sf_sync_GetProfileImageUrlENS0_3OutINS5_3UrlEvEERKSM_i = 0x000000000011a184 + __sdk_start;
_ZN2nn5audio6server6detail26SetAudioDeviceOutputVolumeEPKNS0_15AudioDeviceNameEfRKNS_6applet20AppletResourceUserIdE = 0x0000000000193da4 + __sdk_start;
_ZN2nn2sf4cmif6server23CmifServerDomainManager6DomainC1EPS3_ = 0x0000000000092f30 + __sdk_start;
_ZN2nn3ngc6detail17MemoryInputStreamD1Ev = 0x000000000013ea6c + __sdk_start;
_ZNSt3__113basic_istreamIwNS_11char_traitsIwEEE5ungetEv = 0x000000000030d180 + __sdk_start;
FSS_resize = 0x00000000001cba14 + __sdk_start;
_ZN2nn2sf4cmif6client6detail13CmifProxyImplIN3nns9hosbinder16IHOSBinderDriverENS0_4hipc6client18Hipc2ProxyKindBaseILNS8_6detail11MessageTypeE4EEENS0_30MemoryResourceAllocationPolicyES7_E12GetProxyInfoEv = 0x00000000001b8db8 + __sdk_start;
_ZN7android14SurfaceControl7destroyEv = 0x00000000002a3e94 + __sdk_start;
_ZNSt3__113basic_ostreamIwNS_11char_traitsIwEEElsEb = 0x000000000030f934 + __sdk_start;
_ZTSN2nn2sf13ISharedObjectE = 0x000000000073b460 + __sdk_start;
nvgr_import_nvrmsurface = 0x00000000002670c4 + __sdk_start;
_ZN2nn3aoc6detail15GetObjectHolderEv = 0x000000000017258c + __sdk_start;
_ZNSt3__113basic_ostreamIwNS_11char_traitsIwEEElsEd = 0x0000000000310a44 + __sdk_start;
_ZNSt3__113basic_ostreamIwNS_11char_traitsIwEEElsEe = 0x0000000000310bf8 + __sdk_start;
_ZN2nn4lmem6detail16GetNextBlockRearEPNS1_8HeapHeadE = 0x000000000006a268 + __sdk_start;
_ZN2nn2os6detail10RngManager17GenerateRandomU64Ev = 0x000000000008ca5c + __sdk_start;
_ZN2nn7account6detail12ObjectHolder11AcquireImplINS0_31IAccountServiceForSystemServiceEEENS_6ResultEPPT_PKc = 0x00000000000afe7c + __sdk_start;
_ZNSt3__113basic_ostreamIwNS_11char_traitsIwEEElsEf = 0x0000000000310890 + __sdk_start;
_ZTSNSt3__114__num_put_baseE = 0x00000000007b4640 + __sdk_start;
_ZN2nn2sf4cmif6client6detail13CmifProxyImplINS_2am7service22ILibraryAppletAccessorENS2_15CmifDomainProxyINS0_4hipc6client38Hipc2ClientSessionManagedProxyKindBaseINSA_18Hipc2ProxyKindBaseILNS9_6detail11MessageTypeE4EEEEEEENS0_30MemoryResourceAllocationPolicyES7_E41_nn_sf_sync_GetPopInteractiveOutDataEventENS0_3OutINS0_12NativeHandleEvEE = 0x00000000000c16c4 + __sdk_start;
_ZZN2nn2sf31SimpleAllInOneHipcClientManagerILm3EE27InitializeShimLibraryHolderINS_3pcv17IImmediateManagerEEENS_6ResultEPNS0_23ShimLibraryObjectHolderIT_EEPKcPNS_14MemoryResourceEENUlPvE_8__invokeESF_ = 0x00000000002f8824 + __sdk_start;
wcswcs = 0x00000000003c10ec + __sdk_start;
_ZTIN2nn2sf22UnmanagedServiceObjectINS_5audio6detail21IAudioRendererManagerENS2_6server24AudioRendererManagerImplEEE = 0x00000000008e3b40 + __sdk_start;
_ZN2nn3mii6detail11CoreDataRaw11SetNoseTypeEi = 0x00000000001a55cc + __sdk_start;
_ZN2nn3err6detail34TryParseApplicationErrorCodeStringEPNS_2ns28ApplicationErrorCodeCategoryEPjPKc = 0x0000000000110378 + __sdk_start;
lcong48 = 0x00000000003b0e3c + __sdk_start;
_ZNSt3__113basic_ostreamIwNS_11char_traitsIwEEElsEi = 0x000000000030fe60 + __sdk_start;
_ZN2nn4lmem27GetUnitHeapAllocatableCountEPNS0_6detail8HeapHeadE = 0x0000000000069424 + __sdk_start;
_ZNSt3__113basic_ostreamIwNS_11char_traitsIwEEElsEj = 0x0000000000310034 + __sdk_start;
_ZTSN2nn2sf6detail39ObjectImplFactoryWithStatelessAllocatorINS0_4cmif6client16CmifProxyFactoryINS_3hid10IHidServerENS0_4hipc6client18Hipc2ProxyKindBaseILNS8_6detail11MessageTypeE4EEENS0_25StatelessAllocationPolicyINS0_22ExpHeapStaticAllocatorILm16384ENS6_6detail9HidServerEEEEEE13ServiceObjectESJ_E6ObjectE = 0x0000000000796dc0 + __sdk_start;
_init = 0x0000000000000024 + __sdk_start;
_ZNSt3__113basic_ostreamIwNS_11char_traitsIwEEElsEl = 0x00000000003101e0 + __sdk_start;
_ZNSt3__113basic_ostreamIwNS_11char_traitsIwEEElsEm = 0x000000000031038c + __sdk_start;
compute_allocation = 0x00000000000e3d64 + __sdk_start;
_ZN2nn2sf4cmif6client6detail13CmifProxyImplINS_7account31IAccountServiceForAdministratorENS2_15CmifDomainProxyINS0_4hipc6client38Hipc2ClientSessionManagedProxyKindBaseINS9_18Hipc2ProxyKindBaseILNS8_6detail11MessageTypeE4EEEEEEENS0_25StatelessAllocationPolicyINS0_22ExpHeapStaticAllocatorILm2048ENS5_6detail12ObjectHolder24ObjectHolderAllocatorTagEEEEES6_E35_nn_sf_sync_SuspendBackgroundDaemonENS0_3OutINS0_13SharedPointerINSJ_14ISessionObjectEEEvEE = 0x00000000000b27b4 + __sdk_start;
_ZN2nn2sf13SharedPointerINS_3nfc6detail7ISystemEED2Ev = 0x000000000012ac00 + __sdk_start;
_ZNKSt3__18time_getIcNS_19istreambuf_iteratorIcNS_11char_traitsIcEEEEE11__get_monthERiRS4_S4_RjRKNS_5ctypeIcEE = 0x000000000031f968 + __sdk_start;
_ZN2nn2os17CreateSystemEventEPNS0_15SystemEventTypeENS0_14EventClearModeEb = 0x000000000008775c + __sdk_start;
_ZN2nn6crypto6detail19XtsModeAes128Helper15ProcessUnrolledE12__Uint8x16_tRPhRPKhRiPKvb = 0x0000000000007db0 + __sdk_start;
_ZNK2nn3hid6detail8RingLifoINS0_16TouchScreenStateILm16EEELi16ENS1_29TouchScreenStateAtomicStorageEE8ReadImplINS3_ILm14EEEEEiPT_i = 0x000000000020de2c + __sdk_start;
_ZNSt3__113basic_ostreamIwNS_11char_traitsIwEEElsEs = 0x000000000030fae0 + __sdk_start;
_ZNSt3__113basic_ostreamIwNS_11char_traitsIwEEElsEt = 0x000000000030fcb4 + __sdk_start;
_ZN2nn2la18StartLibraryAppletENS_6applet19LibraryAppletHandleEb = 0x00000000001a04c0 + __sdk_start;
_ZTSN2nn2sf4cmif6client6detail13CmifProxyImplINS_4nifm6detail15IGeneralServiceENS2_15CmifDomainProxyINS0_4hipc6client38Hipc2ClientSessionManagedProxyKindBaseINSA_18Hipc2ProxyKindBaseILNS9_6detail11MessageTypeE4EEEEEEENS0_25StatelessAllocationPolicyINS0_22ExpHeapStaticAllocatorILm16384ENS6_21ServiceProviderClient30CreateNifmUserServiceObjectTagEEEEES7_EE = 0x000000000076ba70 + __sdk_start;
pow = 0x000000000039087c + __sdk_start;
_ZNSt3__113basic_ostreamIwNS_11char_traitsIwEEElsEx = 0x0000000000310538 + __sdk_start;
_ZNK2nn7friends11PlayHistory12GetAccountIdEv = 0x0000000000117168 + __sdk_start;
iswprint_l = 0x00000000003a0564 + __sdk_start;
_ZNSt3__113basic_ostreamIwNS_11char_traitsIwEEElsEy = 0x00000000003106e4 + __sdk_start;
_ZN2nn2sf4hipc6client24Hipc2ClientCoreProcessorILNS1_6detail11MessageTypeE4ENS0_4cmif6detail14CoreMethodInfoINSt3__15tupleIJNS7_17InRawArgumentInfoILm4ELm4ELl0EEENSB_ILm8ELm8ELl16EEENSB_ILm4ELm4ELl4EEENSB_ILm4ELm4ELl8EEEEEELm24ELm0ELb1EEESG_E7ProcessEPNS2_26Hipc2ClientProxyBaseObjectENS6_6client23InRawClientArgumentTypeILm4ELm4EvEENSM_ILm8ELm8EvEESN_SN_j = 0x000000000021936c + __sdk_start;
_ZTVSt16bad_array_length = 0x0000000000907cf8 + __sdk_start;
newlocale = 0x00000000003a26f4 + __sdk_start;
_ZZN2nn5prepo6detail17ShimLibraryGlobal11GetInstanceEvE8instance = 0x0000000000964818 + __sdk_start;
_ZN2nn3web14ShowWebPageArg14SetCallbackUrlEPKc = 0x0000000000238048 + __sdk_start;
_ZNK2nn5audio6server13EffectContext8GetCountEv = 0x000000000018f3d8 + __sdk_start;
_ZN2nn2sf4cmif6client6detail13CmifProxyImplINS_2am7service15ISelfControllerENS2_15CmifDomainProxyINS0_4hipc6client38Hipc2ClientSessionManagedProxyKindBaseINSA_18Hipc2ProxyKindBaseILNS9_6detail11MessageTypeE4EEEEEEENS0_30MemoryResourceAllocationPolicyES7_E20_nn_sf_sync_LockExitEv = 0x00000000000bebbc + __sdk_start;
_ZN2nn4util10BitFlagSetILi256ENS_3hid11KeyboardKeyEE4FlagILi43EE4MaskE = 0x000000000078fff8 + __sdk_start;
lsearch = 0x00000000003b9278 + __sdk_start;
_ZN2nn5audio12SplitterInfo13MarkAsUpdatedEv = 0x00000000001794c8 + __sdk_start;
_ZN2nn3mii6detail11UtilityImpl14GetRandomRangeEii = 0x00000000001a87b8 + __sdk_start;
__fseeko_unlocked = 0x00000000003baaa0 + __sdk_start;
NvWsiGetDisplayCaps = 0x000000000027316c + __sdk_start;
_ZNSt3__112basic_stringIcNS_11char_traitsIcEENS_9allocatorIcEEE21__grow_by_and_replaceEmmmmmmPKc = 0x000000000033fccc + __sdk_start;
_ZNK2nn3err14SystemErrorArg20GetFullScreenMessageEv = 0x0000000000110060 + __sdk_start;
_ZTIN2nn2sf4cmif6client16CmifProxyFactoryINS_3fgm2sf8ISessionENS2_15CmifDomainProxyINS0_4hipc6client38Hipc2ClientSessionManagedProxyKindBaseINS9_18Hipc2ProxyKindBaseILNS8_6detail11MessageTypeE4EEEEEEENS0_30MemoryResourceAllocationPolicyEE13ServiceObjectE = 0x0000000000902740 + __sdk_start;
_ZNKSt3__111__libcpp_db17__find_c_and_lockEPv = 0x0000000000303c30 + __sdk_start;
_ZNK2nn3mii8Database11IsAvailableEv = 0x00000000001b0fac + __sdk_start;
_ZN2nn3fgm8DebuggerD1Ev = 0x00000000002f3540 + __sdk_start;
_ZN7android6Region7andSelfERKNS_4RectE = 0x00000000002ac360 + __sdk_start;
nnutilZlib_deflateCopy = 0x0000000000032844 + __sdk_start;
_ZNK2nn3ngc6detail3Set12GetBitVectorEv = 0x000000000013fc70 + __sdk_start;
ccosf = 0x00000000003988d8 + __sdk_start;
compute_frame_size = 0x0000000000101900 + __sdk_start;
_ZN2nn3mii6detail11CoreDataRaw15SetMustacheTypeEi = 0x00000000001a5898 + __sdk_start;
_ZN2nn7friends12AsyncContextD1Ev = 0x000000000011654c + __sdk_start;
ccosh = 0x00000000003988ec + __sdk_start;
strtoul = 0x00000000003be5c4 + __sdk_start;
NvOsDrvMapSharedMem = 0x000000000024a44c + __sdk_start;
nnmem_nlib_mempagesize = 0x0000000000079f24 + __sdk_start;
_ZN2nn2sf4cmif6client6detail13CmifProxyImplINS_7account31IAccountServiceForSystemServiceENS2_15CmifDomainProxyINS0_4hipc6client38Hipc2ClientSessionManagedProxyKindBaseINS9_18Hipc2ProxyKindBaseILNS8_6detail11MessageTypeE4EEEEEEENS0_25StatelessAllocationPolicyINS0_22ExpHeapStaticAllocatorILm2048ENS5_6detail12ObjectHolder24ObjectHolderAllocatorTagEEEEENS5_31IAccountServiceForAdministratorEE34_nn_sf_sync_ClearSaveDataThumbnailERKNS5_3UidENS_13ApplicationIdE = 0x00000000000b22a0 + __sdk_start;
_ZNSt3__120__libcpp_thread_joinEPNS_10shared_ptrINS_21__horizon_thread_dataEEE = 0x00000000003497e8 + __sdk_start;
_ZNSt3__113basic_istreamIwNS_11char_traitsIwEEErsEPFRS3_S4_E = 0x000000000030b1e4 + __sdk_start;
_ZNSt11logic_errorC2ERKNSt3__112basic_stringIcNS0_11char_traitsIcEENS0_9allocatorIcEEEE = 0x000000000033ec1c + __sdk_start;
_ZTSN2nn3hid6detail8RingLifoINS0_16NpadFullKeyStateELi16ENS1_13AtomicStorageIS3_EEEE = 0x000000000078ee90 + __sdk_start;
ccosl = 0x0000000000398e24 + __sdk_start;
_ZNK2nn5audio8SinkInfo7GetTypeEv = 0x0000000000178294 + __sdk_start;
_ZN2nn2sf4cmif6client6detail13CmifProxyImplINS_3hid16IHidSystemServerENS0_4hipc6client18Hipc2ProxyKindBaseILNS7_6detail11MessageTypeE4EEENS0_25StatelessAllocationPolicyINS0_22ExpHeapStaticAllocatorILm16384ENS5_6detail15HidSystemServerEEEEES6_E39_nn_sf_sync_BeginPermitVibrationSessionENS_6applet20AppletResourceUserIdE = 0x000000000021c668 + __sdk_start;
_ZN2nn2sf4cmif6client6detail13CmifProxyImplINS_7account19IAccountServiceBaseENS2_15CmifDomainProxyINS0_4hipc6client38Hipc2ClientSessionManagedProxyKindBaseINS9_18Hipc2ProxyKindBaseILNS8_6detail11MessageTypeE4EEEEEEENS0_25StatelessAllocationPolicyINS0_22ExpHeapStaticAllocatorILm2048ENS5_6detail12ObjectHolder24ObjectHolderAllocatorTagEEEEENS5_29IAccountServiceForApplicationEE12GetProxyInfoEv = 0x00000000000ad2ec + __sdk_start;
access = 0x000000000038aca8 + __sdk_start;
_ZN2nn3ngc6detail12BinaryWriter10WriteArrayEPKtm = 0x000000000013a3f8 + __sdk_start;
_ZN2nn2sf4hipc6client24Hipc2ClientCoreProcessorILNS1_6detail11MessageTypeE4ENS0_4cmif6detail14CoreMethodInfoINSt3__15tupleIJNS7_18BufferArgumentInfoILi0ELi6ELm0EEENSB_ILi1ELi9ELm0EEEEEELm0ELm0ELb0EEESE_E7ProcessEPNS2_26Hipc2ClientProxyBaseObjectENS6_6client24BufferClientArgumentTypeESK_j = 0x00000000002f5b9c + __sdk_start;
_ZN2nn3ngc6detail14ContentsReaderD2Ev = 0x0000000000137e74 + __sdk_start;
_ZN2nn2sf4cmif6client6detail13CmifProxyImplINS_8settings21ISystemSettingsServerENS0_4hipc6client18Hipc2ProxyKindBaseILNS7_6detail11MessageTypeE4EEENS0_25StatelessAllocationPolicyINS0_22ExpHeapStaticAllocatorILm16384ES6_EEEES6_E36_nn_sf_sync_SetVibrationMasterVolumeEf = 0x0000000000164df0 + __sdk_start;
_ZTSNSt3__117moneypunct_bynameIcLb1EEE = 0x00000000007b4b20 + __sdk_start;
_ZN2nn2sf4cmif6client34CmifDomainProxyClientCoreProcessorINS0_4hipc6client38Hipc2ClientSessionManagedProxyKindBaseINS5_18Hipc2ProxyKindBaseILNS4_6detail11MessageTypeE4EEEEENS1_6detail14CoreMethodInfoINSt3__15tupleIJNSC_18OutRawArgumentInfoILm68ELm4ELl0EEENSC_17InRawArgumentInfoILm68ELm4ELl0EEENSI_ILm4ELm4ELl68EEEEEELm72ELm68ELb0EEESL_E7ProcessEPNS2_23CmifDomainClientMessageISB_E15ProxyBaseObjectENS2_24OutRawClientArgumentTypeILm68ELm4EEENS2_23InRawClientArgumentTypeILm68ELm4EvEENSU_ILm4ELm4EvEEj = 0x00000000001b2538 + __sdk_start;
_ZN2nn2sf4hipc6client24Hipc2ClientCoreProcessorILNS1_6detail11MessageTypeE4ENS0_4cmif6detail14CoreMethodInfoINSt3__15tupleIJNS7_18OutRawArgumentInfoILm4ELm4ELl0EEENSB_ILm4ELm4ELl4EEENS7_18BufferArgumentInfoILi0ELi33ELm0EEENS7_17InRawArgumentInfoILm4ELm4ELl0EEEEEELm4ELm8ELb0EEESI_E7ProcessEPNS2_26Hipc2ClientProxyBaseObjectENS6_6client24OutRawClientArgumentTypeILm4ELm4EEESP_NSN_24BufferClientArgumentTypeENSN_23InRawClientArgumentTypeILm4ELm4EvEEj = 0x000000000009f330 + __sdk_start;
_ZNK2nn3hid15KeyCodeComposer14GetOutputCountEv = 0x00000000002125ac + __sdk_start;
_ZSt13get_terminatev = 0x0000000000375388 + __sdk_start;
_ZN2nn2sf4cmif6client6detail13CmifProxyImplINS_7account31IAccountServiceForSystemServiceENS2_15CmifDomainProxyINS0_4hipc6client38Hipc2ClientSessionManagedProxyKindBaseINS9_18Hipc2ProxyKindBaseILNS8_6detail11MessageTypeE4EEEEEEENS0_25StatelessAllocationPolicyINS0_22ExpHeapStaticAllocatorILm2048ENS5_6detail12ObjectHolder24ObjectHolderAllocatorTagEEEEES6_E44_nn_sf_sync_DebugInvalidateTokenCacheForUserERKNS5_3UidE = 0x00000000000b0610 + __sdk_start;
_ZN7android6Region9unflattenEPKvm = 0x00000000002ad9a0 + __sdk_start;
_ZN2nn2oe23EnableGamePlayRecordingEPvm = 0x000000000014f724 + __sdk_start;
_ZN2nn3mii6detail11CoreDataRaw12SetGlassTypeEi = 0x00000000001a5970 + __sdk_start;
_ZNK2nn3ngc6detail3Set7Select1Ej = 0x00000000001405f0 + __sdk_start;
_ZN2nn5audio6server30CommandProcessingTimeEstimator8EstimateERKNS0_13VolumeCommandE = 0x000000000018cfdc + __sdk_start;
_ZN2nn6socket7ConnectEiPK8sockaddrj = 0x000000000009a53c + __sdk_start;
_ZN2nn2oe20NotifyRunningForTestEv = 0x000000000014e02c + __sdk_start;
_ZN2nn2sf4cmif6client6detail13CmifProxyImplINS_7account19IAccountServiceBaseENS2_15CmifDomainProxyINS0_4hipc6client38Hipc2ClientSessionManagedProxyKindBaseINS9_18Hipc2ProxyKindBaseILNS8_6detail11MessageTypeE4EEEEEEENS0_25StatelessAllocationPolicyINS0_22ExpHeapStaticAllocatorILm2048ENS5_6detail12ObjectHolder24ObjectHolderAllocatorTagEEEEENS5_29IAccountServiceForApplicationEE29_nn_sf_sync_GetLastOpenedUserENS0_3OutINS5_3UidEvEE = 0x00000000000ad38c + __sdk_start;
_ZN2nn4util12FormatStringEPFvmPKciEmS2_z = 0x000000000003d87c + __sdk_start;
_ZN2nn5audio14GetVoiceVolumeEPKNS0_9VoiceTypeE = 0x00000000001799a4 + __sdk_start;
_ZTSN2nn2sf4cmif6client6detail9CmifProxyINS_5visrv2sf26IApplicationDisplayServiceENS0_4hipc6client18Hipc2ProxyKindBaseILNS8_6detail11MessageTypeE4EEENS0_30MemoryResourceAllocationPolicyEvEE = 0x000000000078c2b0 + __sdk_start;
nnmem_nlib_utf16_to_utf32char = 0x000000000006fad4 + __sdk_start;
_ZTTN7android23BnSurfaceComposerClientE = 0x00000000008fe910 + __sdk_start;
_ZTIN2nn2sf4cmif6client6detail13CmifProxyImplINS_7account4baas18IGuestLoginRequestENS2_15CmifDomainProxyINS0_4hipc6client38Hipc2ClientSessionManagedProxyKindBaseINSA_18Hipc2ProxyKindBaseILNS9_6detail11MessageTypeE4EEEEEEENS0_25StatelessAllocationPolicyINS0_22ExpHeapStaticAllocatorILm2048ENS5_6detail12ObjectHolder24ObjectHolderAllocatorTagEEEEES7_EE = 0x00000000008d2250 + __sdk_start;
_ZZN2nn2sf40SimpleAllInOneHipcSubDomainClientManagerILm1EE27InitializeShimLibraryHolderINS_5prepo6detail3ipc13IPrepoServiceEEENS_6ResultEPNS0_23ShimLibraryObjectHolderIT_EEPKcPNS_14MemoryResourceEENUlPNS0_13SharedPointerIS7_EEE_clESJ_ = 0x0000000000159128 + __sdk_start;
_ZN2nn4nifm6detail21ServiceProviderClientD2Ev = 0x0000000000144920 + __sdk_start;
scale_font_ttf = 0x00000000001f737c + __sdk_start;
_ZN2nn5swkbd16SetGuideTextUtf8EPNS0_14KeyboardConfigEPKc = 0x00000000001b5164 + __sdk_start;
_ZN2nn3mii6detail12StoreDataRaw13SetGlassScaleEi = 0x00000000001a8688 + __sdk_start;
_ZTSN2nn2sf4cmif6client6detail13CmifProxyImplINS_5visrv2sf22IManagerDisplayServiceENS0_4hipc6client18Hipc2ProxyKindBaseILNS8_6detail11MessageTypeE4EEENS0_30MemoryResourceAllocationPolicyES7_EE = 0x000000000078cf40 + __sdk_start;
_ZN2nn3nsd6detail3ipc11GetDeviceIdEPNS0_8DeviceIdE = 0x000000000014bcb4 + __sdk_start;
_ZN2nn3hid22GetVibrationDeviceInfoEPNS0_19VibrationDeviceInfoERKNS0_21VibrationDeviceHandleE = 0x0000000000216bc0 + __sdk_start;
_ZN2nn6socket8InetPtonEiPKcPv = 0x000000000009a61c + __sdk_start;
_ZNSt3__115__thread_structC2Ev = 0x0000000000349220 + __sdk_start;
_ZNSt3__117__assoc_sub_stateD2Ev = 0x0000000000305fbc + __sdk_start;
_ZNK2nn3mii12AppletOutput22GetUpdateMiiImageIndexEv = 0x00000000001b317c + __sdk_start;
_ZN2nn3nsd18GetCurrentSaveDataEPNS0_8SaveDataE = 0x000000000014b7e0 + __sdk_start;
_ZNSt13exception_ptrC2ERKS_ = 0x0000000000304ba0 + __sdk_start;
_ZThn32_N2nn2sf4cmif6client6detail13CmifProxyImplINS_7account4baas18IGuestLoginRequestENS2_15CmifDomainProxyINS0_4hipc6client38Hipc2ClientSessionManagedProxyKindBaseINSA_18Hipc2ProxyKindBaseILNS9_6detail11MessageTypeE4EEEEEEENS0_25StatelessAllocationPolicyINS0_22ExpHeapStaticAllocatorILm2048ENS5_6detail12ObjectHolder24ObjectHolderAllocatorTagEEEEES7_E17GetCmifBaseObjectEv = 0x00000000000afe74 + __sdk_start;
_ZNK2nn7friends18FriendDetailedInfo8GetExtraEv = 0x0000000000116ac8 + __sdk_start;
_ZN2nn3hid6system21SendConnectionTriggerENS_9bluetooth7AddressE = 0x0000000000214a2c + __sdk_start;
_ZN2nn2sf4cmif6client6detail13CmifProxyImplINS_8settings22IFactorySettingsServerENS0_4hipc6client18Hipc2ProxyKindBaseILNS7_6detail11MessageTypeE4EEENS0_25StatelessAllocationPolicyINS0_22ExpHeapStaticAllocatorILm16384ES6_EEEES6_E29_nn_sf_sync_GetGyroscopeScaleENS0_3OutINS5_7factory14GyroscopeScaleEvEE = 0x00000000001622cc + __sdk_start;
_ZTSN2nn2sf4cmif6client6detail9CmifProxyINS_4bcat6detail3ipc15IServiceCreatorENS2_15CmifDomainProxyINS0_4hipc6client38Hipc2ClientSessionManagedProxyKindBaseINSB_18Hipc2ProxyKindBaseILNSA_6detail11MessageTypeE4EEEEEEENS0_30MemoryResourceAllocationPolicyEvEE = 0x0000000000759220 + __sdk_start;
_ZN2nn3hid5debug29UnsetHomeButtonAutoPilotStateEv = 0x00000000002116e0 + __sdk_start;
NvOsSnprintf = 0x00000000002456e8 + __sdk_start;
_ZN7android14SurfaceControl13setLayerStackEi = 0x00000000002a3fb0 + __sdk_start;
_ZN2nn2sf4cmif6client34CmifDomainProxyClientCoreProcessorINS0_4hipc6client38Hipc2ClientSessionManagedProxyKindBaseINS5_18Hipc2ProxyKindBaseILNS4_6detail11MessageTypeE4EEEEENS1_6detail14CoreMethodInfoINSt3__15tupleIJNSC_17InRawArgumentInfoILm64ELm8ELl0EEENSG_ILm64ELm8ELl64EEEEEELm128ELm0ELb0EEESJ_E7ProcessEPNS2_23CmifDomainClientMessageISB_E15ProxyBaseObjectENS2_23InRawClientArgumentTypeILm64ELm8EvEESR_j = 0x00000000000570b8 + __sdk_start;
_ZN2nn6fontll6detail11ReadXValuesEPtS2_PPKht = 0x00000000001c0b88 + __sdk_start;
_ZN2nn3hid6detail26ResetAccelerometerPlayModeENS0_19SixAxisSensorHandleE = 0x0000000000205288 + __sdk_start;
_ZN2nn5audio30SetAudioInsProcessMasterVolumeENS_6applet20AppletResourceUserIdEfNS_8TimeSpanE = 0x000000000017d2a8 + __sdk_start;
_ZN2nn3nfc6mifare9GetNpadIdEPjRKNS1_12DeviceHandleE = 0x000000000012c150 + __sdk_start;
_ZN2nn3mii6detail12StoreDataRaw7SetEyeXEi = 0x00000000001a8628 + __sdk_start;
_ZN2nn5audio16CpuProfilerStartEv = 0x0000000000184d90 + __sdk_start;
_ZN2nn4nifm7Request9GetHandleEv = 0x000000000014a074 + __sdk_start;
_ZN2nn4htcs6detail25virtual_socket_collection7SetSizeEi = 0x0000000000127dc0 + __sdk_start;
_ZN2nn4lmem36GetExpHeapAllocationDirectionOfBlockEPKv = 0x0000000000068c78 + __sdk_start;
_ZNK7android6Region9operationERKS0_i = 0x00000000002ac92c + __sdk_start;
_ZTSN2nn2sf4cmif6client6detail9CmifProxyINS_2am7service19IApplicationCreatorENS2_15CmifDomainProxyINS0_4hipc6client38Hipc2ClientSessionManagedProxyKindBaseINSA_18Hipc2ProxyKindBaseILNS9_6detail11MessageTypeE4EEEEEEENS0_30MemoryResourceAllocationPolicyEvEE = 0x00000000007557d0 + __sdk_start;
_ZN2nn2sf4cmif6client6detail13CmifProxyImplINS_7account29IAccountServiceForApplicationENS2_15CmifDomainProxyINS0_4hipc6client38Hipc2ClientSessionManagedProxyKindBaseINS9_18Hipc2ProxyKindBaseILNS8_6detail11MessageTypeE4EEEEEEENS0_25StatelessAllocationPolicyINS0_22ExpHeapStaticAllocatorILm2048ENS5_6detail12ObjectHolder24ObjectHolderAllocatorTagEEEEES6_E40_nn_sf_sync_AuthenticateApplicationAsyncENS0_3OutINS0_13SharedPointerINSJ_13IAsyncContextEEEvEE = 0x00000000000ad558 + __sdk_start;
_ZN2nn3hid6detail28SetTouchScreenAutoPilotStateILm5EEENS_6ResultERKNS0_5debug25TouchScreenAutoPilotStateIXT_EEE = 0x000000000020c1d0 + __sdk_start;
_ZN2nn2fs6detail27StorageServiceObjectAdapterC2EONS_2sf13SharedPointerINS_5fssrv2sf8IStorageEEE = 0x0000000000066644 + __sdk_start;
_ZNSt3__113basic_istreamIwNS_11char_traitsIwEEErsEPFRNS_9basic_iosIwS2_EES6_E = 0x000000000030b1e8 + __sdk_start;
_ZN2nn3hid6detail39IsSixAxisSensorUserCalibrationSupportedEPbNS0_6system25UniqueSixAxisSensorHandleE = 0x000000000020eb34 + __sdk_start;
_ZN22nerd_gillette_internal5otete7jaimev123DecodeFullSilhouetteROKERNS_30ContiguousStorageContainerBaseINS_15NumericalVectorIsLm2EEELb1EEERNS0_14InputBitStreamERKNS1_23FullSilhouetteCodecDataE = 0x000000000022c61c + __sdk_start;
_ZN2nn3err45CreateErrorViewerStartupParamForRecordedErrorEPvPmmPKcS4_NS_4time9PosixTimeE = 0x000000000010f60c + __sdk_start;
_ZN2nn2fs26GetSdCardProtectedAreaSizeEPl = 0x0000000000065958 + __sdk_start;
_ZN7android12BnMemoryHeapD2Ev = 0x0000000000279980 + __sdk_start;
_ZTIN2nn2sf13ISharedObjectE = 0x00000000008cd688 + __sdk_start;
_ZN2nn3mii6detail12StoreDataRaw14BuildMiiEditorEPNS1_11UtilityImplENS0_6GenderE = 0x00000000001a85a4 + __sdk_start;
_ZN2nn2sf4hipc6client24Hipc2ClientCoreProcessorILNS1_6detail11MessageTypeE4ENS0_4cmif6detail14CoreMethodInfoINSt3__15tupleIJNS7_17InRawArgumentInfoILm4ELm4ELl0EEENSB_ILm4ELm4ELl4EEENS7_18BufferArgumentInfoILi0ELi33ELm0EEENSE_ILi1ELi34ELm0EEENSB_ILm4ELm4ELl8EEEEEELm12ELm0ELb0EEESI_E7ProcessEPNS2_26Hipc2ClientProxyBaseObjectENS6_6client23InRawClientArgumentTypeILm4ELm4EvEESP_NSN_24BufferClientArgumentTypeESQ_SP_j = 0x00000000001b92a8 + __sdk_start;
_ZN2nn2os6detail22g_CommandLineParameterE = 0x00000000008d01b8 + __sdk_start;
_ZTv0_n24_NSt3__113basic_istreamIcNS_11char_traitsIcEEED0Ev = 0x00000000003084c4 + __sdk_start;
_ZN2nn5audio13EffectManager24UpdateEffectsInParameterEPv = 0x0000000000176da8 + __sdk_start;
_ZN2nn2lm6detail20LogPacketTransmitter19PushLogSessionBeginEv = 0x00000000001295bc + __sdk_start;
_ZNSt15underflow_errorD1Ev = 0x0000000000377694 + __sdk_start;
__stdin_used = 0x0000000000911438 + __sdk_start;
silk_decode_pulses = 0x00000000000ef65c + __sdk_start;
_ZTIN2nn3hid6detail8RingLifoINS1_33SixAxisSensorUserCalibrationStateELi1ENS1_13AtomicStorageIS3_EEEE = 0x00000000008e65e8 + __sdk_start;
fnt_RoundToHalfGrid = 0x00000000001de134 + __sdk_start;
_ZN2nn7account12AsyncContext6CancelEv = 0x00000000000b5c24 + __sdk_start;
_ZN2nn6socket8resolver11GetNameInfoEPK8sockaddrjPcmS5_mii = 0x00000000000a6770 + __sdk_start;
nvdcGetCapabilities = 0x0000000000239e64 + __sdk_start;
nnosJamMessageQueue = 0x000000000008a1b4 + __sdk_start;
silk_pitch_delta_iCDF = 0x000000000075f7a8 + __sdk_start;
_ZN2nn2fs24GetFileTimeStampForDebugEPNS0_13FileTimeStampEPKc = 0x0000000000121048 + __sdk_start;
_ZTVN2nn2sf6detail38ObjectImplFactoryWithStatefulAllocatorINS0_4cmif6client16CmifProxyFactoryINS_4bcat6detail3ipc12IBcatServiceENS4_15CmifDomainProxyINS0_4hipc6client38Hipc2ClientSessionManagedProxyKindBaseINSC_18Hipc2ProxyKindBaseILNSB_6detail11MessageTypeE4EEEEEEENS0_30MemoryResourceAllocationPolicyEE13ServiceObjectESK_E6ObjectE = 0x00000000008da178 + __sdk_start;
_ZN7android16SortedVectorImplaSERKS0_ = 0x00000000002b3fcc + __sdk_start;
haar1 = 0x00000000000d0cf0 + __sdk_start;
NvRmMemUnmap = 0x0000000000251618 + __sdk_start;
_ZTIN10__cxxabiv121__vmi_class_type_infoE = 0x00000000009088f0 + __sdk_start;
_ZN2nn2sf4cmif6client6detail13CmifProxyImplINS_3hid16IHidSystemServerENS0_4hipc6client18Hipc2ProxyKindBaseILNS7_6detail11MessageTypeE4EEENS0_25StatelessAllocationPolicyINS0_22ExpHeapStaticAllocatorILm16384ENS5_6detail15HidSystemServerEEEEES6_E43_nn_sf_sync_AcquireCaptureButtonEventHandleENS0_3OutINS0_12NativeHandleEvEENS_6applet20AppletResourceUserIdE = 0x000000000021c2c4 + __sdk_start;
_ZN2nn2sf6detail38ObjectImplFactoryWithStatefulAllocatorINS0_4cmif6client16CmifProxyFactoryINS_2am7service25IProcessWindingControllerENS4_15CmifDomainProxyINS0_4hipc6client38Hipc2ClientSessionManagedProxyKindBaseINSB_18Hipc2ProxyKindBaseILNSA_6detail11MessageTypeE4EEEEEEENS0_30MemoryResourceAllocationPolicyEE13ServiceObjectESJ_E6Object12AddReferenceEv = 0x00000000000c0e98 + __sdk_start;
_ZTSN2nn2sf4hipc6server18Hipc2ServerMessageE = 0x0000000000743aa0 + __sdk_start;
_ZN2nn2ec6detail20ShowShopSettingsImplENS1_10LaunchModeERKNS_7account3UidENS0_8SourceIdE = 0x000000000019e604 + __sdk_start;
_ZN2nn5swkbd6detail18InlineKeyboardImpl12SetInputTextERKNS0_9InputTextE = 0x00000000001b5e00 + __sdk_start;
_ZTIN2nn2sf4cmif6client6detail9CmifProxyINS_2am7service26ILibraryAppletSelfAccessorENS2_15CmifDomainProxyINS0_4hipc6client38Hipc2ClientSessionManagedProxyKindBaseINSA_18Hipc2ProxyKindBaseILNS9_6detail11MessageTypeE4EEEEEEENS0_30MemoryResourceAllocationPolicyEvEE = 0x00000000008d8650 + __sdk_start;
nnosReleaseSemaphoreCount = 0x000000000008a098 + __sdk_start;
_ZN2nn3hid28SetControlPadRestrictionTypeENS_4util10BitFlagSetILi32ENS0_12NpadStyleTagEEENS0_25ControlPadRestrictionTypeE = 0x0000000000213a70 + __sdk_start;
_ZNK2nn3hid6detail8RingLifoINS0_16TouchScreenStateILm16EEELi16ENS1_29TouchScreenStateAtomicStorageEE8ReadImplIS4_EEiPT_i = 0x000000000020e27c + __sdk_start;
_ZTSNSt3__117moneypunct_bynameIwLb1EEE = 0x00000000007b4b80 + __sdk_start;
_ZN2nn2sf4cmif6client34CmifDomainProxyClientCoreProcessorINS0_4hipc6client38Hipc2ClientSessionManagedProxyKindBaseINS5_18Hipc2ProxyKindBaseILNS4_6detail11MessageTypeE4EEEEENS1_6detail14CoreMethodInfoINSt3__15tupleIJNSC_18OutRawArgumentInfoILm8ELm8ELl0EEENSC_18BufferArgumentInfoILi0ELi6ELm0EEENSC_17InRawArgumentInfoILm64ELm1ELl0EEEEEELm64ELm8ELb0EEESM_E7ProcessEPNS2_23CmifDomainClientMessageISB_E15ProxyBaseObjectENS2_24OutRawClientArgumentTypeILm8ELm8EEENS2_24BufferClientArgumentTypeENS2_23InRawClientArgumentTypeILm64ELm1EvEEj = 0x000000000006827c + __sdk_start;
_ZN2nn2sf4hipc6server6detail29HipcAllInOneServerManagerBase8LoopAutoEv = 0x00000000000958d0 + __sdk_start;
_ZNSt9exceptionD1Ev = 0x0000000000375d80 + __sdk_start;
_ZNKSt3__17num_getIwNS_19istreambuf_iteratorIwNS_11char_traitsIwEEEEE23__do_get_floating_pointIfEES4_S4_S4_RNS_8ios_baseERjRT_ = 0x0000000000318508 + __sdk_start;
_ZN2nn2vi19AllocateLayerHolderEv = 0x00000000001be660 + __sdk_start;
_ZN2nn4diag6detail22InvokeSdkAbortObserverERKNS0_12SdkAbortInfoE = 0x0000000000044304 + __sdk_start;
_ZNSt3__120__codecvt_utf8_utf16IwED0Ev = 0x000000000033c230 + __sdk_start;
_ZN2nn5audio20GetSplitterMixVolumeEPKNS0_12SplitterTypeEiPKNS0_10SubMixTypeEii = 0x000000000017898c + __sdk_start;
_ZN2nn6crypto6detail11XtsModeImplINS1_20XtsModeGenericHelperEEC1Ev = 0x0000000000007b88 + __sdk_start;
_ZN2nn4util6TinyMt10InitializeEj = 0x000000000003c458 + __sdk_start;
_ZTSN2nn3nfc6detail14ISystemManagerE = 0x0000000000765ea0 + __sdk_start;
_ZN2nn2sf4cmif6client6detail13CmifProxyImplINS_3mii6detail14IStaticServiceENS2_15CmifDomainProxyINS0_4hipc6client38Hipc2ClientSessionManagedProxyKindBaseINSA_18Hipc2ProxyKindBaseILNS9_6detail11MessageTypeE4EEEEEEENS0_25StatelessAllocationPolicyINS0_22ExpHeapStaticAllocatorILm16384ENS6_21ServiceProviderClient30CreateNifmUserServiceObjectTagEEEEES7_E17GetCmifBaseObjectEv = 0x00000000001b1c24 + __sdk_start;
_ZN7android13GraphicBuffer10reallocateEjjij = 0x00000000002aa1cc + __sdk_start;
_ZNK2nn3mii6detail12Ver3AuthorId7IsValidEv = 0x00000000001a89ac + __sdk_start;
_ZN7android15BufferQueueCoreC1ERKNS_2spINS_19IGraphicBufferAllocEEE = 0x000000000028ec54 + __sdk_start;
_ZN2nn5image6detail4jpeg14jpeg_idct_5x10EPNS2_22jpeg_decompress_structEPNS2_19jpeg_component_infoEPsPPhi = 0x0000000000029260 + __sdk_start;
_ZN2nn2sf4cmif6server6detail30CmifProcessFunctionTableGetterINS2_22CmifDomainServerObjectEvE7s_TableE = 0x00000000008d0e78 + __sdk_start;
_ZN2nn2sf4cmif6client6detail13CmifProxyImplINS_3ssl2sf14ISslConnectionENS2_15CmifDomainProxyINS0_4hipc6client38Hipc2ClientSessionManagedProxyKindBaseINSA_18Hipc2ProxyKindBaseILNS9_6detail11MessageTypeE4EEEEEEENS0_24StatefulAllocationPolicyINS0_16ExpHeapAllocatorEEES7_E12GetProxyInfoEv = 0x000000000016b88c + __sdk_start;
_ZTIN2nn2sf4cmif6client16CmifProxyFactoryINS_2am7service26ILibraryAppletSelfAccessorENS2_15CmifDomainProxyINS0_4hipc6client38Hipc2ClientSessionManagedProxyKindBaseINS9_18Hipc2ProxyKindBaseILNS8_6detail11MessageTypeE4EEEEEEENS0_30MemoryResourceAllocationPolicyEE13ServiceObjectE = 0x00000000008d8670 + __sdk_start;
_ZTISt10bad_typeid = 0x0000000000908cb0 + __sdk_start;
nnmem_nlib_utf16ncpy_ = 0x000000000006f6f0 + __sdk_start;
_ZN2nn2sf4hipc6server24HipcServerSessionManager24Process2InvokeMethodImplEONS0_4cmif6server20CmifServerObjectInfoEPNS2_17HipcServerSessionEPvmSA_m = 0x0000000000095f2c + __sdk_start;
_ZNK2nn3hid15VibrationPlayer9IsPlayingEv = 0x0000000000217da4 + __sdk_start;
_ZN2nn2os15ClearTimerEventEPNS0_14TimerEventTypeE = 0x00000000000873a4 + __sdk_start;
_ZTIN2nn2sf4hipc6server28HipcServerSessionManagerBaseE = 0x00000000008d0b20 + __sdk_start;
_ZNSt3__113basic_ostreamIwNS_11char_traitsIwEEElsEPFRNS_9basic_iosIwS2_EES6_E = 0x000000000030f8d4 + __sdk_start;
_ZN2nn5audio6server16CommandGenerator20GenerateSinkCommandsEv = 0x000000000018cce4 + __sdk_start;
_ZN2nn5audio2PIE = 0x0000000000774250 + __sdk_start;
_ZN2nn6applet14GetStorageSizeENS0_13StorageHandleE = 0x00000000000cace8 + __sdk_start;
_ZN2nn5audio23SplitterDestinationData12SetMixVolumeEfi = 0x000000000017956c + __sdk_start;
NvOsDebugVprintf = 0x0000000000245818 + __sdk_start;
_ZThn32_N2nn2sf4cmif6client6detail13CmifProxyImplINS_4pctl6detail3ipc30IParentalControlServiceFactoryENS2_15CmifDomainProxyINS0_4hipc6client38Hipc2ClientSessionManagedProxyKindBaseINSB_18Hipc2ProxyKindBaseILNSA_6detail11MessageTypeE4EEEEEEENS0_30MemoryResourceAllocationPolicyES8_E17GetCmifBaseObjectEv = 0x0000000000152a50 + __sdk_start;
_ZN2nn2sf4cmif6client6detail13CmifProxyImplINS_7account4baas12IManagerBaseENS2_15CmifDomainProxyINS0_4hipc6client38Hipc2ClientSessionManagedProxyKindBaseINSA_18Hipc2ProxyKindBaseILNS9_6detail11MessageTypeE4EEEEEEENS0_25StatelessAllocationPolicyINS0_22ExpHeapStaticAllocatorILm2048ENS5_6detail12ObjectHolder24ObjectHolderAllocatorTagEEEEENS6_24IManagerForSystemServiceEE24_nn_sf_sync_GetAccountIdENS0_3OutINS5_23NetworkServiceAccountIdEvEE = 0x00000000000b0950 + __sdk_start;
_ZN2nn5audio17RemoveI3dl2ReverbEPNS0_19AudioRendererConfigEPNS0_15I3dl2ReverbTypeEPNS0_10SubMixTypeE = 0x0000000000175e24 + __sdk_start;
_ZNKSt3__17codecvtIwc11__mbstate_tE11do_encodingEv = 0x00000000003345f8 + __sdk_start;
_ZN2nn2fs23ScopedAutoAbortDisablerC1Ev = 0x0000000000045afc + __sdk_start;
fixed_norm = 0x00000000001d98ac + __sdk_start;
_ZN2nn5audio6server24AudioRendererManagerImpl17AudioRendererImpl17RequestUpdateAutoERKNS_2sf9OutBufferES7_RKNS4_8InBufferE = 0x0000000000188978 + __sdk_start;
_ZN2nn3ngc6detail11InputStream14GetWorkBuffer_EPm = 0x000000000013e3a0 + __sdk_start;
_ZN2nn7account8NotifierC2EPNS0_6detail9INotifierE = 0x00000000000b988c + __sdk_start;
_ZN2nn3hid6detail18SharedMemoryHolder8FinalizeEv = 0x0000000000209020 + __sdk_start;
_ZN2nn2sf13SharedPointerINS_5visrv2sf21ISystemDisplayServiceEED2Ev = 0x00000000001b7268 + __sdk_start;
_ZN2nn5audio3dsp9ApplyMix2EPiPKiii = 0x000000000019b8b0 + __sdk_start;
_ZZN2nn2sf31SimpleAllInOneHipcClientManagerILm10EE27InitializeShimLibraryHolderINS_5visrv2sf23IApplicationRootServiceEEENS_6ResultEPNS0_23ShimLibraryObjectHolderIT_EEPKcPNS_14MemoryResourceEENUlPvE_8__invokeESG_ = 0x00000000001bc164 + __sdk_start;
_ZN2nn2sf4cmif6client34CmifDomainProxyClientCoreProcessorINS0_4hipc6client38Hipc2ClientSessionManagedProxyKindBaseINS5_18Hipc2ProxyKindBaseILNS4_6detail11MessageTypeE4EEEEENS1_6detail14CoreMethodInfoINSt3__15tupleIJNSC_18BufferArgumentInfoILi0ELi10ELm0EEENSC_18OutRawArgumentInfoILm4ELm4ELl0EEENSC_17InRawArgumentInfoILm4ELm4ELl0EEEEEELm4ELm4ELb0EEESM_E7ProcessEPNS2_23CmifDomainClientMessageISB_E15ProxyBaseObjectENS2_24BufferClientArgumentTypeENS2_24OutRawClientArgumentTypeILm4ELm4EEENS2_23InRawClientArgumentTypeILm4ELm4EvEEj = 0x0000000000146a98 + __sdk_start;
__environ = 0x0000000000a0c8c8 + __sdk_start;
_ZN2nn3svc7aarch644lp6413AcceptSessionEPNS0_6HandleES3_ = 0x00000000000aa0ac + __sdk_start;
_ZN2nn4util10BitFlagSetILi256ENS_3hid11KeyboardKeyEE4FlagILi88EE4MaskE = 0x0000000000790598 + __sdk_start;
_ZNK2nn5codec11OpusEncoder21GetPreSkipSampleCountEv = 0x000000000010d2b4 + __sdk_start;
_ZN2nn2sf4cmif6client6detail13CmifProxyImplINS_8settings28IFirmwareDebugSettingsServerENS0_4hipc6client18Hipc2ProxyKindBaseILNS7_6detail11MessageTypeE4EEENS0_25StatelessAllocationPolicyINS0_22ExpHeapStaticAllocatorILm16384ES6_EEEES6_E41_nn_sf_sync_CreateSettingsItemKeyIteratorENS0_3OutINS0_13SharedPointerINS5_24ISettingsItemKeyIteratorEEEvEERKNS5_12SettingsNameE = 0x0000000000163778 + __sdk_start;
_ZNSt3__19money_getIwNS_19istreambuf_iteratorIwNS_11char_traitsIwEEEEE8__do_getERS4_S4_bRKNS_6localeEjRjRbRKNS_5ctypeIwEERNS_10unique_ptrIwPFvPvEEERPwSM_ = 0x00000000003288c0 + __sdk_start;
_ZN2nn3mii6detail16Ver3StoreDataRaw13SetBirthMonthEi = 0x00000000001aeaec + __sdk_start;
opus_multistream_encoder_init = 0x000000000010a228 + __sdk_start;
_ZTIN2nn3ntc6detail7service14IStaticServiceE = 0x00000000008e0cb0 + __sdk_start;
_ZN2nn2os6detail26ThreadManagerImplByHorizonC2EPNS0_10ThreadTypeE = 0x000000000008e514 + __sdk_start;
nvdcGetModeDB = 0x000000000023b454 + __sdk_start;
_ZNKSt3__120__time_get_c_storageIwE8__monthsEv = 0x0000000000338750 + __sdk_start;
_ZN2nn3hid20StopLrAssignmentModeEv = 0x000000000021449c + __sdk_start;
_ZN2nn2fs11CanMountRomENS_13ApplicationIdE = 0x00000000000615d8 + __sdk_start;
_ZTSN2nn2am7service19IApplicationCreatorE = 0x00000000007559e0 + __sdk_start;
_ZN2nn2sf6detail39ObjectImplFactoryWithStatelessAllocatorINS0_4cmif6client16CmifProxyFactoryINS_3mii6detail16IDatabaseServiceENS4_15CmifDomainProxyINS0_4hipc6client38Hipc2ClientSessionManagedProxyKindBaseINSB_18Hipc2ProxyKindBaseILNSA_6detail11MessageTypeE4EEEEEEENS0_25StatelessAllocationPolicyINS0_22ExpHeapStaticAllocatorILm16384ENS7_21ServiceProviderClient30CreateNifmUserServiceObjectTagEEEEEE13ServiceObjectESO_E6Object7ReleaseEv = 0x00000000001b1cf8 + __sdk_start;
_ZN2nn5audio18Axfx2DelaySetDelayEPNS0_14Axfx2DelayLineEi = 0x000000000017b398 + __sdk_start;
_ZN2nn2os6detail11VammManager14AllocateMemoryEPmm = 0x000000000008cf30 + __sdk_start;
nninitFinalizeSdkModule = 0x0000000000068658 + __sdk_start;
_ZN2nn5codec11OpusEncoder8FinalizeEv = 0x000000000010d020 + __sdk_start;
_ZN2nn8irsensor6detail13StatusManager22SetIrSensorAruidStatusERKNS_6applet20AppletResourceUserIdENS_4util10BitFlagSetILi32ENS1_16AppletStatusFlagEEE = 0x000000000021fc38 + __sdk_start;
nnosTryWaitAny = 0x000000000008a1e8 + __sdk_start;
_ZN2nn8irsensor6detail20InternalErrorHandlerC2Ev = 0x0000000000220398 + __sdk_start;
_ZN2nn5swkbd14InlineKeyboard17UnsetCustomizeDicEv = 0x00000000001b5658 + __sdk_start;
_ZNSt3__16locale2id6__initEv = 0x0000000000331700 + __sdk_start;
_ZNKSt3__110moneypunctIcLb1EE16do_negative_signEv = 0x0000000000324ab0 + __sdk_start;
_ZN2nn2sf6detail38ObjectImplFactoryWithStatefulAllocatorINS0_4cmif6client16CmifProxyFactoryINS_2am7service18IDisplayControllerENS4_15CmifDomainProxyINS0_4hipc6client38Hipc2ClientSessionManagedProxyKindBaseINSB_18Hipc2ProxyKindBaseILNSA_6detail11MessageTypeE4EEEEEEENS0_30MemoryResourceAllocationPolicyEE13ServiceObjectESJ_E6Object7ReleaseEv = 0x00000000000bf960 + __sdk_start;
_ZN2nn5audio6server11SinkContext10InitializeEPNS1_12SinkInfoBaseEi = 0x0000000000191340 + __sdk_start;
wcscasecmp_l = 0x00000000003c08d0 + __sdk_start;
_ZN7android10VectorImpl6resizeEm = 0x00000000002b3e7c + __sdk_start;
_ZN2nn2sf4cmif6client34CmifDomainProxyClientCoreProcessorINS0_4hipc6client38Hipc2ClientSessionManagedProxyKindBaseINS5_18Hipc2ProxyKindBaseILNS4_6detail11MessageTypeE4EEEEENS1_6detail14CoreMethodInfoINSt3__15tupleIJNSC_18OutRawArgumentInfoILm13ELm1ELl0EEENSG_ILm9ELm1ELl13EEEEEELm0ELm22ELb0EEESJ_E7ProcessEPNS2_23CmifDomainClientMessageISB_E15ProxyBaseObjectENS2_24OutRawClientArgumentTypeILm13ELm1EEENSQ_ILm9ELm1EEEj = 0x0000000000147944 + __sdk_start;
_ZN7android21SurfaceComposerClient11setRGBRangeERKNS_2spINS_7IBinderEEEi = 0x00000000002a78a0 + __sdk_start;
_ZN2nn3ngc6detail3Set6TurnOnEj = 0x0000000000140400 + __sdk_start;
_ZN7android9SingletonINS_8ComposerEE5sLockE = 0x00000000009f1118 + __sdk_start;
_ZN2nn2fs31QueryMountAddOnContentCacheSizeEPmNS_13ApplicationIdEi = 0x000000000011efd4 + __sdk_start;
_ZNK7android22GraphicBufferAllocator4dumpERNS_7String8E = 0x00000000002aac0c + __sdk_start;
_ZNK2nn3hid15VibrationTarget26IsVibrationDeviceHandleSetEv = 0x0000000000218250 + __sdk_start;
_ZNKSt3__115basic_streambufIcNS_11char_traitsIcEEE6getlocEv = 0x00000000003077b8 + __sdk_start;
_ZN2nn2sf4cmif6client34CmifDomainProxyClientCoreProcessorINS0_4hipc6client38Hipc2ClientSessionManagedProxyKindBaseINS5_18Hipc2ProxyKindBaseILNS4_6detail11MessageTypeE4EEEEENS1_6detail14CoreMethodInfoINSt3__15tupleIJNSC_18OutRawArgumentInfoILm8ELm4ELl0EEENSC_21OutHandleArgumentInfoILi0ELi1EEENSC_18BufferArgumentInfoILi0ELi9ELm0EEEEEELm0ELm8ELb0EEESM_E7ProcessEPNS2_23CmifDomainClientMessageISB_E15ProxyBaseObjectENS2_24OutRawClientArgumentTypeILm8ELm4EEENS2_27OutHandleClientArgumentTypeENS2_24BufferClientArgumentTypeEj = 0x0000000000154274 + __sdk_start;
_ZN2nn2fs6detail10MountTable7UnmountEPKc = 0x000000000004c6fc + __sdk_start;
_ZN2nn3ngc6detail16CalcSelect0TemplImEEijjPKT_PKjPKh = 0x0000000000143694 + __sdk_start;
_ZN2nn8settings6detail16MakeLanguageCodeEPNS0_12LanguageCodeENS0_8LanguageE = 0x000000000015f4ac + __sdk_start;
_ZTVN2nn7account31NintendoAccountLinkageProcedureE = 0x00000000008d40a8 + __sdk_start;
_ZN2nn5swkbd14InlineKeyboard14SetFooterAlphaEf = 0x00000000001b5678 + __sdk_start;
_ZN2nn5audio6server13CommandBuffer32GenerateI3dl2ReverbEffectCommandEiPKNS0_20I3dl2ReverbParameterEPvbmj = 0x000000000018a8f8 + __sdk_start;
_ZN2nn6socket8resolver11GetAddrInfoEPKcS3_PK8addrinfoPPS4_ = 0x00000000000a61a8 + __sdk_start;
wcsxfrm_l = 0x00000000003a3380 + __sdk_start;
_ZN2nn3hid6detail28SetSleepButtonAutoPilotStateERKNS0_5debug25SleepButtonAutoPilotStateE = 0x0000000000209f3c + __sdk_start;
_ZN2nn3fgm7Request15WaitWithTimeoutENS_8TimeSpanE = 0x00000000002f2638 + __sdk_start;
__hcreate_r = 0x00000000003b8eac + __sdk_start;
_ZN2nn7friends29ShowReceivedFriendRequestListERKNS_7account3UidE = 0x00000000001a00fc + __sdk_start;
_ZN2nn2sf6detail39ObjectImplFactoryWithStatelessAllocatorINS0_4cmif6client16CmifProxyFactoryINS_8irsensor21IIrSensorSystemServerENS0_4hipc6client18Hipc2ProxyKindBaseILNS8_6detail11MessageTypeE4EEENS0_25StatelessAllocationPolicyINS0_22ExpHeapStaticAllocatorILm16384ENS6_6detail20IrSensorSystemServerEEEEEE13ServiceObjectESJ_E6Object12AddReferenceEv = 0x0000000000223040 + __sdk_start;
_ZTIN2nn2sf6detail38ObjectImplFactoryWithStatefulAllocatorINS0_4cmif6client16CmifProxyFactoryINS_2am7service17IWindowControllerENS4_15CmifDomainProxyINS0_4hipc6client38Hipc2ClientSessionManagedProxyKindBaseINSB_18Hipc2ProxyKindBaseILNSA_6detail11MessageTypeE4EEEEEEENS0_30MemoryResourceAllocationPolicyEE13ServiceObjectESJ_E6ObjectE = 0x00000000008d6cb0 + __sdk_start;
_ZN2nn5codec11OpusEncoderD2Ev = 0x000000000010cdfc + __sdk_start;
_ZN2nn3ngc15ProfanityFilter19CheckProfanityWordsEPjjPPKtm = 0x0000000000134c40 + __sdk_start;
_ZN2nn3ngc6detail12BinaryWriter10WriteArrayEPKym = 0x000000000013a798 + __sdk_start;
_ZN2nn3ssl10Connection11GetHostNameEPcPjj = 0x0000000000168ee0 + __sdk_start;
_ZN2nn2os19ReceiveMessageQueueEPmPNS0_16MessageQueueTypeE = 0x0000000000087ff0 + __sdk_start;
_ZTSN2nn2sf4cmif6client6detail9CmifProxyINS_4pctl6detail3ipc30IParentalControlServiceFactoryENS2_15CmifDomainProxyINS0_4hipc6client38Hipc2ClientSessionManagedProxyKindBaseINSB_18Hipc2ProxyKindBaseILNSA_6detail11MessageTypeE4EEEEEEENS0_30MemoryResourceAllocationPolicyEvEE = 0x000000000076dd80 + __sdk_start;
_ZNK2nn4pctl11PairingInfo8GetStateEv = 0x00000000001517a4 + __sdk_start;
_ZTSN2nn5fssrv2sf10IDirectoryE = 0x000000000073d920 + __sdk_start;
_ZN2nn4util15RelocationTable12SetSignatureEv = 0x000000000003a92c + __sdk_start;
__tandf = 0x00000000003aef24 + __sdk_start;
_ZN2nn2sf4cmif6client6detail13CmifProxyImplINS_7friends6detail3ipc20INotificationServiceENS2_15CmifDomainProxyINS0_4hipc6client38Hipc2ClientSessionManagedProxyKindBaseINSB_18Hipc2ProxyKindBaseILNSA_6detail11MessageTypeE4EEEEEEENS0_30MemoryResourceAllocationPolicyES8_E15_nn_sf_sync_PopENS0_3OutINS7_21SizedNotificationInfoEvEE = 0x000000000011ed44 + __sdk_start;
_ZN2nn5audio6common11DumpCommandEPKNS0_18PerformanceCommandE = 0x0000000000193e34 + __sdk_start;
_ZN2nn2ro6detail8g_RoLockE = 0x000000000092d190 + __sdk_start;
_ZN2nn2vi6native18NativeWindowHolder15GetNativeWindowEv = 0x00000000001c0060 + __sdk_start;
cbrtf = 0x00000000003a5554 + __sdk_start;
NvRmGpuTaskSchedulingGroupSetTimeslice = 0x0000000000268030 + __sdk_start;
_ZNK2nn7friends13FriendRequest7IsValidEv = 0x0000000000116cf4 + __sdk_start;
_ZN2nn2sf4cmif6client6detail13CmifProxyImplINS_3hid16IHidSystemServerENS0_4hipc6client18Hipc2ProxyKindBaseILNS7_6detail11MessageTypeE4EEENS0_25StatelessAllocationPolicyINS0_22ExpHeapStaticAllocatorILm16384ENS5_6detail15HidSystemServerEEEEES6_E46_nn_sf_sync_CancelAnalogStickManualCalibrationENS5_6system11UniquePadIdEl = 0x000000000021c9d8 + __sdk_start;
cbrtl = 0x00000000003a5618 + __sdk_start;
_ZTSNSt3__19strstreamE = 0x00000000007b5850 + __sdk_start;
_ZN7android7String811setPathNameEPKcm = 0x00000000002b0ef8 + __sdk_start;
_ZNSt3__112strstreambuf7seekposENS_4fposI11__mbstate_tEEj = 0x0000000000347f6c + __sdk_start;
_ZNK7android6Region15getSharedBufferEPm = 0x00000000002adacc + __sdk_start;
__nnmusl_LockRecursiveLock = 0x00000000003c3ddc + __sdk_start;
_ZN2nn2sf4cmif6client6detail13CmifProxyImplINS_2am7service21IStackableAppletProxyENS2_15CmifDomainProxyINS0_4hipc6client38Hipc2ClientSessionManagedProxyKindBaseINSA_18Hipc2ProxyKindBaseILNS9_6detail11MessageTypeE4EEEEEEENS0_30MemoryResourceAllocationPolicyENS6_18ISystemAppletProxyEE35_nn_sf_sync_GetLibraryAppletCreatorENS0_3OutINS0_13SharedPointerINS6_21ILibraryAppletCreatorEEEvEE = 0x00000000000bda30 + __sdk_start;
_ZN2nn4nifm21GetCurrentAccessPointEPNS0_15AccessPointDataE = 0x00000000001494e4 + __sdk_start;
_ZTIN2nn2sf4cmif6client16CmifProxyFactoryINS_6aocsrv6detail20IAddOnContentManagerENS0_4hipc6client18Hipc2ProxyKindBaseILNS7_6detail11MessageTypeE4EEENS0_30MemoryResourceAllocationPolicyEE13ServiceObjectE = 0x00000000008e1590 + __sdk_start;
_ZN2nn5audio6server14EffectInfoBase7CleanUpEv = 0x000000000018eb5c + __sdk_start;
_ZN2nn2os6detail33MultiWaitHolderOfNativeWaitObject20RemoveFromObjectListEv = 0x000000000008c5f8 + __sdk_start;
_ZNK2nn5audio6server17AudioRenderSystem26GetDspProcessingTimeBudgetEv = 0x0000000000188410 + __sdk_start;
_unw_remove_dynamic_fde = 0x0000000000379534 + __sdk_start;
_ZNSt3__112basic_stringIwNS_11char_traitsIwEENS_9allocatorIwEEE6appendIPwEENS_9enable_ifIXaasr21__is_forward_iteratorIT_EE5valuesr38__libcpp_string_gets_noexcept_iteratorIS9_EE5valueERS5_E4typeES9_S9_ = 0x0000000000329e1c + __sdk_start;
_ZNK2nn2lm6detail15LogPacketHeader11GetSeverityEv = 0x0000000000129578 + __sdk_start;
nnmem_nlib_skipws = 0x000000000006ddc8 + __sdk_start;
_ZN2nn4htcs6detail25virtual_socket_collection11FetchSocketEiRi = 0x0000000000127f34 + __sdk_start;
_ZN2nn5audio14MemoryPoolInfo5StoreEPKNS1_9OutStatusE = 0x0000000000177340 + __sdk_start;
_ZN2nn2sf6detail38ObjectImplFactoryWithStatefulAllocatorINS0_4cmif6client16CmifProxyFactoryINS_2am7service15IAppletAccessorENS4_15CmifDomainProxyINS0_4hipc6client38Hipc2ClientSessionManagedProxyKindBaseINSB_18Hipc2ProxyKindBaseILNSA_6detail11MessageTypeE4EEEEEEENS0_30MemoryResourceAllocationPolicyEE13ServiceObjectESJ_E6Object12AddReferenceEv = 0x00000000000c0b28 + __sdk_start;
nnsslInitialize = 0x000000000016a1e4 + __sdk_start;
_ZTSN2nn2sf4cmif6client16CmifProxyFactoryINS_7account6detail13IAsyncContextENS2_15CmifDomainProxyINS0_4hipc6client38Hipc2ClientSessionManagedProxyKindBaseINS9_18Hipc2ProxyKindBaseILNS8_6detail11MessageTypeE4EEEEEEENS0_30MemoryResourceAllocationPolicyEE13ServiceObjectE = 0x000000000074eee0 + __sdk_start;
_ZN2nn6socket8resolver3tls6Client22GetCurrentHErrorStringEv = 0x00000000000a6b90 + __sdk_start;
nvdcFreeDisplays = 0x000000000023a58c + __sdk_start;
_ZTSN2nn2sf4cmif11ICmifDomainE = 0x00000000007435f0 + __sdk_start;
_ZNK2nn3web26OfflineHtmlPageReturnValue14GetLastUrlSizeEv = 0x0000000000235e54 + __sdk_start;
_ZN2nn3mii6detail11GetDeviceIdEPNS1_8DeviceIdE = 0x00000000001a69fc + __sdk_start;
_ZTVNSt3__113basic_istreamIcNS_11char_traitsIcEEEE = 0x0000000000903d38 + __sdk_start;
__stdio_exit = 0x00000000003bd420 + __sdk_start;
__nnmusl_ClockGetRes = 0x00000000003c3eac + __sdk_start;
_ZN2nn2sf4cmif6client34CmifDomainProxyClientCoreProcessorINS0_4hipc6client38Hipc2ClientSessionManagedProxyKindBaseINS5_18Hipc2ProxyKindBaseILNS4_6detail11MessageTypeE4EEEEENS1_6detail14CoreMethodInfoINSt3__15tupleIJNSC_18OutRawArgumentInfoILm4ELm4ELl0EEENSC_17InRawArgumentInfoILm16ELm8ELl0EEEEEELm16ELm4ELb0EEESK_E7ProcessEPNS2_23CmifDomainClientMessageISB_E15ProxyBaseObjectENS2_24OutRawClientArgumentTypeILm4ELm4EEENS2_23InRawClientArgumentTypeILm16ELm8EvEEj = 0x000000000011c514 + __sdk_start;
_ZN2nn2fs30GetGameCardDeviceIdForProdCardEPvmS1_m = 0x000000000005e514 + __sdk_start;
_ZNSt3__110moneypunctIwLb1EE4intlE = 0x00000000007b3873 + __sdk_start;
_ZN2nn2fs15RomFsFileSystemD2Ev = 0x0000000000049e38 + __sdk_start;
NvRmMemGetFd = 0x0000000000250cbc + __sdk_start;
_ZN2nn5prepo6detail4util18Utf8StreamVerifierC2Ev = 0x0000000000156eb0 + __sdk_start;
_ZNSt3__16futureIvE3getEv = 0x0000000000305898 + __sdk_start;
_ZN2nn5audio12ListAudioInsEPNS0_11AudioInInfoEi = 0x0000000000185868 + __sdk_start;
_ZTINSt3__19__num_getIwEE = 0x0000000000906180 + __sdk_start;
_ZNSt12out_of_rangeD0Ev = 0x0000000000377860 + __sdk_start;
_ZN2nn8settings6system28SetNetworkSystemClockContextERKNS_4time18SystemClockContextE = 0x000000000015ae80 + __sdk_start;
silk_NLSF2A = 0x00000000000e6bcc + __sdk_start;
_ZTIN2nn4bcat6detail3ipc15IServiceCreatorE = 0x00000000008da090 + __sdk_start;
_ZNSt3__16locale5ctypeE = 0x00000000007b3894 + __sdk_start;
NvRmStreamFlushSync = 0x0000000000254720 + __sdk_start;
_ZN2nn5album12LibraryState10InitializeEv = 0x000000000022f400 + __sdk_start;
_ZN2nn2sf4cmif6client6detail13CmifProxyImplINS_7friends6detail3ipc14IFriendServiceENS2_15CmifDomainProxyINS0_4hipc6client38Hipc2ClientSessionManagedProxyKindBaseINSB_18Hipc2ProxyKindBaseILNSA_6detail11MessageTypeE4EEEEEEENS0_30MemoryResourceAllocationPolicyES8_E45_nn_sf_sync_GetFacedFriendRequestProfileImageENS0_3OutIivEERKNS_7account3UidENSN_23NetworkServiceAccountIdERKNS0_9OutBufferE = 0x000000000011a740 + __sdk_start;
_ZN2nn7account28NetworkServiceAccountManager36EnsureNetworkServiceAccountAvailableENS0_32NintendoAccountStartupDialogTypeE = 0x00000000000b7ef0 + __sdk_start;
_ZTSN2nn2sf6detail38ObjectImplFactoryWithStatefulAllocatorINS0_4cmif6client16CmifProxyFactoryINS_7friends6detail3ipc15IServiceCreatorENS4_15CmifDomainProxyINS0_4hipc6client38Hipc2ClientSessionManagedProxyKindBaseINSC_18Hipc2ProxyKindBaseILNSB_6detail11MessageTypeE4EEEEEEENS0_30MemoryResourceAllocationPolicyEE13ServiceObjectESK_E6ObjectE = 0x0000000000762410 + __sdk_start;
_ZN2nn4nifm6detail13RequestClient6SubmitEv = 0x0000000000143d10 + __sdk_start;
NvRmSyncCreateFromSyncpoints = 0x000000000024d89c + __sdk_start;
_ZTIN2nn2sf4cmif6client6detail13CmifProxyImplINS_2am7service19ILibraryAppletProxyENS2_15CmifDomainProxyINS0_4hipc6client38Hipc2ClientSessionManagedProxyKindBaseINSA_18Hipc2ProxyKindBaseILNS9_6detail11MessageTypeE4EEEEEEENS0_30MemoryResourceAllocationPolicyES7_EE = 0x00000000008d8450 + __sdk_start;
_ZN2nn6socket4OpenEPKci = 0x000000000009a65c + __sdk_start;
get_glyph_advance = 0x00000000001e5b88 + __sdk_start;
_ZNK2nn3mii6detail11CoreDataRaw7GetEyeYEv = 0x00000000001a47c4 + __sdk_start;
_ZN2nn6crypto6detail11CtrModeImplINS0_12AesEncryptorILm16EEEE6UpdateEPvmPKvm = 0x0000000000000d84 + __sdk_start;
_ZNK2nn3web26OfflineHtmlPageReturnValue20GetOfflineExitReasonEv = 0x0000000000235e44 + __sdk_start;
_ZN2nn2sf4hipc6client24Hipc2ClientCoreProcessorILNS1_6detail11MessageTypeE4ENS0_4cmif6detail14CoreMethodInfoINSt3__15tupleIJNS7_17InRawArgumentInfoILm8ELm8ELl0EEENS7_18OutRawArgumentInfoILm8ELm8ELl0EEEEEELm8ELm8ELb0EEESF_E7ProcessEPNS2_26Hipc2ClientProxyBaseObjectENS6_6client23InRawClientArgumentTypeILm8ELm8EvEENSK_24OutRawClientArgumentTypeILm8ELm8EEEj = 0x00000000001840d0 + __sdk_start;
_ZN2nn3hid14KeyboardLayout9NorwegianE = 0x0000000000790bcc + __sdk_start;
nvgr_get_usage = 0x0000000000266fe0 + __sdk_start;
_ZN2nn3hid6system18EnableHandheldHidsEv = 0x00000000002114e8 + __sdk_start;
_ZNSt3__112basic_stringIcNS_11char_traitsIcEENS_9allocatorIcEEE6assignEmc = 0x000000000033ff58 + __sdk_start;
_ZN2nn6crypto6detail10bigint_cmpEPKjS3_i = 0x000000000000206c + __sdk_start;
_ZNSt3__117__assoc_sub_state16__on_zero_sharedEv = 0x0000000000304eb8 + __sdk_start;
_ZN2nn2sf6detail39ObjectImplFactoryWithStatelessAllocatorINS0_4cmif6client16CmifProxyFactoryINS_7account31IAccountServiceForSystemServiceENS4_15CmifDomainProxyINS0_4hipc6client38Hipc2ClientSessionManagedProxyKindBaseINSA_18Hipc2ProxyKindBaseILNS9_6detail11MessageTypeE4EEEEEEENS0_25StatelessAllocationPolicyINS0_22ExpHeapStaticAllocatorILm2048ENS6_6detail12ObjectHolder24ObjectHolderAllocatorTagEEEEEE13ServiceObjectESO_E6Object12AddReferenceEv = 0x00000000000b0088 + __sdk_start;
_ZN2nn2sf4cmif6client6detail13CmifProxyImplINS_3hid16IHidSystemServerENS0_4hipc6client18Hipc2ProxyKindBaseILNS7_6detail11MessageTypeE4EEENS0_25StatelessAllocationPolicyINS0_22ExpHeapStaticAllocatorILm16384ENS5_6detail15HidSystemServerEEEEES6_E31_nn_sf_sync_ActivateSleepButtonENS_6applet20AppletResourceUserIdE = 0x000000000021c2a4 + __sdk_start;
_ZNK2nn5audio6server14MemoryPoolInfo11GetLocationEv = 0x000000000018f408 + __sdk_start;
_ZN2nn5swkbd14InlineKeyboard27SetFinishedKeyboardCallbackEPFvvE = 0x00000000001b57f0 + __sdk_start;
_ZN2nn2os20TimedJamMessageQueueEPNS0_16MessageQueueTypeEmNS_8TimeSpanE = 0x0000000000087ec4 + __sdk_start;
_ZTSN2nn2sf4cmif6client6detail13CmifProxyImplINS_7friends6detail3ipc20INotificationServiceENS2_15CmifDomainProxyINS0_4hipc6client38Hipc2ClientSessionManagedProxyKindBaseINSB_18Hipc2ProxyKindBaseILNSA_6detail11MessageTypeE4EEEEEEENS0_30MemoryResourceAllocationPolicyES8_EE = 0x0000000000763660 + __sdk_start;
_ZN2nn3hid6detail26EnableUsbFullKeyControllerEb = 0x000000000020f8d4 + __sdk_start;
_ZN2nn5codec6detail20SetForceModeInternalEP11OpusEncoderNS0_14OpusCodingModeE = 0x000000000010dcf8 + __sdk_start;
_ZN2nn2sf4cmif6client6detail13CmifProxyImplINS_2am7service18IAppletProxyCommonENS2_15CmifDomainProxyINS0_4hipc6client38Hipc2ClientSessionManagedProxyKindBaseINSA_18Hipc2ProxyKindBaseILNS9_6detail11MessageTypeE4EEEEEEENS0_30MemoryResourceAllocationPolicyENS6_19IOverlayAppletProxyEE29_nn_sf_sync_GetDebugFunctionsENS0_3OutINS0_13SharedPointerINS6_15IDebugFunctionsEEEvEE = 0x00000000000c4ae0 + __sdk_start;
_ZN2nn4lmem16DestroyFrameHeapEPNS0_6detail8HeapHeadE = 0x0000000000068e74 + __sdk_start;
_ZN2nn4nifm17NetworkConnectionC2Ev = 0x000000000014a08c + __sdk_start;
_ZNKSt3__112basic_stringIwNS_11char_traitsIwEENS_9allocatorIwEEE17find_first_not_ofEPKwmm = 0x000000000034343c + __sdk_start;
_ZN2nn4util6TinyMt12RestoreStateEPKNS1_5StateE = 0x000000000003ca00 + __sdk_start;
_ZTIN2nn2sf4cmif6client16CmifProxyFactoryINS_7account4baas18IGuestLoginRequestENS2_15CmifDomainProxyINS0_4hipc6client38Hipc2ClientSessionManagedProxyKindBaseINS9_18Hipc2ProxyKindBaseILNS8_6detail11MessageTypeE4EEEEEEENS0_25StatelessAllocationPolicyINS0_22ExpHeapStaticAllocatorILm2048ENS4_6detail12ObjectHolder24ObjectHolderAllocatorTagEEEEEE13ServiceObjectE = 0x00000000008d22c0 + __sdk_start;
_ZN2nn2os36GetVirtualAddressMemoryResourceUsageEv = 0x0000000000089fe8 + __sdk_start;
_ZN2nn7account48NintendoAccountApplicationAuthorizationProcedureC1EOS1_ = 0x00000000000b9c58 + __sdk_start;
_ZNK7android8String168findLastEDs = 0x00000000002af618 + __sdk_start;
_ZN2nn5image6detail4jpeg15jpeg_idct_islowEPNS2_22jpeg_decompress_structEPNS2_19jpeg_component_infoEPsPPhi = 0x0000000000023cf4 + __sdk_start;
_ZN2nn6socket6detail8InetAtonEPKcP7in_addr = 0x000000000009e374 + __sdk_start;
_ZNSt3__114__shared_countD0Ev = 0x000000000033d688 + __sdk_start;
_ZN2nn3i2c18ExecuteCommandListEPvmRKNS0_10I2cSessionEPKvm = 0x00000000002f5230 + __sdk_start;
_ZN2nn2sf4cmif6client34CmifDomainProxyClientCoreProcessorINS0_4hipc6client38Hipc2ClientSessionManagedProxyKindBaseINS5_18Hipc2ProxyKindBaseILNS4_6detail11MessageTypeE4EEEEENS1_6detail14CoreMethodInfoINSt3__15tupleIJNSC_18OutRawArgumentInfoILm1ELm1ELl0EEENSC_18BufferArgumentInfoILi0ELi6ELm0EEEEEELm0ELm1ELb0EEESK_E7ProcessEPNS2_23CmifDomainClientMessageISB_E15ProxyBaseObjectENS2_24OutRawClientArgumentTypeILm1ELm1EEENS2_24BufferClientArgumentTypeEj = 0x00000000000bfe5c + __sdk_start;
wcscasecmp = 0x00000000003c08c8 + __sdk_start;
_ZN2nn2fs6detail12FileAccessor13GetWriteStateEv = 0x000000000004b770 + __sdk_start;
_ZN2nn2sf33ScopedCurrentMemoryResourceSetterC2EPNS_14MemoryResourceE = 0x0000000000092ce8 + __sdk_start;
getFDindex = 0x00000000001ce004 + __sdk_start;
_ZN2nn2sf4cmif6client34CmifDomainProxyClientCoreProcessorINS0_4hipc6client38Hipc2ClientSessionManagedProxyKindBaseINS5_18Hipc2ProxyKindBaseILNS4_6detail11MessageTypeE4EEEEENS1_6detail14CoreMethodInfoINSt3__15tupleIJNSC_18OutRawArgumentInfoILm4ELm4ELl0EEENSC_18BufferArgumentInfoILi0ELi10ELm0EEENSC_17InRawArgumentInfoILm16ELm8ELl0EEEEEELm16ELm4ELb0EEESM_E7ProcessEPNS2_23CmifDomainClientMessageISB_E15ProxyBaseObjectENS2_24OutRawClientArgumentTypeILm4ELm4EEENS2_24BufferClientArgumentTypeENS2_23InRawClientArgumentTypeILm16ELm8EvEEj = 0x0000000000153dec + __sdk_start;
_ZN2nn5audio27IsValidMixBufferSampleCountEii = 0x0000000000173514 + __sdk_start;
_ZN2nn2sf4cmif6client6detail13CmifProxyImplINS_4nifm6detail8IRequestENS2_15CmifDomainProxyINS0_4hipc6client38Hipc2ClientSessionManagedProxyKindBaseINSA_18Hipc2ProxyKindBaseILNS9_6detail11MessageTypeE4EEEEEEENS0_25StatelessAllocationPolicyINS0_22ExpHeapStaticAllocatorILm16384ENS6_21ServiceProviderClient30CreateNifmUserServiceObjectTagEEEEES7_E43_nn_sf_sync_SetConnectionConfirmationOptionEa = 0x0000000000145cec + __sdk_start;
_ZN2nn7account38ExternalNetworkServiceAccountRegistrarC1EOS1_ = 0x00000000000b7594 + __sdk_start;
tanhf = 0x00000000003acf1c + __sdk_start;
_ZNK7android6Region16getFlattenedSizeEv = 0x00000000002ad954 + __sdk_start;
_ZN2nn2la27AppletToNifmArgumentsReader25ReadNetConnectReturnParamENS_6applet13StorageHandleE = 0x00000000001a0fa8 + __sdk_start;
_ZN2nn4nifm6detail12HttpPostDataD2Ev = 0x000000000014b44c + __sdk_start;
_ZTIN2nn2sf4cmif6client6detail9CmifProxyINS_2am7service22ILibraryAppletAccessorENS2_15CmifDomainProxyINS0_4hipc6client38Hipc2ClientSessionManagedProxyKindBaseINSA_18Hipc2ProxyKindBaseILNS9_6detail11MessageTypeE4EEEEEEENS0_30MemoryResourceAllocationPolicyEvEE = 0x00000000008d78f0 + __sdk_start;
_ZN2nn3mii6detail16Ver3StoreDataRaw13SetBeardColorEi = 0x00000000001aed4c + __sdk_start;
_ZN2nn3hid6detail8RingLifoINS0_16NpadFullKeyStateELi16ENS1_13AtomicStorageIS3_EEED2Ev = 0x0000000000208e3c + __sdk_start;
_ZN2nn2fs20CreateSystemSaveDataENS0_15SaveDataSpaceIdEmNS0_6UserIdEmllj = 0x00000000000638a0 + __sdk_start;
tanhl = 0x00000000003acff8 + __sdk_start;
_ZNK2nn3mii21ParamCharInfoAccessor16GetEyebrowRotateEv = 0x00000000001a1ae8 + __sdk_start;
_ZNSt3__112strstreambufC1EPalS1_ = 0x000000000034789c + __sdk_start;
_ZN2nn5audio16GetVoicePriorityEPKNS0_9VoiceTypeE = 0x000000000017995c + __sdk_start;
_ZN2nn2sf4cmif6client6detail13CmifProxyImplINS_5visrv2sf26IApplicationDisplayServiceENS0_4hipc6client18Hipc2ProxyKindBaseILNS8_6detail11MessageTypeE4EEENS0_30MemoryResourceAllocationPolicyES7_E22_nn_sf_sync_CloseLayerEm = 0x00000000001b8a8c + __sdk_start;
_ZN2nn7account34NetworkServiceAccountAdministratorC1ERKNS0_3UidEPNS0_4baas14IAdministratorE = 0x00000000000b8670 + __sdk_start;
_ZNSt3__112system_errorD0Ev = 0x0000000000348d74 + __sdk_start;
_ZN2nn2fs14VerifySaveDataEPbmPvm = 0x0000000000064204 + __sdk_start;
_ZN2nn7friends6detail16PresenceAccessor15GetKeyValueListEPiPNS2_8KeyValueEiPKcm = 0x0000000000110ea8 + __sdk_start;
__musl_bytewise_strncmp = 0x00000000003c6090 + __sdk_start;
_ZN2nn2ec24ShowShopSubscriptionListENS_13ApplicationIdERKNS_7account10UserHandleE = 0x000000000019d48c + __sdk_start;
_ZN2nn7friends6detail20AsyncContextInternal9CallAsyncEPKcPFNS_6ResultEPNS1_3ipc14IFriendServiceEPvES9_m = 0x0000000000119064 + __sdk_start;
_ZNKSt3__110__time_put8__do_putEPwRS1_PK2tmcc = 0x00000000003247fc + __sdk_start;
_ZN2nn2vi29InitializeForIndirectProducerEv = 0x00000000001bd634 + __sdk_start;
_ZN2nn5audio25SetBufferMixerInputOutputEPNS0_15BufferMixerTypeEPKaS4_i = 0x0000000000174728 + __sdk_start;
_ZTVN2nn2sf6detail38ObjectImplFactoryWithStatefulAllocatorINS0_4cmif6client16CmifProxyFactoryINS_2am7service15ISelfControllerENS4_15CmifDomainProxyINS0_4hipc6client38Hipc2ClientSessionManagedProxyKindBaseINSB_18Hipc2ProxyKindBaseILNSA_6detail11MessageTypeE4EEEEEEENS0_30MemoryResourceAllocationPolicyEE13ServiceObjectESJ_E6ObjectE = 0x00000000008d6978 + __sdk_start;
_ZN2nn3ngc6detail11AhoCorasick6ImportEPNS1_12BinaryReaderE = 0x0000000000138cc0 + __sdk_start;
_ZN2nn5audio20DelayLineGetMaxDelayEPNS0_11FXDelayLineE = 0x000000000017b0e0 + __sdk_start;
NvRmSyncGetSemaphores = 0x000000000024e1fc + __sdk_start;
_ZNSt3__112bad_weak_ptrD1Ev = 0x000000000033d650 + __sdk_start;
_ZN2nn5image11JpegEncoder16SetSamplingRatioENS0_17JpegSamplingRatioE = 0x000000000002e4b8 + __sdk_start;
_ZN2nn5swkbd14SetInitialTextEPNS0_15ShowKeyboardArgEPKDs = 0x00000000001b5208 + __sdk_start;
_ZN7android12ProcessState16getContextObjectERKNS_2spINS_7IBinderEEE = 0x0000000000282664 + __sdk_start;
_ZN2nn3hid6detail8RingLifoINS0_13KeyboardStateELi16ENS1_13AtomicStorageIS3_EEED2Ev = 0x0000000000208b20 + __sdk_start;
_ZN7android6Parcel15setDataCapacityEm = 0x000000000027ed80 + __sdk_start;
_ZN2nn2vi6buffer11BufferQueue20GetScanBufferAddressEPPvS4_ = 0x00000000001c08e0 + __sdk_start;
_ZN2nn2fs10SubStorage4ReadElPvm = 0x000000000004837c + __sdk_start;
_ZNSt12experimental15fundamentals_v112bad_any_castD0Ev = 0x0000000000302d3c + __sdk_start;
_ZN2nn3ldn20AddAcceptFilterEntryERKNS0_8NodeInfoE = 0x0000000000232008 + __sdk_start;
_ZTIN2nn2sf6detail39ObjectImplFactoryWithStatelessAllocatorINS0_4cmif6client16CmifProxyFactoryINS_7account3nas29IOAuthProcedureForExternalNsaENS4_15CmifDomainProxyINS0_4hipc6client38Hipc2ClientSessionManagedProxyKindBaseINSB_18Hipc2ProxyKindBaseILNSA_6detail11MessageTypeE4EEEEEEENS0_25StatelessAllocationPolicyINS0_22ExpHeapStaticAllocatorILm2048ENS6_6detail12ObjectHolder24ObjectHolderAllocatorTagEEEEEE13ServiceObjectESP_E6ObjectE = 0x00000000008d3490 + __sdk_start;
regcomp = 0x00000000003b1e1c + __sdk_start;
_ZTIN2nn2sf6detail38ObjectImplFactoryWithStatefulAllocatorINS0_4cmif6client16CmifProxyFactoryINS_2am7service20IApplicationAccessorENS4_15CmifDomainProxyINS0_4hipc6client38Hipc2ClientSessionManagedProxyKindBaseINSB_18Hipc2ProxyKindBaseILNSA_6detail11MessageTypeE4EEEEEEENS0_30MemoryResourceAllocationPolicyEE13ServiceObjectESJ_E6ObjectE = 0x00000000008d7480 + __sdk_start;
_ZN2nn2sf4cmif6client6detail13CmifProxyImplINS_8settings22IFactorySettingsServerENS0_4hipc6client18Hipc2ProxyKindBaseILNS7_6detail11MessageTypeE4EEENS0_25StatelessAllocationPolicyINS0_22ExpHeapStaticAllocatorILm16384ES6_EEEES6_E27_nn_sf_sync_GetEciDeviceKeyENS0_3OutINS5_7factory16EccB233DeviceKeyEvEE = 0x00000000001624b0 + __sdk_start;
get_scale_inputs = 0x00000000001f7b04 + __sdk_start;
_ZN2nn2sf4cmif6client6detail13CmifProxyImplINS_2am7service18IHomeMenuFunctionsENS2_15CmifDomainProxyINS0_4hipc6client38Hipc2ClientSessionManagedProxyKindBaseINSA_18Hipc2ProxyKindBaseILNS9_6detail11MessageTypeE4EEEEEEENS0_30MemoryResourceAllocationPolicyES7_E17GetCmifBaseObjectEv = 0x00000000000c2f24 + __sdk_start;
nnsslConnectionSetVerifyOption = 0x000000000016a3ac + __sdk_start;
_ZN7android7String8C2ERKS0_ = 0x00000000002afa88 + __sdk_start;
_ZNSt3__112basic_stringIwNS_11char_traitsIwEENS_9allocatorIwEEE6__initIPKwEENS_9enable_ifIXsr21__is_forward_iteratorIT_EE5valueEvE4typeESA_SA_ = 0x000000000033ca6c + __sdk_start;
_ZN2nn4lmem25GetExpHeapAllocatableSizeEPNS0_6detail8HeapHeadEi = 0x0000000000068a3c + __sdk_start;
_ZTv0_n48_N7android8BpBinder20onIncStrongAttemptedEjPKv = 0x00000000002778d8 + __sdk_start;
_ZN2nn2sf4cmif6client6detail13CmifProxyImplINS_2am7service26ILibraryAppletSelfAccessorENS2_15CmifDomainProxyINS0_4hipc6client38Hipc2ClientSessionManagedProxyKindBaseINSA_18Hipc2ProxyKindBaseILNS9_6detail11MessageTypeE4EEEEEEENS0_30MemoryResourceAllocationPolicyES7_E32_nn_sf_sync_ExitProcessAndReturnEv = 0x00000000000c3ea4 + __sdk_start;
nnmem_nlib_fd_pwritev = 0x000000000007165c + __sdk_start;
_ZN2nn2os19TryAcquireWriteLockEPNS0_20ReaderWriterLockTypeE = 0x0000000000088a8c + __sdk_start;
_ZN2nn2sf4hipc6server21HipcServerSessionBase5ReplyEPvm = 0x0000000000095a54 + __sdk_start;
_ZN2nn2fs24HierarchicalRomFileTable17FindFileRecursiveEPNS1_8EntryKeyEPNS1_17DirectoryRomEntryEPKc = 0x0000000000046728 + __sdk_start;
_ZN2nn4nifm17NetworkConnection14GetSystemEventEv = 0x000000000014a0f4 + __sdk_start;
_ZN2nn5image11ExifBuilder11SetDateTimeEPKcm = 0x000000000002eba4 + __sdk_start;
_ZNSt3__127__insertion_sort_incompleteIRNS_6__lessIssEEPsEEbT0_S5_T_ = 0x00000000002fc35c + __sdk_start;
update_sp_ep = 0x00000000001e5808 + __sdk_start;
_ZN2nn8settings24GetDebugPadGenericPadMapEPNS0_21DebugPadGenericPadMapE = 0x000000000015b028 + __sdk_start;
_ZN2nn5codec6detail18OpusPacketInternal19GetHeaderFromPacketEPNS2_6HeaderEPKh = 0x000000000010d990 + __sdk_start;
_ZTIN2nn2sf4cmif6client6detail13CmifProxyImplINS_5visrv2sf26IApplicationDisplayServiceENS0_4hipc6client18Hipc2ProxyKindBaseILNS8_6detail11MessageTypeE4EEENS0_30MemoryResourceAllocationPolicyES7_EE = 0x00000000008e46b0 + __sdk_start;
_ZNSt3__15ctypeIcE2idE = 0x0000000000a0a198 + __sdk_start;
_ZN2nn3mii6detail15BufferAllocatorC2EPvm = 0x00000000001a2054 + __sdk_start;
_ZN2nn2sf4cmif6client34CmifDomainProxyClientCoreProcessorINS0_4hipc6client38Hipc2ClientSessionManagedProxyKindBaseINS5_18Hipc2ProxyKindBaseILNS4_6detail11MessageTypeE4EEEEENS1_6detail14CoreMethodInfoINSt3__15tupleIJNSC_18OutRawArgumentInfoILm4ELm4ELl0EEENSG_ILm4ELm4ELl4EEENSC_17InRawArgumentInfoILm4ELm4ELl0EEENSC_18BufferArgumentInfoILi0ELi33ELm0EEEEEELm4ELm8ELb0EEESN_E7ProcessEPNS2_23CmifDomainClientMessageISB_E15ProxyBaseObjectENS2_24OutRawClientArgumentTypeILm4ELm4EEESV_NS2_23InRawClientArgumentTypeILm4ELm4EvEENS2_24BufferClientArgumentTypeEj = 0x00000000000a3830 + __sdk_start;
_ZN2nn2sf4hipc6client24Hipc2ClientCoreProcessorILNS1_6detail11MessageTypeE4ENS0_4cmif6detail14CoreMethodInfoINSt3__15tupleIJNS7_18BufferArgumentInfoILi0ELi22ELm128EEEEEELm0ELm0ELb0EEESD_E7ProcessEPNS2_26Hipc2ClientProxyBaseObjectENS6_6client24BufferClientArgumentTypeEj = 0x0000000000167444 + __sdk_start;
_ZN2nn7account33ExternalNetworkServiceAccountInfo4SwapERS1_ = 0x00000000000b7454 + __sdk_start;
_ZN2nn2fs6detail18FileSystemAccessorC2EPKcONSt3__110unique_ptrINS0_3fsa11IFileSystemENS5_14default_deleteIS8_EEEEONS6_INS7_25ICommonMountNameGeneratorENS9_ISD_EEEE = 0x000000000004b778 + __sdk_start;
NvOsSharedMemAlloc = 0x0000000000245ea4 + __sdk_start;
_ZN2nn3hid13VibrationNode30DefaultVibrationSampleIntervalE = 0x00000000009b1158 + __sdk_start;
_ZN2nn2fs6detail12FileAccessorD2Ev = 0x000000000004b468 + __sdk_start;
NvRmMemGetId = 0x00000000002512e4 + __sdk_start;
_ZNSt3__111__libcpp_db9__erase_cEPv = 0x0000000000303e88 + __sdk_start;
_ZN2nn2sf4cmif6client6detail13CmifProxyImplINS_7friends6detail3ipc14IFriendServiceENS2_15CmifDomainProxyINS0_4hipc6client38Hipc2ClientSessionManagedProxyKindBaseINSB_18Hipc2ProxyKindBaseILNSA_6detail11MessageTypeE4EEEEEEENS0_30MemoryResourceAllocationPolicyES8_E40_nn_sf_sync_BlockUserWithApplicationInfoERKNS_7account3UidENSL_23NetworkServiceAccountIdEiRKNS5_15ApplicationInfoERKNS5_15InAppScreenNameE = 0x000000000011a848 + __sdk_start;
_ZN2nn2sf4cmif6client34CmifDomainProxyClientCoreProcessorINS0_4hipc6client38Hipc2ClientSessionManagedProxyKindBaseINS5_18Hipc2ProxyKindBaseILNS4_6detail11MessageTypeE4EEEEENS1_6detail14CoreMethodInfoINSt3__15tupleIJNSC_18OutRawArgumentInfoILm8ELm8ELl0EEENSC_17InRawArgumentInfoILm4ELm4ELl0EEEEEELm4ELm8ELb0EEESK_E7ProcessEPNS2_23CmifDomainClientMessageISB_E15ProxyBaseObjectENS2_24OutRawClientArgumentTypeILm8ELm8EEENS2_23InRawClientArgumentTypeILm4ELm4EvEEj = 0x0000000000059284 + __sdk_start;
_ZN2nn2sf4cmif6client6detail13CmifProxyImplINS_2am7service18IDisplayControllerENS2_15CmifDomainProxyINS0_4hipc6client38Hipc2ClientSessionManagedProxyKindBaseINSA_18Hipc2ProxyKindBaseILNS9_6detail11MessageTypeE4EEEEEEENS0_30MemoryResourceAllocationPolicyES7_E44_nn_sf_sync_ReleaseCallerAppletCaptureBufferEv = 0x00000000000bfbb8 + __sdk_start;
_ZN2nn2sf4cmif6client34CmifDomainProxyClientCoreProcessorINS0_4hipc6client38Hipc2ClientSessionManagedProxyKindBaseINS5_18Hipc2ProxyKindBaseILNS4_6detail11MessageTypeE4EEEEENS1_6detail14CoreMethodInfoINSt3__15tupleIJNSC_18OutRawArgumentInfoILm16ELm2ELl0EEEEEELm0ELm16ELb0EEESI_E7ProcessEPNS2_23CmifDomainClientMessageISB_E15ProxyBaseObjectENS2_24OutRawClientArgumentTypeILm16ELm2EEEj = 0x000000000005a1d0 + __sdk_start;
_ZN2nn3hid6system33StartAnalogStickManualCalibrationENS1_11UniquePadIdENS1_19AnalogStickPositionE = 0x0000000000210ae4 + __sdk_start;
_ZNKSt3__112basic_stringIcNS_11char_traitsIcEENS_9allocatorIcEEE5rfindEPKcmm = 0x0000000000340f88 + __sdk_start;
nvdcGetMode = 0x000000000023b404 + __sdk_start;
isprint_l = 0x000000000039ff70 + __sdk_start;
nnfontllFsTellFile = 0x00000000001fc968 + __sdk_start;
_ZTINSt3__111__money_getIwEE = 0x0000000000906728 + __sdk_start;
_ZN2nn4bcat6detail3ipc10InitializeEv = 0x00000000000cdd70 + __sdk_start;
_ZN2nn2sf4cmif6client6detail13CmifProxyImplINS_8irsensor21IIrSensorSystemServerENS0_4hipc6client18Hipc2ProxyKindBaseILNS7_6detail11MessageTypeE4EEENS0_25StatelessAllocationPolicyINS0_22ExpHeapStaticAllocatorILm16384ENS5_6detail20IrSensorSystemServerEEEEES6_E34_nn_sf_sync_EnableAppletToGetInputENS_6applet20AppletResourceUserIdEb = 0x0000000000223174 + __sdk_start;
memchr = 0x000000000039709c + __sdk_start;
_ZN2nn6applet17JoinLibraryAppletENS0_19LibraryAppletHandleE = 0x00000000000c9b48 + __sdk_start;
_ZN2nn2sf4cmif6client6detail13CmifProxyImplINS_2am7service22IGlobalStateControllerENS2_15CmifDomainProxyINS0_4hipc6client38Hipc2ClientSessionManagedProxyKindBaseINSA_18Hipc2ProxyKindBaseILNS9_6detail11MessageTypeE4EEEEEEENS0_30MemoryResourceAllocationPolicyES7_E30_nn_sf_sync_StartSleepSequenceEb = 0x00000000000c3090 + __sdk_start;
_ZN2nn2sf4cmif6client34CmifDomainProxyClientCoreProcessorINS0_4hipc6client38Hipc2ClientSessionManagedProxyKindBaseINS5_18Hipc2ProxyKindBaseILNS4_6detail11MessageTypeE4EEEEENS1_6detail14CoreMethodInfoINSt3__15tupleIJNSC_18BufferArgumentInfoILi0ELi25ELm769EEENSG_ILi1ELi25ELm769EEEEEELm0ELm0ELb0EEESJ_E7ProcessEPNS2_23CmifDomainClientMessageISB_E15ProxyBaseObjectENS2_24BufferClientArgumentTypeESQ_j = 0x00000000000547f8 + __sdk_start;
NvRmGpuChannelEventIdControl = 0x0000000000267ed8 + __sdk_start;
_ZTIN7android6ThreadE = 0x0000000000900840 + __sdk_start;
_ZNSt3__115__codecvt_utf16IDiLb0EED0Ev = 0x000000000033c1e8 + __sdk_start;
_ZTIN2nn2sf4cmif6client6detail9CmifProxyINS_7account24IBaasAccessTokenAccessorENS2_15CmifDomainProxyINS0_4hipc6client38Hipc2ClientSessionManagedProxyKindBaseINS9_18Hipc2ProxyKindBaseILNS8_6detail11MessageTypeE4EEEEEEENS0_30MemoryResourceAllocationPolicyEvEE = 0x00000000008d3e50 + __sdk_start;
_ZN2nn3hid6detail27ApplyNpadSystemCommonPolicyEv = 0x0000000000206c6c + __sdk_start;
_ZN2nn2sf4cmif6client6detail13CmifProxyImplINS_4nifm6detail15IGeneralServiceENS2_15CmifDomainProxyINS0_4hipc6client38Hipc2ClientSessionManagedProxyKindBaseINSA_18Hipc2ProxyKindBaseILNS9_6detail11MessageTypeE4EEEEEEENS0_25StatelessAllocationPolicyINS0_22ExpHeapStaticAllocatorILm16384ENS6_21ServiceProviderClient30CreateNifmUserServiceObjectTagEEEEES7_E17GetCmifBaseObjectEv = 0x00000000001456c8 + __sdk_start;
_ZN2nn2fs18g_AllReturnContextE = 0x0000000000926e38 + __sdk_start;
_ZN2nn5codec25GetOpusPacketChannelCountEPKhm = 0x000000000010d8e0 + __sdk_start;
_ZTINSt12experimental19bad_optional_accessE = 0x0000000000906dc0 + __sdk_start;
_ZN2nn2os6detail27InterruptEventImplByHorizon7TryWaitEv = 0x000000000008eff4 + __sdk_start;
_ZNSt3__113basic_istreamIcNS_11char_traitsIcEEE3getEPcl = 0x0000000000309abc + __sdk_start;
_ZN2nn3hid6system33BindConnectionTriggerTimeoutEventEPNS_2os15SystemEventTypeENS2_14EventClearModeE = 0x00000000002149e8 + __sdk_start;
_ZN2nn3web15ShowNewsPageArg20SetBootAsMediaPlayerEb = 0x00000000002389dc + __sdk_start;
_ZThn32_N2nn2sf4cmif6client6detail13CmifProxyImplINS_2am7service21ILibraryAppletCreatorENS2_15CmifDomainProxyINS0_4hipc6client38Hipc2ClientSessionManagedProxyKindBaseINSA_18Hipc2ProxyKindBaseILNS9_6detail11MessageTypeE4EEEEEEENS0_30MemoryResourceAllocationPolicyES7_E17GetCmifBaseObjectEv = 0x00000000000c27ac + __sdk_start;
_ZN2nn5image6detail4jpeg18jpeg_natural_orderE = 0x0000000000733fc0 + __sdk_start;
_ZN2nn3hid6detail8RingLifoINS0_6system18CaptureButtonStateELi16ENS1_13AtomicStorageIS4_EEED2Ev = 0x0000000000208e94 + __sdk_start;
_ZN2nn8settings6system18IsExternalRtcResetEv = 0x000000000015c0f0 + __sdk_start;
_ZN2nn2sf4cmif6client6detail13CmifProxyImplINS_3hid10IHidServerENS0_4hipc6client18Hipc2ProxyKindBaseILNS7_6detail11MessageTypeE4EEENS0_25StatelessAllocationPolicyINS0_22ExpHeapStaticAllocatorILm16384ENS5_6detail9HidServerEEEEES6_E36_nn_sf_sync_ReleaseXpadIdEventHandleEm = 0x0000000000219dc4 + __sdk_start;
_ZN2nn3hid6detail38GetSixAxisSensorHandleSixAxisSensorIdxERKNS0_19SixAxisSensorHandleE = 0x00000000002090ac + __sdk_start;
_ZN2nn6applet19BeginVrModeInternalEv = 0x00000000000cb738 + __sdk_start;
_ZN2nn3mii6detail12StoreDataRaw11SetEyeScaleEi = 0x00000000001a861c + __sdk_start;
_ZN2nn8settings7factory14GetGameCardKeyEPNS1_11GameCardKeyE = 0x000000000015b5a8 + __sdk_start;
_ZNK2nn3mii6detail16Ver3StoreDataRaw11GetEyebrowXEv = 0x00000000001ab588 + __sdk_start;
_ZN2nn4lmem6detail13FreeToExpHeapEPNS1_8HeapHeadEPv = 0x0000000000069ad0 + __sdk_start;
_ZN2nn2sf4hipc6client24Hipc2ClientCoreProcessorILNS1_6detail11MessageTypeE4ENS0_4cmif6detail14CoreMethodInfoINSt3__15tupleIJNS7_18OutRawArgumentInfoILm36ELm1ELl0EEEEEELm0ELm36ELb0EEESD_E7ProcessEPNS2_26Hipc2ClientProxyBaseObjectENS6_6client24OutRawClientArgumentTypeILm36ELm1EEEj = 0x0000000000167064 + __sdk_start;
_ZNSt20bad_array_new_lengthD1Ev = 0x0000000000375474 + __sdk_start;
_ZN2nn4bcat32UnregisterBackgroundDeliveryTaskENS_13ApplicationIdE = 0x00000000000cc4bc + __sdk_start;
_ZN2nn3hid6detail18SharedMemoryHolderC1EOS2_ = 0x0000000000208efc + __sdk_start;
_ZN2nn4diag6detail7PutImplERKNS0_11LogMetaDataEPKcm = 0x000000000004385c + __sdk_start;
_ZN2nn4edid6detail7ToAsciiEh = 0x00000000000402b8 + __sdk_start;
_ZTSN2nn7account3nas40IOAuthProcedureForNintendoAccountLinkageE = 0x000000000074d3b0 + __sdk_start;
_ZN2nn7account28DeleteSaveDataThumbnailImageERKNS0_3UidERKNS_13ApplicationIdE = 0x00000000000ac704 + __sdk_start;
_ZTSN2nn2sf4cmif6client16CmifProxyFactoryINS_3pcv19IArbitrationManagerENS0_4hipc6client18Hipc2ProxyKindBaseILNS6_6detail11MessageTypeE4EEENS0_30MemoryResourceAllocationPolicyEE13ServiceObjectE = 0x00000000007b15c0 + __sdk_start;
_ZTIN2nn2sf4hipc6server17IHipcObjectDomainE = 0x00000000008d0b90 + __sdk_start;
_ZN2nn2sf4cmif6client6detail13CmifProxyImplINS_3hid10IHidServerENS0_4hipc6client18Hipc2ProxyKindBaseILNS7_6detail11MessageTypeE4EEENS0_25StatelessAllocationPolicyINS0_22ExpHeapStaticAllocatorILm16384ENS5_6detail9HidServerEEEEES6_E32_nn_sf_sync_IsVibrationPermittedENS0_3OutIbvEE = 0x000000000021a620 + __sdk_start;
nvdcSetMode2 = 0x000000000023b8f8 + __sdk_start;
__multc3 = 0x000000000037d214 + __sdk_start;
_ZN2nn3web15ShowNewsPageArgC1Ev = 0x000000000023870c + __sdk_start;
_ZN2nn2sf4cmif6client32GetClientProcessorWithObjectBaseINS0_4hipc6client18Hipc2ProxyKindBaseILNS4_6detail11MessageTypeE4EEEE14ObjectAssignerINS0_25StatelessAllocationPolicyINS0_22ExpHeapStaticAllocatorILm16384ENS_8settings28IFirmwareDebugSettingsServerEEEEENS0_6detail23StatelessDummyAllocatorEE14AllocateObjectINSE_24ISettingsItemKeyIteratorEEEvi = 0x0000000000163e78 + __sdk_start;
_ZN2nn2fs11MountSdCardEPKc = 0x00000000000650b8 + __sdk_start;
_ZN2nn4lmem6detail23CheckExpHeapMemoryBlockEPKvPNS1_8HeapHeadEj = 0x0000000000069e74 + __sdk_start;
_ZN2nn3hid5debug37GetShiftAccelerometerCalibrationValueEPfS2_RKNS0_19SixAxisSensorHandleE = 0x000000000021536c + __sdk_start;
_ZNSt3__111__money_putIcE8__formatEPcRS2_S3_jPKcS5_RKNS_5ctypeIcEEbRKNS_10money_base7patternEccRKNS_12basic_stringIcNS_11char_traitsIcEENS_9allocatorIcEEEESL_SL_i = 0x000000000032ac48 + __sdk_start;
_ZThn32_N2nn2sf4cmif6client6detail13CmifProxyImplINS_4bcat6detail3ipc28IDeliveryCacheStorageServiceENS2_15CmifDomainProxyINS0_4hipc6client38Hipc2ClientSessionManagedProxyKindBaseINSB_18Hipc2ProxyKindBaseILNSA_6detail11MessageTypeE4EEEEEEENS0_30MemoryResourceAllocationPolicyES8_E17GetCmifBaseObjectEv = 0x00000000000cf6d0 + __sdk_start;
_ZTIN2nn7friends6detail3ipc20INotificationServiceE = 0x00000000008dbd30 + __sdk_start;
_ZN2nn4nifm6WakeUpEv = 0x0000000000148cc8 + __sdk_start;
_ZN2nn3i2c11OpenSessionEPNS0_10I2cSessionENS0_9I2cDeviceE = 0x00000000002f4f74 + __sdk_start;
_ZN2nn2sf6detail38ObjectImplFactoryWithStatefulAllocatorINS0_4cmif6client16CmifProxyFactoryINS_2am7service19IOverlayAppletProxyENS4_15CmifDomainProxyINS0_4hipc6client38Hipc2ClientSessionManagedProxyKindBaseINSB_18Hipc2ProxyKindBaseILNSA_6detail11MessageTypeE4EEEEEEENS0_30MemoryResourceAllocationPolicyEE13ServiceObjectESJ_E6Object7ReleaseEv = 0x00000000000c479c + __sdk_start;
atof = 0x00000000003bd704 + __sdk_start;
_ZNKSt3__18time_getIcNS_19istreambuf_iteratorIcNS_11char_traitsIcEEEEE10__get_yearERiRS4_S4_RjRKNS_5ctypeIcEE = 0x000000000031f188 + __sdk_start;
_ZN2nn2sf4cmif6client6detail13CmifProxyImplINS_3hid10IHidServerENS0_4hipc6client18Hipc2ProxyKindBaseILNS7_6detail11MessageTypeE4EEENS0_25StatelessAllocationPolicyINS0_22ExpHeapStaticAllocatorILm16384ENS5_6detail9HidServerEEEEES6_E40_nn_sf_sync_ActivateConsoleSixAxisSensorENS_6applet20AppletResourceUserIdE = 0x000000000021a678 + __sdk_start;
clock_getres = 0x000000000038a194 + __sdk_start;
_ZN2nn5audio21SetAudioDeviceMappingEPKcPKNS0_15AudioDeviceNameE = 0x0000000000174528 + __sdk_start;
_ZTVNSt3__111regex_errorE = 0x0000000000906dd8 + __sdk_start;
iscntrl = 0x000000000039fed0 + __sdk_start;
_ZN2nn7nlibsdk4heap10CachedHeap8FinalizeEv = 0x0000000000082da4 + __sdk_start;
_ZN2nn2os30GetWritableHandleOfSystemEventEPNS0_15SystemEventTypeE = 0x00000000000879e4 + __sdk_start;
_ZTSN2nn2sf4cmif6client16CmifProxyFactoryINS_2am7service22ILibraryAppletAccessorENS2_15CmifDomainProxyINS0_4hipc6client38Hipc2ClientSessionManagedProxyKindBaseINS9_18Hipc2ProxyKindBaseILNS8_6detail11MessageTypeE4EEEEEEENS0_30MemoryResourceAllocationPolicyEE13ServiceObjectE = 0x0000000000753520 + __sdk_start;
atoi = 0x00000000003bd70c + __sdk_start;
_ZN2nn2sf4cmif6client6detail13CmifProxyImplINS_7account6detail13IAsyncContextENS2_15CmifDomainProxyINS0_4hipc6client38Hipc2ClientSessionManagedProxyKindBaseINSA_18Hipc2ProxyKindBaseILNS9_6detail11MessageTypeE4EEEEEEENS0_25StatelessAllocationPolicyINS0_22ExpHeapStaticAllocatorILm2048ENS6_12ObjectHolder24ObjectHolderAllocatorTagEEEEES7_E17GetCmifBaseObjectEv = 0x00000000000aed00 + __sdk_start;
_ZN7android10AllocationC1ERKNS_2spINS_12MemoryDealerEEERKNS1_INS_11IMemoryHeapEEElm = 0x000000000027c6f0 + __sdk_start;
atol = 0x00000000003bd78c + __sdk_start;
_ZN2nn5codec6detail18OpusPacketInternal17SetHeaderInPacketEPhRKNS2_6HeaderE = 0x000000000010d944 + __sdk_start;
_ZTIN2nn2sf4cmif6client16CmifProxyFactoryINS_6capsrv2sf29IScreenShotApplicationServiceENS0_4hipc6client18Hipc2ProxyKindBaseILNS7_6detail11MessageTypeE4EEENS0_30MemoryResourceAllocationPolicyEE13ServiceObjectE = 0x00000000008e88b0 + __sdk_start;
_ZN2nn2fs3fsa11IFileSystem7DoFlushEv = 0x000000000004ae1c + __sdk_start;
_ZTv0_n24_N7android9BpRefBaseD0Ev = 0x0000000000276950 + __sdk_start;
_ZN2nn3svc7aarch644lp6421TerminateDebugProcessENS0_6HandleE = 0x00000000000a9fe4 + __sdk_start;
surround_analysis = 0x0000000000109594 + __sdk_start;
_ZN2nn3ngc6detail11InputStream4SkipEm = 0x000000000013dfb0 + __sdk_start;
_init_libc0 = 0x0000000000386e60 + __sdk_start;
_ZN2nn5audio6server24AudioRendererManagerImpl17AudioRendererImpl13GetSampleRateENS_2sf3OutIivEE = 0x00000000001887f8 + __sdk_start;
_init_libc1 = 0x0000000000386e68 + __sdk_start;
sprintf = 0x00000000003bbb20 + __sdk_start;
_init_libc2 = 0x0000000000386e6c + __sdk_start;
_ZN2nn2os6detail24TryWaitInterProcessEventEPNS1_21InterProcessEventTypeE = 0x000000000008a410 + __sdk_start;
_ZN2nn2fs24HierarchicalRomFileTable15CreateDirectoryEPiPKcRKNS0_16RomDirectoryInfoE = 0x0000000000045f8c + __sdk_start;
_ZNK2nn3ngc6detail3Set16GetBitVectorSizeEv = 0x0000000000140724 + __sdk_start;
_ZN2nn6socket8resolver20CreateResolverByHipcERNS_2sf13SharedPointerINS1_9IResolverEEE = 0x00000000000a6d28 + __sdk_start;
_ZN2nn2sf4impl6detail17ImplTemplateBaseTINS_5audio6detail21IAudioRendererManagerES6_NS0_6detail27UnmanagedEmplacedImplHolderINS4_6server24AudioRendererManagerImplEEESB_S6_E29_nn_sf_sync_GetWorkBufferSizeENS0_3OutIlvEERKNS5_30AudioRendererParameterInternalE = 0x0000000000193f2c + __sdk_start;
_ZN2nn2sf4cmif6client6detail13CmifProxyImplINS_7account19IAccountServiceBaseENS2_15CmifDomainProxyINS0_4hipc6client38Hipc2ClientSessionManagedProxyKindBaseINS9_18Hipc2ProxyKindBaseILNS8_6detail11MessageTypeE4EEEEEEENS0_25StatelessAllocationPolicyINS0_22ExpHeapStaticAllocatorILm2048ENS5_6detail12ObjectHolder24ObjectHolderAllocatorTagEEEEENS5_31IAccountServiceForAdministratorEE43_nn_sf_sync_TrySelectUserWithoutInteractionENS0_3OutINS5_3UidEvEEb = 0x00000000000b1fa0 + __sdk_start;
_ZN2nn7friends6detail20AsyncContextInternal14CreateInstanceEPPS2_PNS1_3ipc14IFriendServiceEPFPvmEPFvS8_mE = 0x0000000000118e40 + __sdk_start;
_ZN2nn3ssl10Connection9SetOptionENS1_10OptionTypeEb = 0x0000000000169eb0 + __sdk_start;
silk_control_SNR = 0x00000000000ecc04 + __sdk_start;
_ZNSt3__116__narrow_to_utf8ILm32EED1Ev = 0x0000000000312764 + __sdk_start;
_ZN2nn2os17FinalizeSemaphoreEPNS0_13SemaphoreTypeE = 0x0000000000088c04 + __sdk_start;
_ZN2nn5audio21ContainsAudioInBufferEPKNS0_7AudioInEPKNS0_13AudioInBufferE = 0x00000000001863d8 + __sdk_start;
_ZNKSt3__118__time_get_storageIwE15__do_date_orderEv = 0x00000000003236b4 + __sdk_start;
_ZN2nn5audio6server13CommandBuffer18GenerateMixCommandEiifj = 0x000000000018a464 + __sdk_start;
_ZN7android21SurfaceComposerClientC1Ev = 0x00000000002a5a88 + __sdk_start;
NvRmSyncClose = 0x00000000002519ac + __sdk_start;
_ZN2nn5image6detail4jpeg13jpeg_idct_4x2EPNS2_22jpeg_decompress_structEPNS2_19jpeg_component_infoEPsPPhi = 0x00000000000284f8 + __sdk_start;
_ZN2nn4htcs10InitializeEPFPvmEPFvS1_mE = 0x0000000000126370 + __sdk_start;
_ZN2nn2os6detail27TransferMemoryImplByHorizon5CloseEj = 0x000000000008e2b4 + __sdk_start;
_ZN2nn3hid6system32EnableAssigningSingleOnSlSrPressEv = 0x0000000000213f1c + __sdk_start;
nnosYieldThread = 0x000000000008a048 + __sdk_start;
nnosTryPeekMessageQueue = 0x000000000008a1d0 + __sdk_start;
_ZN2nn5audio15PerformanceInfoD1Ev = 0x0000000000177b20 + __sdk_start;
_ZN2nn4bcat21DeliveryCacheProgressC2Ev = 0x00000000000cd340 + __sdk_start;
_ZNKSt3__15ctypeIwE10do_toupperEPwPKw = 0x00000000003324d4 + __sdk_start;
fsg_ReduceMatrix = 0x00000000001e7fa4 + __sdk_start;
_ZN2nn5audio19OpenDefaultAudioOutEPNS0_8AudioOutERKNS0_17AudioOutParameterE = 0x0000000000184e20 + __sdk_start;
_ZNKSt3__112ctype_bynameIwE8do_widenEPKcS3_Pw = 0x0000000000333bf4 + __sdk_start;
__p1evll = 0x00000000003ad880 + __sdk_start;
_ZNKSt3__111__libcpp_db15__find_c_from_iEPv = 0x000000000030325c + __sdk_start;
_ZTIN2nn5codec19HardwareOpusDecoderE = 0x00000000008dacc0 + __sdk_start;
_ZN2nn3svc7aarch644lp6426SetProcessMemoryPermissionENS0_6HandleEmmNS0_16MemoryPermissionE = 0x00000000000aa174 + __sdk_start;
_ZTSN2nn2sf4cmif6client16CmifProxyFactoryINS_7account4baas22IManagerForApplicationENS2_15CmifDomainProxyINS0_4hipc6client38Hipc2ClientSessionManagedProxyKindBaseINS9_18Hipc2ProxyKindBaseILNS8_6detail11MessageTypeE4EEEEEEENS0_25StatelessAllocationPolicyINS0_22ExpHeapStaticAllocatorILm2048ENS4_6detail12ObjectHolder24ObjectHolderAllocatorTagEEEEEE13ServiceObjectE = 0x0000000000747b60 + __sdk_start;
_ZN2nn6crypto6detail11CcmModeImplINS0_12AesEncryptorILm16EEEE11GenerateMacEv = 0x00000000000010d8 + __sdk_start;
_ZN2nn2sf4cmif6client6detail13CmifProxyImplINS_4nifm6detail15IGeneralServiceENS2_15CmifDomainProxyINS0_4hipc6client38Hipc2ClientSessionManagedProxyKindBaseINSA_18Hipc2ProxyKindBaseILNS9_6detail11MessageTypeE4EEEEEEENS0_25StatelessAllocationPolicyINS0_22ExpHeapStaticAllocatorILm16384ENS6_21ServiceProviderClient30CreateNifmUserServiceObjectTagEEEEES7_E33_nn_sf_sync_GetCurrentAccessPointENS0_3OutINS6_2sf15AccessPointDataEvEE = 0x000000000014535c + __sdk_start;
_ZN2nn3svc7aarch644lp6417BreakDebugProcessENS0_6HandleE = 0x00000000000a9fdc + __sdk_start;
_ZN2nn6socket8resolver33WaitForAllResolverCallsToCompleteEv = 0x00000000000a5678 + __sdk_start;
strncat = 0x00000000003bfdfc + __sdk_start;
_ZN2nn3nsd6detail3ipc13GetNasApiFqdnEPNS0_4FqdnE = 0x000000000014c4a0 + __sdk_start;
FSS_realloc = 0x00000000001fc5d8 + __sdk_start;
_ZN2nn3pcv15SetVoltageValueENS0_11PowerDomainEi = 0x00000000002f6c50 + __sdk_start;
_ZNSt3__121__horizon_thread_data9get_stackEv = 0x0000000000306aac + __sdk_start;
_ZN7android11BufferQueue21ProxyConsumerListenerC1ERKNS_2wpINS_16ConsumerListenerEEE = 0x000000000028c0fc + __sdk_start;
_ZNK2nn4bcat13DirectoryName7IsValidEv = 0x00000000000cb9a0 + __sdk_start;
_ZN2nn2sf4cmif6client34CmifDomainProxyClientCoreProcessorINS0_4hipc6client38Hipc2ClientSessionManagedProxyKindBaseINS5_18Hipc2ProxyKindBaseILNS4_6detail11MessageTypeE4EEEEENS1_6detail14CoreMethodInfoINSt3__15tupleIJNSC_17InRawArgumentInfoILm16ELm8ELl0EEENSC_18BufferArgumentInfoILi0ELi9ELm0EEENSG_ILm8ELm8ELl16EEENSI_ILi1ELi5ELm0EEEEEELm24ELm0ELb0EEESM_E7ProcessEPNS2_23CmifDomainClientMessageISB_E15ProxyBaseObjectENS2_23InRawClientArgumentTypeILm16ELm8EvEENS2_24BufferClientArgumentTypeENST_ILm8ELm8EvEESV_j = 0x0000000000159d30 + __sdk_start;
_ZN2nn2sf4impl6detail17ImplTemplateBaseTINS_5audio6detail14IAudioRendererES6_NS0_6detail18EmplacedImplHolderINS4_6server24AudioRendererManagerImpl17AudioRendererImplEEESC_S6_E33_nn_sf_sync_GetRenderingTimeLimitENS0_3OutIivEE = 0x0000000000189334 + __sdk_start;
ec_encode_bin = 0x00000000000de6a8 + __sdk_start;
_ZN2nn6fontll6detail38PickKernXValuesFromGlyphPairAdjustmentEPiPNS0_15OtfKerningTableEPKvtPPKh = 0x00000000001c102c + __sdk_start;
_ZN2nn2sf4cmif6client6detail13CmifProxyImplIN3nns9hosbinder16IHOSBinderDriverENS0_4hipc6client18Hipc2ProxyKindBaseILNS8_6detail11MessageTypeE4EEENS0_30MemoryResourceAllocationPolicyES7_E17GetCmifBaseObjectEv = 0x00000000001b8ea8 + __sdk_start;
_ZNSt3__17num_putIwNS_19ostreambuf_iteratorIwNS_11char_traitsIwEEEEE2idE = 0x0000000000a0a080 + __sdk_start;
_ZN2nn3nfp15WriteBackupDataEPKvm = 0x000000000012e030 + __sdk_start;
_ZN2nn3mii20GetShowMiiEditResultENS_6applet13StorageHandleE = 0x00000000001b3424 + __sdk_start;
_ZN2nn2os11GetTlsValueENS0_7TlsSlotE = 0x0000000000089414 + __sdk_start;
_ZN2nn4edid6cea86120VisitDetailedTimingsEPKhmPFbPKNS0_15DisplayModeInfoEPKNS0_17DisplayTimingInfoEPKNS0_13ImageSizeInfoEPvESD_ = 0x00000000000416a8 + __sdk_start;
_ZTSN2nn2sf4impl6detail17ImplTemplateBaseTINS_5audio6detail12IAudioDeviceES6_NS0_6detail18EmplacedImplHolderINS4_6server24AudioRendererManagerImpl15AudioDeviceImplEEESC_S6_EE = 0x000000000077ba40 + __sdk_start;
_ZN2nn4nifm6detail13RequestClient24RegisterSocketDescriptorEi = 0x0000000000144304 + __sdk_start;
nextafter = 0x00000000003aae68 + __sdk_start;
FS_set_bold_pct = 0x00000000001c7478 + __sdk_start;
_ZNSt3__118condition_variableD1Ev = 0x0000000000302e34 + __sdk_start;
nnsocketGetAddrInfoWithoutNsdResolveCancel = 0x000000000009a860 + __sdk_start;
_ZN2nn5image6detail4jpeg16jpeg_set_qualityEPNS2_20jpeg_compress_structEib = 0x0000000000016bfc + __sdk_start;
_ZNK2nn7friends18FriendDetailedInfo19GetMiiImageUrlParamEv = 0x0000000000116a78 + __sdk_start;
_ZN2nn2sf4cmif6client6detail13CmifProxyImplINS_4pctl6detail3ipc23IParentalControlServiceENS2_15CmifDomainProxyINS0_4hipc6client38Hipc2ClientSessionManagedProxyKindBaseINSB_18Hipc2ProxyKindBaseILNSA_6detail11MessageTypeE4EEEEEEENS0_30MemoryResourceAllocationPolicyES8_E30_nn_sf_sync_IsPlayTimerEnabledENS0_3OutIbvEE = 0x000000000015312c + __sdk_start;
_ZN2nn3ssl21GetSslResultFromValueEPNS_6ResultEPKcj = 0x000000000016aab8 + __sdk_start;
_ZN2nn5audio6common10EdgeMatrix7ConnectEii = 0x000000000017a8b0 + __sdk_start;
_ZNSt3__19__num_putIwE21__widen_and_group_intEPcS2_S2_PwRS3_S4_RKNS_6localeE = 0x000000000031cc9c + __sdk_start;
__lshrdi3 = 0x0000000000381f00 + __sdk_start;
_ZNSt3__113basic_ostreamIwNS_11char_traitsIwEEED1Ev = 0x000000000030f714 + __sdk_start;
_ZTSN2nn2sf4cmif6client16CmifProxyFactoryINS_2am7service22IGlobalStateControllerENS2_15CmifDomainProxyINS0_4hipc6client38Hipc2ClientSessionManagedProxyKindBaseINS9_18Hipc2ProxyKindBaseILNS8_6detail11MessageTypeE4EEEEEEENS0_30MemoryResourceAllocationPolicyEE13ServiceObjectE = 0x0000000000755220 + __sdk_start;
_ZN7android10VectorImplC2ERKS0_ = 0x00000000002b2a78 + __sdk_start;
NvRmGpuDeviceOpen = 0x00000000002677d4 + __sdk_start;
_ZN2nn2sf6detail38ObjectImplFactoryWithStatefulAllocatorINS0_4cmif6client16CmifProxyFactoryINS_2am7service17IOverlayFunctionsENS4_15CmifDomainProxyINS0_4hipc6client38Hipc2ClientSessionManagedProxyKindBaseINSB_18Hipc2ProxyKindBaseILNSA_6detail11MessageTypeE4EEEEEEENS0_30MemoryResourceAllocationPolicyEE13ServiceObjectESJ_E6Object12AddReferenceEv = 0x00000000000c4df4 + __sdk_start;
nnmem_nlib_semaphore_trywait_for = 0x000000000007aa44 + __sdk_start;
_ZN2nn3svc7aarch644lp6413ConnectToPortEPNS0_6HandleES3_ = 0x00000000000aa15c + __sdk_start;
_ZN2nn8settings6detail13SetColorSetIdEi = 0x0000000000161140 + __sdk_start;
casinhf = 0x00000000003982b8 + __sdk_start;
_ZN7android9SingletonINS_15ComposerServiceEE9sInstanceE = 0x00000000009f1100 + __sdk_start;
_ZNK2nn3mii6detail12StoreDataRaw9GetGenderEv = 0x00000000001a80a0 + __sdk_start;
_ZN2nn3hid6detail32SetSixAxisSensorFusionParametersERKNS0_19SixAxisSensorHandleEff = 0x0000000000204d74 + __sdk_start;
_ZTIN2nn2am7service16IStorageAccessorE = 0x00000000008d7b20 + __sdk_start;
_ZTIN2nn2sf4cmif6client23CmifDomainClientMessageINS0_4hipc6client38Hipc2ClientSessionManagedProxyKindBaseINS5_18Hipc2ProxyKindBaseILNS4_6detail11MessageTypeE4EEEEEE15ProxyBaseObjectE = 0x00000000008ce390 + __sdk_start;
_ZN2nn3nfc6client25GetUserInterfaceForCommonEv = 0x000000000012b70c + __sdk_start;
_ZN7android12MemoryDealer10deallocateEm = 0x000000000027ce1c + __sdk_start;
casinhl = 0x00000000003982e8 + __sdk_start;
_ZNKSt3__110error_code7messageEv = 0x0000000000348840 + __sdk_start;
_ZN2nn3hid6detail12FinalizeXpadERKNS0_9JoyXpadIdE = 0x000000000020073c + __sdk_start;
_ZN2nn2sf4cmif6client6detail13CmifProxyImplINS_7account4baas14IAdministratorENS2_15CmifDomainProxyINS0_4hipc6client38Hipc2ClientSessionManagedProxyKindBaseINSA_18Hipc2ProxyKindBaseILNS9_6detail11MessageTypeE4EEEEEEENS0_25StatelessAllocationPolicyINS0_22ExpHeapStaticAllocatorILm2048ENS5_6detail12ObjectHolder24ObjectHolderAllocatorTagEEEEES7_E64_nn_sf_sync_CreateProcedureToUpdateLinkageStateOfNintendoAccountENS0_3OutINS0_13SharedPointerINS5_4http15IOAuthProcedureEEEvEE = 0x00000000000b3e48 + __sdk_start;
_ZN2nn7nlibsdk4heap14TlsHeapCentralC1Ev = 0x000000000007d464 + __sdk_start;
_ZN2nn2sf4cmif6client6detail13CmifProxyImplINS_5visrv2sf26IApplicationDisplayServiceENS0_4hipc6client18Hipc2ProxyKindBaseILNS8_6detail11MessageTypeE4EEENS0_30MemoryResourceAllocationPolicyES7_E40_nn_sf_sync_GetIndirectLayerImageCropMapENS0_3OutIlvEESH_RKNS0_9OutBufferEllffffmNS_6applet20AppletResourceUserIdE = 0x00000000001b8b74 + __sdk_start;
__multf3 = 0x0000000000382a84 + __sdk_start;
_ZTIN10__cxxabiv117__class_type_infoE = 0x0000000000907e40 + __sdk_start;
main = 0x00000000003c3e88 + __sdk_start;
_ZN2nn4util10BitFlagSetILi256ENS_3hid11KeyboardKeyEE4FlagILi82EE4MaskE = 0x00000000007904d8 + __sdk_start;
_ZNK2nn6result6detail19ResultAutoConvertercvT_INS_3ldn5StateEEEv = 0x0000000000231b1c + __sdk_start;
_ZN2nn2sf4cmif6client6detail13CmifProxyImplINS_8settings21ISystemSettingsServerENS0_4hipc6client18Hipc2ProxyKindBaseILNS7_6detail11MessageTypeE4EEENS0_25StatelessAllocationPolicyINS0_22ExpHeapStaticAllocatorILm16384ES6_EEEES6_E26_nn_sf_sync_GetMiiAuthorIdENS0_3OutINS_4util4UuidEvEE = 0x000000000016553c + __sdk_start;
_ZN2nn2sf4cmif6client6detail13CmifProxyImplINS_8settings22IFactorySettingsServerENS0_4hipc6client18Hipc2ProxyKindBaseILNS7_6detail11MessageTypeE4EEENS0_25StatelessAllocationPolicyINS0_22ExpHeapStaticAllocatorILm16384ES6_EEEES6_E26_nn_sf_sync_GetGameCardKeyENS0_3OutINS5_7factory11GameCardKeyEvEE = 0x0000000000162468 + __sdk_start;
_ZNSt3__14stoiERKNS_12basic_stringIwNS_11char_traitsIwEENS_9allocatorIwEEEEPmi = 0x0000000000343bb0 + __sdk_start;
_ZNSt3__18ios_base7failureD0Ev = 0x000000000031194c + __sdk_start;
_ZN2nn4lmem6detail15FreeToFrameHeapEPNS1_8HeapHeadENS0_8FreeModeE = 0x000000000006a3d8 + __sdk_start;
_ZNSt3__18numpunctIcEC1Em = 0x00000000003379bc + __sdk_start;
nnsocketShutdown = 0x000000000009a730 + __sdk_start;
_ZN2nn2sf4cmif6client6detail13CmifProxyImplINS_3hid15IHidDebugServerENS0_4hipc6client18Hipc2ProxyKindBaseILNS7_6detail11MessageTypeE4EEENS0_25StatelessAllocationPolicyINS0_22ExpHeapStaticAllocatorILm16384ENS5_6detail14HidDebugServerEEEEES6_E41_nn_sf_sync_UnsetHomeButtonAutoPilotStateEv = 0x0000000000218d24 + __sdk_start;
_ZNK7android7String810getUtf32AtEmPm = 0x00000000002b0ddc + __sdk_start;
_ZN7android14IPCThreadState15getNativeHandleERNS_8BpBinderEjRjRb = 0x00000000002851e4 + __sdk_start;
_ZN2nn5audio12AddDelayImplINS0_10SubMixTypeEEENS_6ResultEPNS0_19AudioRendererConfigEPNS0_9DelayTypeEPvmPT_NS_8TimeSpanEi = 0x00000000001749e8 + __sdk_start;
_ZTISt8bad_cast = 0x0000000000908c90 + __sdk_start;
scalbf = 0x00000000003abeb4 + __sdk_start;
strcspn = 0x00000000003bf92c + __sdk_start;
_ZTTNSt3__113basic_istreamIwNS_11char_traitsIwEEEE = 0x0000000000903de8 + __sdk_start;
_ZN2nn3hid19GetXpadPlayerNumberERKNS0_9JoyXpadIdE = 0x0000000000211acc + __sdk_start;
_ZN2nn3ssl10Connection18GetVerifyCertErrorEPNS_6ResultE = 0x0000000000169c3c + __sdk_start;
_ZN2nn5audio6server16CommandGenerator22GenerateSubMixCommandsEv = 0x000000000018c998 + __sdk_start;
_ZN2nn4util12GenerateUuidEv = 0x00000000000aa280 + __sdk_start;
_ZN2nn7nlibsdk4heap12TlsHeapCache15ReleaseAllCacheEv = 0x000000000007b814 + __sdk_start;
_ZNKSt3__17num_getIwNS_19istreambuf_iteratorIwNS_11char_traitsIwEEEEE17__do_get_unsignedImEES4_S4_S4_RNS_8ios_baseERjRT_ = 0x0000000000317c10 + __sdk_start;
scalbn = 0x00000000003abfc0 + __sdk_start;
_ZTIN2nn2sf4cmif6client6detail13CmifProxyImplINS_7account4baas22IManagerForApplicationENS2_15CmifDomainProxyINS0_4hipc6client38Hipc2ClientSessionManagedProxyKindBaseINSA_18Hipc2ProxyKindBaseILNS9_6detail11MessageTypeE4EEEEEEENS0_25StatelessAllocationPolicyINS0_22ExpHeapStaticAllocatorILm2048ENS5_6detail12ObjectHolder24ObjectHolderAllocatorTagEEEEES7_EE = 0x00000000008d1e40 + __sdk_start;
_ZNK2nn3mii6detail11CoreDataRaw8GetMoleXEv = 0x00000000001a4da0 + __sdk_start;
_ZN2nn2sf4cmif6client6detail13CmifProxyImplINS_3mii6detail16IDatabaseServiceENS2_15CmifDomainProxyINS0_4hipc6client38Hipc2ClientSessionManagedProxyKindBaseINSA_18Hipc2ProxyKindBaseILNS9_6detail11MessageTypeE4EEEEEEENS0_25StatelessAllocationPolicyINS0_22ExpHeapStaticAllocatorILm16384ENS6_21ServiceProviderClient30CreateNifmUserServiceObjectTagEEEEES7_E24_nn_sf_sync_BuildDefaultENS0_3OutINS5_8CharInfoEvEEi = 0x00000000001b1e9c + __sdk_start;
_ZTSN2nn2sf4cmif6client16CmifProxyFactoryINS_2am7service17IWindowControllerENS2_15CmifDomainProxyINS0_4hipc6client38Hipc2ClientSessionManagedProxyKindBaseINS9_18Hipc2ProxyKindBaseILNS8_6detail11MessageTypeE4EEEEEEENS0_30MemoryResourceAllocationPolicyEE13ServiceObjectE = 0x0000000000750ee0 + __sdk_start;
_ZN2nn3svc7aarch644lp6429ReplyAndReceiveWithUserBufferEPimmPKNS0_6HandleEiS4_l = 0x00000000000aa0e4 + __sdk_start;
_ZN2nn2sf6detail39ObjectImplFactoryWithStatelessAllocatorINS0_4cmif6client16CmifProxyFactoryINS_8irsensor21IIrSensorSystemServerENS0_4hipc6client18Hipc2ProxyKindBaseILNS8_6detail11MessageTypeE4EEENS0_25StatelessAllocationPolicyINS0_22ExpHeapStaticAllocatorILm16384ENS6_6detail20IrSensorSystemServerEEEEEE13ServiceObjectESJ_E6Object7ReleaseEv = 0x0000000000223048 + __sdk_start;
_ZN2nn5audio14FdnDelayLenMaxE = 0x00000000008e1854 + __sdk_start;
_ZN2nn2sf4hipc6client24Hipc2ClientCoreProcessorILNS1_6detail11MessageTypeE4ENS0_4cmif6detail14CoreMethodInfoINSt3__15tupleIJNS7_18OutRawArgumentInfoILm1ELm1ELl0EEENS7_17InRawArgumentInfoILm8ELm8ELl0EEEEEELm8ELm1ELb0EEESF_E7ProcessEPNS2_26Hipc2ClientProxyBaseObjectENS6_6client24OutRawClientArgumentTypeILm1ELm1EEENSK_23InRawClientArgumentTypeILm8ELm8EvEEj = 0x000000000021d63c + __sdk_start;
NvRmMemReserve = 0x000000000025198c + __sdk_start;
_ZN2nn3hid5debug21SetXpadAutoPilotStateERKNS0_11BasicXpadIdERKNS1_23BasicXpadAutoPilotStateE = 0x0000000000218734 + __sdk_start;
_ZN2nn2sf4hipc6server24HipcServerSessionManager15ProcessMessage2EPNS2_21HipcServerSessionBaseEPvmS6_m = 0x00000000000961c0 + __sdk_start;
_ZN2nn2lm6detail20LogPacketTransmitter22PushLogPacketDropCountEm = 0x0000000000129744 + __sdk_start;
_ZN2nn3hid28GetControlPadRestrictionTypeENS_4util10BitFlagSetILi32ENS0_12NpadStyleTagEEE = 0x0000000000213ab8 + __sdk_start;
nvdcScrncaptDupFBuf = 0x000000000023bcf0 + __sdk_start;
_ZN2nn2ec6detail40ShowShopSecretApplicationInformationImplENS1_10LaunchModeENS_13ApplicationIdERKNS_7account3UidENS0_8SourceIdE = 0x000000000019e36c + __sdk_start;
memcmp = 0x0000000000386700 + __sdk_start;
_ZN7android18GraphicBufferAllocD1Ev = 0x0000000000294d00 + __sdk_start;
_ZN2nn2sf4cmif6client6detail13CmifProxyImplINS_5visrv2sf19IManagerRootServiceENS0_4hipc6client18Hipc2ProxyKindBaseILNS8_6detail11MessageTypeE4EEENS0_30MemoryResourceAllocationPolicyES7_E29_nn_sf_sync_GetDisplayServiceENS0_3OutINS0_13SharedPointerINS6_26IApplicationDisplayServiceEEEvEEj = 0x00000000001b82d4 + __sdk_start;
_ZN2nn2fs11FileStorage7SetSizeEl = 0x00000000000495b4 + __sdk_start;
_ZN2nn3hid6detail14ListUniquePadsEPiPNS0_6system11UniquePadIdEi = 0x000000000020e560 + __sdk_start;
_ZN2nn2fs14ExtendSaveDataERKNS_7account3UidEll = 0x0000000000120914 + __sdk_start;
_ZNK2nn7friends16UserPresenceView24GetLastPlayedApplicationEv = 0x000000000011756c + __sdk_start;
_ZNSt3__16locale2id5__getEv = 0x0000000000331480 + __sdk_start;
_ZNSt3__117__assoc_sub_state4waitEv = 0x000000000030562c + __sdk_start;
_ZN7android10MemoryBaseC1ERKNS_2spINS_11IMemoryHeapEEElm = 0x000000000027d420 + __sdk_start;
_ZN2nn5audio22ProcessResamplerBufferEPNS0_13ResamplerTypeEPiPsmPKsi = 0x000000000017cdcc + __sdk_start;
_ZN2nn4util10BitFlagSetILi256ENS_3hid11KeyboardKeyEE4FlagILi77EE4MaskE = 0x0000000000790438 + __sdk_start;
_ZN2nn4time14GetSpanBetweenEPlRKNS0_20SteadyClockTimePointES4_ = 0x000000000016d7a8 + __sdk_start;
_ZNSt3__18ios_base4InitD1Ev = 0x0000000000312134 + __sdk_start;
_ZNKSt3__120__codecvt_utf8_utf16IDsE6do_outER11__mbstate_tPKDsS5_RS5_PcS7_RS7_ = 0x00000000003376e4 + __sdk_start;
_ZN2nn5prepo6detail7msgpack20WriteSignedInteger16EPNS2_17OutputStreamParamEs = 0x00000000001568bc + __sdk_start;
_ZNK2nn4bcat21DeliveryCacheProgress13GetWholeTotalEv = 0x00000000000cd5f0 + __sdk_start;
_ZN2nn2sf4cmif6client6detail13CmifProxyImplINS_2am7service15IDebugFunctionsENS2_15CmifDomainProxyINS0_4hipc6client38Hipc2ClientSessionManagedProxyKindBaseINSA_18Hipc2ProxyKindBaseILNS9_6detail11MessageTypeE4EEEEEEENS0_30MemoryResourceAllocationPolicyES7_E12GetProxyInfoEv = 0x00000000000c05a0 + __sdk_start;
_ZN2nn2sf4cmif6client6detail13CmifProxyImplINS_7account4http15IOAuthProcedureENS2_15CmifDomainProxyINS0_4hipc6client38Hipc2ClientSessionManagedProxyKindBaseINSA_18Hipc2ProxyKindBaseILNS9_6detail11MessageTypeE4EEEEEEENS0_25StatelessAllocationPolicyINS0_22ExpHeapStaticAllocatorILm2048ENS5_6detail12ObjectHolder24ObjectHolderAllocatorTagEEEEES7_E12GetProxyInfoEv = 0x00000000000b51a8 + __sdk_start;
__unordsf2 = 0x000000000037eb24 + __sdk_start;
_ZTVN2nn3hid6detail15NpadJoyDualLifoE = 0x00000000008e6168 + __sdk_start;
_ZN2nn2sf4cmif6client6detail13CmifProxyImplINS_3fgm2sf8IRequestENS2_15CmifDomainProxyINS0_4hipc6client38Hipc2ClientSessionManagedProxyKindBaseINSA_18Hipc2ProxyKindBaseILNS9_6detail11MessageTypeE4EEEEEEENS0_30MemoryResourceAllocationPolicyES7_E17GetCmifBaseObjectEv = 0x00000000002f2e9c + __sdk_start;
_ZN2nn5image6detail4jpeg22jpeg_resync_to_restartEPNS2_22jpeg_decompress_structEi = 0x000000000001f888 + __sdk_start;
_ZN2nn4gpio16SetInterruptModeEPNS0_14GpioPadSessionENS0_13InterruptModeE = 0x00000000002f3fb0 + __sdk_start;
rintf = 0x00000000003aba74 + __sdk_start;
nnsocketGetHErrno = 0x000000000009a890 + __sdk_start;
__subvsi3 = 0x0000000000383ba4 + __sdk_start;
nnosGetSystemTick = 0x000000000008a244 + __sdk_start;
_ZNSt3__114basic_iostreamIcNS_11char_traitsIcEEEC1EPNS_15basic_streambufIcS2_EE = 0x0000000000311674 + __sdk_start;
_ZN2nn3mii6detail11CoreDataRaw10SetDefaultEv = 0x00000000001a4328 + __sdk_start;
NvOsDebugNprintf = 0x0000000000245e74 + __sdk_start;
_ZTSN2nn2sf6detail39ObjectImplFactoryWithStatelessAllocatorINS0_4cmif6client16CmifProxyFactoryINS_7timesrv6detail7service14IStaticServiceENS4_15CmifDomainProxyINS0_4hipc6client38Hipc2ClientSessionManagedProxyKindBaseINSC_18Hipc2ProxyKindBaseILNSB_6detail11MessageTypeE4EEEEEEENS0_25StatelessAllocationPolicyINS0_22ExpHeapStaticAllocatorILm16384ENS_4time6detail7service21ServiceProviderClient30CreateTimeUserServiceObjectTagEEEEEE13ServiceObjectESS_E6ObjectE = 0x00000000007717c0 + __sdk_start;
rintl = 0x00000000003abad0 + __sdk_start;
_ZTISt16invalid_argument = 0x0000000000908a90 + __sdk_start;
_ZN2nn4lmem6detail16DestroyFrameHeapEPNS1_8HeapHeadE = 0x000000000006a338 + __sdk_start;
_ZN2nn5image6detail17ExtractJpegHeaderEPNS1_10JpegHeaderEPKvmi = 0x000000000002d3e0 + __sdk_start;
_ZNKSt3__18time_getIwNS_19istreambuf_iteratorIwNS_11char_traitsIwEEEEE12__get_secondERiRS4_S4_RjRKNS_5ctypeIwEE = 0x0000000000321998 + __sdk_start;
_ZN2nn5codec6detail20SetBandwidthInternalEP11OpusEncoderNS0_13OpusBandwidthE = 0x000000000010dcbc + __sdk_start;
_ZN2nn4diag6detail10VAbortImplEPKcS3_S3_iPKNS_6ResultEPKNS_2os17UserExceptionInfoES3_St9__va_list = 0x0000000000042ff8 + __sdk_start;
_ZN2nn3hid6detail21InitializeTouchScreenEv = 0x000000000020a130 + __sdk_start;
_ZN2nn7account49ExternalNetworkServiceAccountIntroducingProcedureC2EPNS0_3nas29IOAuthProcedureForExternalNsaE = 0x00000000000b9d30 + __sdk_start;
_ZN2nn5audio15CpuProfilerStopEv = 0x0000000000184d94 + __sdk_start;
_ZTINSt3__115__codecvt_utf16IwLb0EEE = 0x0000000000905b40 + __sdk_start;
_ZN22nerd_gillette_internal5otete7jaimev29SerializeINS0_15BitStreamReaderINS0_14InputBitStreamEEEEEbRNS1_12HandInPacketERT_ = 0x000000000022490c + __sdk_start;
encode_size = 0x00000000000febf8 + __sdk_start;
_ZN2nn4pctl34SynchronizeParentalControlSettingsEPNS_4time9PosixTimeE = 0x0000000000150c44 + __sdk_start;
_ZN2nn2sf4hipc6client24Hipc2ClientCoreProcessorILNS1_6detail11MessageTypeE4ENS0_4cmif6detail14CoreMethodInfoINSt3__15tupleIJNS7_17InRawArgumentInfoILm8ELm8ELl0EEENS7_18OutRawArgumentInfoILm8ELm8ELl0EEEEEELm8ELm8ELb1EEESF_E7ProcessEPNS2_26Hipc2ClientProxyBaseObjectENS6_6client23InRawClientArgumentTypeILm8ELm8EvEENSK_24OutRawClientArgumentTypeILm8ELm8EEEj = 0x000000000021b630 + __sdk_start;
_ZTSN2nn2fs6detail18FileSystemAccessorE = 0x000000000073baa0 + __sdk_start;
_ZN2nn3hid6detail17NpadInternalStateC2Ev = 0x0000000000208b30 + __sdk_start;
_ZN2nn2sf4cmif6client6detail13CmifProxyImplINS_3ssl2sf11ISslContextENS2_15CmifDomainProxyINS0_4hipc6client38Hipc2ClientSessionManagedProxyKindBaseINSA_18Hipc2ProxyKindBaseILNS9_6detail11MessageTypeE4EEEEEEENS0_24StatefulAllocationPolicyINS0_16ExpHeapAllocatorEEES7_E17GetCmifBaseObjectEv = 0x000000000016b5ec + __sdk_start;
_ZN2nn2fs6detail14FindFileSystemEPPNS1_18FileSystemAccessorEPKc = 0x000000000004cb40 + __sdk_start;
_ZTIN2nn2sf6detail39ObjectImplFactoryWithStatelessAllocatorINS0_4cmif6client16CmifProxyFactoryINS_3hid26IActiveVibrationDeviceListENS0_4hipc6client18Hipc2ProxyKindBaseILNS8_6detail11MessageTypeE4EEENS0_25StatelessAllocationPolicyINS0_22ExpHeapStaticAllocatorILm16384ENS6_6detail9HidServerEEEEEE13ServiceObjectESJ_E6ObjectE = 0x00000000008e7990 + __sdk_start;
_ZN2nn2sf4cmif6client34CmifDomainProxyClientCoreProcessorINS0_4hipc6client38Hipc2ClientSessionManagedProxyKindBaseINS5_18Hipc2ProxyKindBaseILNS4_6detail11MessageTypeE4EEEEENS1_6detail14CoreMethodInfoINSt3__15tupleIJNSC_18OutRawArgumentInfoILm4ELm4ELl0EEENSG_ILm4ELm4ELl4EEENSC_17InRawArgumentInfoILm4ELm4ELl0EEENSC_18BufferArgumentInfoILi0ELi34ELm0EEENSJ_ILm4ELm4ELl4EEENSJ_ILm4ELm4ELl8EEENSJ_ILm16ELm8ELl16EEEEEELm32ELm8ELb0EEESQ_E7ProcessEPNS2_23CmifDomainClientMessageISB_E15ProxyBaseObjectENS2_24OutRawClientArgumentTypeILm4ELm4EEESY_NS2_23InRawClientArgumentTypeILm4ELm4EvEENS2_24BufferClientArgumentTypeES10_S10_NSZ_ILm16ELm8EvEEj = 0x00000000000a4900 + __sdk_start;
_ZNKSt3__19money_putIwNS_19ostreambuf_iteratorIwNS_11char_traitsIwEEEEE6do_putES4_bRNS_8ios_baseEwe = 0x000000000032b5cc + __sdk_start;
_ZNK2nn5audio6server14MemoryPoolInfo8IsMappedEv = 0x000000000018f450 + __sdk_start;
_ZNKSt3__112ctype_bynameIwE9do_narrowEPKwS3_cPc = 0x0000000000333d08 + __sdk_start;
_ZNKSt3__117moneypunct_bynameIcLb1EE16do_thousands_sepEv = 0x00000000003252b8 + __sdk_start;
_ZN7android10IInterface8asBinderEPKS0_ = 0x0000000000277d5c + __sdk_start;
_ZN7android19IGraphicBufferAlloc10descriptorE = 0x00000000009f10a8 + __sdk_start;
_ZNSt3__117__assoc_sub_state10__sub_waitERNS_11unique_lockINS_5mutexEEE = 0x0000000000305598 + __sdk_start;
_ZNSt3__117__assoc_sub_state12__make_readyEv = 0x000000000030546c + __sdk_start;
_ZTSNSt3__113basic_ostreamIcNS_11char_traitsIcEEEE = 0x00000000007b2c80 + __sdk_start;
_ZNKSt3__112ctype_bynameIwE11do_scan_notEtPKwS3_ = 0x0000000000333884 + __sdk_start;
nnosGetCurrentCoreNumber = 0x000000000008a06c + __sdk_start;
_ZN2nn2sf4cmif6client6detail13CmifProxyImplINS_2am7service21IApplicationFunctionsENS2_15CmifDomainProxyINS0_4hipc6client38Hipc2ClientSessionManagedProxyKindBaseINSA_18Hipc2ProxyKindBaseILNS9_6detail11MessageTypeE4EEEEEEENS0_30MemoryResourceAllocationPolicyES7_E29_nn_sf_sync_RequestToShutdownEv = 0x00000000000c5a40 + __sdk_start;
_ZN2nn2os12TryWaitEventEPNS0_9EventTypeE = 0x0000000000086868 + __sdk_start;
_ZNKSt3__17codecvtIcc11__mbstate_tE11do_encodingEv = 0x0000000000333e0c + __sdk_start;
_ZN2nn5audio6server24AudioRendererManagerImpl17AudioRendererImpl10InitializeERKNS0_6detail30AudioRendererParameterInternalEmRNS_2sf12NativeHandleEmRKNS_6applet20AppletResourceUserIdEi = 0x0000000000188bb4 + __sdk_start;
_ZN2nn2fs12FormatSdCardEv = 0x0000000000065c30 + __sdk_start;
_ZN2nn3web14ShowWebPageArg17SetPointerEnabledEb = 0x0000000000238250 + __sdk_start;
_ZNKSt3__117moneypunct_bynameIwLb0EE11do_groupingEv = 0x0000000000325ba8 + __sdk_start;
_ZN7android7RefBase12weakref_type7trackMeEbb = 0x00000000002ae6d4 + __sdk_start;
_ZN2nn2fs12MountContentEPKcNS_3ncm9ProgramIdENS0_11ContentTypeE = 0x000000000005012c + __sdk_start;
_ZNSt3__113basic_istreamIcNS_11char_traitsIcEEErsEPNS_15basic_streambufIcS2_EE = 0x0000000000308898 + __sdk_start;
_ZThn16_N2nn2sf4cmif6client6detail13CmifProxyImplINS_5visrv2sf26IApplicationDisplayServiceENS0_4hipc6client18Hipc2ProxyKindBaseILNS8_6detail11MessageTypeE4EEENS0_30MemoryResourceAllocationPolicyES7_E17GetCmifBaseObjectEv = 0x00000000001b8c48 + __sdk_start;
_ZTSN2nn3nfp6detail5IUserE = 0x000000000076a310 + __sdk_start;
_ZN2nn3ssl10Connection4PollEPNS1_9PollEventES3_j = 0x0000000000169b1c + __sdk_start;
_ZN2nn3hid6detail26FinalizeSharedMemoryFormatEPNS1_18SharedMemoryFormatE = 0x0000000000208994 + __sdk_start;
_ZN2nn3hid14KeyboardLayout19SpanishLatinAmericaE = 0x0000000000790be0 + __sdk_start;
_ZN2nn8irsensor6detail15IrSensorSession37ThrowResultDeactivationLowerLimitOverEv = 0x0000000000221138 + __sdk_start;
_ZN2nn3pcv8FinalizeEv = 0x00000000002f6624 + __sdk_start;
_ZN2nn2sf4cmif6client6detail13CmifProxyImplINS_7account4baas14IAdministratorENS2_15CmifDomainProxyINS0_4hipc6client38Hipc2ClientSessionManagedProxyKindBaseINSA_18Hipc2ProxyKindBaseILNS9_6detail11MessageTypeE4EEEEEEENS0_25StatelessAllocationPolicyINS0_22ExpHeapStaticAllocatorILm2048ENS5_6detail12ObjectHolder24ObjectHolderAllocatorTagEEEEES7_E52_nn_sf_sync_CreateProcedureToLinkWithNintendoAccountENS0_3OutINS0_13SharedPointerINS5_3nas40IOAuthProcedureForNintendoAccountLinkageEEEvEE = 0x00000000000b3d2c + __sdk_start;
__multi3 = 0x0000000000382a3c + __sdk_start;
_ZNK2nn3mii6detail16Ver3StoreDataRaw12GetReserved1Ev = 0x00000000001b0800 + __sdk_start;
_ZN2nn2sf4cmif6client6detail13CmifProxyImplINS_7friends6detail3ipc14IFriendServiceENS2_15CmifDomainProxyINS0_4hipc6client38Hipc2ClientSessionManagedProxyKindBaseINSB_18Hipc2ProxyKindBaseILNSA_6detail11MessageTypeE4EEEEEEENS0_30MemoryResourceAllocationPolicyES8_E33_nn_sf_sync_GetFriendDetailedInfoENS0_3OutINS6_22FriendDetailedInfoImplEvEERKNS_7account3UidENSO_23NetworkServiceAccountIdE = 0x000000000011a1e8 + __sdk_start;
_ZN2nn5image13ExifExtractorD2Ev = 0x000000000002f1fc + __sdk_start;
_ZN7android22GraphicBufferAllocator10sAllocListE = 0x00000000009f2590 + __sdk_start;
_ZN2nn2sf4hipc6client34HipcSimpleClientSessionManagerBase4Impl18InitializeByHandleINS_4nifm6detail14IStaticServiceENS0_25StatelessAllocationPolicyINS0_22ExpHeapStaticAllocatorILm16384ENS7_21ServiceProviderClient30CreateNifmUserServiceObjectTagEEEEEEENS_6ResultEPNS0_13SharedPointerIT_EENS_3svc6HandleE = 0x0000000000144cb8 + __sdk_start;
_ZNSt3__16locale3allE = 0x00000000007b38a8 + __sdk_start;
_ZN2nn4pctl23IsRestrictedByPlayTimerEv = 0x00000000001510e4 + __sdk_start;
_ZTSN2nn2ro6detail12IRoInterfaceE = 0x00000000007434b0 + __sdk_start;
_ZNSt3__18__c_nodeD2Ev = 0x00000000003030ec + __sdk_start;
_ZN2nn3svc7aarch644lp6421FlushProcessDataCacheENS0_6HandleEmm = 0x00000000000a9fbc + __sdk_start;
_ZNK7android6Parcel11readString8Ev = 0x0000000000281360 + __sdk_start;
_ZN2nn7account27StoreSaveDataThumbnailImageERKNS0_3UidEPKvm = 0x00000000000ac2c4 + __sdk_start;
_ZN2nn6crypto6detail11GcmModeImplINS1_19GcmModeAes128HelperEE6GetMacEPvm = 0x0000000000009e2c + __sdk_start;
opus_packet_get_nb_frames = 0x0000000000100edc + __sdk_start;
nnmem_nlib_memutf8_to_utf16 = 0x00000000000707b8 + __sdk_start;
_ZNK2nn7friends18FriendDetailedInfo12GetAccountIdEv = 0x0000000000116a48 + __sdk_start;
_ZN2nn3svc7aarch644lp6430SendAsyncRequestWithUserBufferEPNS0_6HandleEmmS3_ = 0x00000000000a9da4 + __sdk_start;
_ZN2nn4lmem14FreeToUnitHeapEPNS0_6detail8HeapHeadEPv = 0x00000000000693cc + __sdk_start;
_ZN2nn8settings6system22SetBluetoothAfhEnabledEb = 0x000000000015a8d0 + __sdk_start;
androidSetThreadName = 0x00000000002b18fc + __sdk_start;
_ZN2nn8irsensor6detail15IrSensorSession27ThrowResultAllocationFailedEv = 0x0000000000221144 + __sdk_start;
_ZTSN2nn2sf4cmif6client16CmifProxyFactoryINS_8settings22IFactorySettingsServerENS0_4hipc6client18Hipc2ProxyKindBaseILNS6_6detail11MessageTypeE4EEENS0_25StatelessAllocationPolicyINS0_22ExpHeapStaticAllocatorILm16384ES5_EEEEE13ServiceObjectE = 0x000000000076ee80 + __sdk_start;
_ZN2nn5audio6server12BehaviorInfo11UpdateFlagsERKNS_4util10BitFlagSetILi64EvEE = 0x000000000018e98c + __sdk_start;
_ZN2nn8irsensor6detail15IrSensorSession25GetIrCameraInternalStatusERKNS0_14IrCameraHandleE = 0x00000000002209d4 + __sdk_start;
_ZTVNSt3__17codecvtIwc11__mbstate_tEE = 0x0000000000905278 + __sdk_start;
_ZN2nn3hid5debug28SetTouchScreenAutoPilotStateILm12EEEvRKNS1_25TouchScreenAutoPilotStateIXT_EEE = 0x00000000002163e4 + __sdk_start;
advance_elementPtr = 0x00000000001e584c + __sdk_start;
__unorddf2 = 0x000000000037e888 + __sdk_start;
_ZNSt3__112strstreambuf9underflowEv = 0x0000000000347e00 + __sdk_start;
_ZNSt3__115basic_streambufIcNS_11char_traitsIcEEE7sungetcEv = 0x0000000000307918 + __sdk_start;
_ZN2nn4util10BitFlagSetILi256ENS_3hid11KeyboardKeyEE4FlagILi113EE4MaskE = 0x00000000007908b8 + __sdk_start;
_ZN2nn7account6detail24SimpleOAuthProcedureBaseC1ERKNS0_3UidEPNS0_4http15IOAuthProcedureE = 0x00000000000aac9c + __sdk_start;
_ZN2nn2sf4cmif6client6detail13CmifProxyImplINS_7account6detail13IAsyncContextENS2_15CmifDomainProxyINS0_4hipc6client38Hipc2ClientSessionManagedProxyKindBaseINSA_18Hipc2ProxyKindBaseILNS9_6detail11MessageTypeE4EEEEEEENS0_30MemoryResourceAllocationPolicyES7_E26_nn_sf_sync_GetSystemEventENS0_3OutINS0_12NativeHandleEvEE = 0x00000000000b6a50 + __sdk_start;
_ZN2nn8settings6detail32GetWirelessCertificationFileSizeEPm = 0x0000000000161530 + __sdk_start;
__subvdi3 = 0x0000000000383b4c + __sdk_start;
_ZN2nn2sf6detail39ObjectImplFactoryWithStatelessAllocatorINS0_4cmif6client16CmifProxyFactoryINS_3hid15IAppletResourceENS0_4hipc6client18Hipc2ProxyKindBaseILNS8_6detail11MessageTypeE4EEENS0_25StatelessAllocationPolicyINS0_22ExpHeapStaticAllocatorILm16384ENS6_6detail9HidServerEEEEEE13ServiceObjectESJ_E6Object12AddReferenceEv = 0x000000000021a858 + __sdk_start;
exit = 0x0000000000386fd0 + __sdk_start;
_ZTVN2nn2sf6detail39ObjectImplFactoryWithStatelessAllocatorINS0_4cmif6client16CmifProxyFactoryINS_4nifm6detail12IScanRequestENS4_15CmifDomainProxyINS0_4hipc6client38Hipc2ClientSessionManagedProxyKindBaseINSB_18Hipc2ProxyKindBaseILNSA_6detail11MessageTypeE4EEEEEEENS0_25StatelessAllocationPolicyINS0_22ExpHeapStaticAllocatorILm16384ENS7_21ServiceProviderClient30CreateNifmUserServiceObjectTagEEEEEE13ServiceObjectESO_E6ObjectE = 0x00000000008de118 + __sdk_start;
_ZTSN2nn2sf6detail39ObjectImplFactoryWithStatelessAllocatorINS0_4cmif6client16CmifProxyFactoryINS_8settings24ISettingsItemKeyIteratorENS0_4hipc6client18Hipc2ProxyKindBaseILNS8_6detail11MessageTypeE4EEENS0_25StatelessAllocationPolicyINS0_22ExpHeapStaticAllocatorILm16384ENS6_28IFirmwareDebugSettingsServerEEEEEE13ServiceObjectESI_E6ObjectE = 0x000000000076f7c0 + __sdk_start;
memcpy = 0x00000000003971c4 + __sdk_start;
_ZN2nn2sf4hipc6server6detail29HipcAllInOneServerManagerBaseD2Ev = 0x0000000000094bf0 + __sdk_start;
NvRmGpuRegOpsSessionSetPcSamplingMode = 0x0000000000267f40 + __sdk_start;
nnutilZlib_deflateInit2_ = 0x00000000000304a8 + __sdk_start;
_ZN2nn6socket6detail11GetSockNameEiP8sockaddrPj = 0x000000000009c3e0 + __sdk_start;
_ZN2nn3hid6system16GetIrSensorStateEj = 0x00000000002118e4 + __sdk_start;
__crypt_sha512 = 0x000000000039e468 + __sdk_start;
_ZNK2nn7friends11PlayHistory26HasNetworkServiceAccountIdEv = 0x0000000000117178 + __sdk_start;
pthread_attr_setschedpolicy = 0x000000000038a01c + __sdk_start;
nvdcFlipSyncFd2 = 0x000000000023af78 + __sdk_start;
_ZN2nn3hid6detail24UnsetMouseAutoPilotStateEv = 0x00000000002026d4 + __sdk_start;
_ZTSN2nn2sf6detail39ObjectImplFactoryWithStatelessAllocatorINS0_4cmif6client16CmifProxyFactoryINS_7account3nas40IOAuthProcedureForNintendoAccountLinkageENS4_15CmifDomainProxyINS0_4hipc6client38Hipc2ClientSessionManagedProxyKindBaseINSB_18Hipc2ProxyKindBaseILNSA_6detail11MessageTypeE4EEEEEEENS0_25StatelessAllocationPolicyINS0_22ExpHeapStaticAllocatorILm2048ENS6_6detail12ObjectHolder24ObjectHolderAllocatorTagEEEEEE13ServiceObjectESP_E6ObjectE = 0x000000000074cc00 + __sdk_start;
silk_Resampler_1_2_COEFS = 0x000000000075eaea + __sdk_start;
_ZN2nn2sf4hipc6client24Hipc2ClientCoreProcessorILNS1_6detail11MessageTypeE4ENS0_4cmif6detail14CoreMethodInfoINSt3__15tupleIJNS7_18OutRawArgumentInfoILm32ELm1ELl0EEENS7_18BufferArgumentInfoILi0ELi69ELm0EEENS7_17InRawArgumentInfoILm64ELm4ELl0EEENSF_ILm8ELm8ELl72EEENSF_ILm4ELm4ELl64EEEEEELm80ELm32ELb1EEESJ_E7ProcessEPNS2_26Hipc2ClientProxyBaseObjectENS6_6client24OutRawClientArgumentTypeILm32ELm1EEENSO_24BufferClientArgumentTypeENSO_23InRawClientArgumentTypeILm64ELm4EvEENSS_ILm8ELm8EvEENSS_ILm4ELm4EvEEj = 0x0000000000230b74 + __sdk_start;
_ZN2nn3web15ShowNewsPageArg20SetScreenShotEnabledEb = 0x00000000002391f8 + __sdk_start;
_ZThn32_N2nn2sf4cmif6client6detail13CmifProxyImplINS_7friends6detail3ipc14IFriendServiceENS2_15CmifDomainProxyINS0_4hipc6client38Hipc2ClientSessionManagedProxyKindBaseINSB_18Hipc2ProxyKindBaseILNSA_6detail11MessageTypeE4EEEEEEENS0_30MemoryResourceAllocationPolicyES8_E17GetCmifBaseObjectEv = 0x000000000011a9c0 + __sdk_start;
_ZN2nn5prepo6detail7msgpack11WriteBinaryEPNS2_17OutputStreamParamEPKvj = 0x00000000001563f8 + __sdk_start;
__stdout_used = 0x0000000000911530 + __sdk_start;
_ZN2nn8irsensor6detail15IrSensorSession20IsErrorViewerEnabledERKNS0_14IrCameraHandleE = 0x0000000000220b0c + __sdk_start;
nnmem_nlib_snwprintf = 0x000000000006be4c + __sdk_start;
_ZN2nn5audio3dsp10ApplyDepopEPiiii = 0x0000000000195b3c + __sdk_start;
ldiv = 0x00000000003bdb60 + __sdk_start;
_ZN2nn2sf4cmif6client34CmifDomainProxyClientCoreProcessorINS0_4hipc6client38Hipc2ClientSessionManagedProxyKindBaseINS5_18Hipc2ProxyKindBaseILNS4_6detail11MessageTypeE4EEEEENS1_6detail14CoreMethodInfoINSt3__15tupleIJNSC_21OutObjectArgumentInfoILi0ELi0EEENSC_18BufferArgumentInfoILi0ELi25ELm264EEENSI_ILi1ELi25ELm512EEENSC_20InHandleArgumentInfoILi0ELi1EEENSC_17InRawArgumentInfoILm4ELm4ELl0EEEEEELm4ELm0ELb0EEESP_E21ProcessWithOutObjectsEPNS2_23CmifDomainClientMessageISB_E15ProxyBaseObjectENS2_27OutObjectClientArgumentTypeENS2_24BufferClientArgumentTypeESX_NS2_26InHandleClientArgumentTypeENS2_23InRawClientArgumentTypeILm4ELm4EvEEjPNS0_13SharedPointerINS0_14IServiceObjectEEE = 0x00000000000b1238 + __sdk_start;
NvRmGpuRegOpsSessionSetSmpcContextSwitchMode = 0x0000000000267f28 + __sdk_start;
_ZN2nn3hid6detail20InitializeHomeButtonEv = 0x00000000001ff76c + __sdk_start;
_ZN2nn5audio35GetFinalOutputRecorderBufferEndTimeEPKNS0_25FinalOutputRecorderBufferE = 0x0000000000187254 + __sdk_start;
NvOsAtomicCompareExchange32 = 0x0000000000245cf8 + __sdk_start;
_ZN2nn3ldn16CloseAccessPointEv = 0x0000000000231d98 + __sdk_start;
_ZN2nn5audio14MemoryPoolInfo6DetachEv = 0x000000000017728c + __sdk_start;
_ZNSt14overflow_errorD0Ev = 0x0000000000377918 + __sdk_start;
NvRmChannelGetModuleMutex = 0x00000000002558e4 + __sdk_start;
_ZNK2nn2sf4hipc6server17HipcServerMessage10GetBuffersEPNS0_6detail14PointerAndSizeE = 0x0000000000096534 + __sdk_start;
FsLtt_getFileVersion = 0x00000000001eb770 + __sdk_start;
_ZNK2nn7friends23NintendoNetworkIdFriend7IsValidEv = 0x0000000000116d4c + __sdk_start;
_ZN2nn4nifm22GetCurrentProxySettingEPNS0_12ProxySettingE = 0x00000000001499fc + __sdk_start;
_ZN2nn2sf6detail39ObjectImplFactoryWithStatelessAllocatorINS0_4cmif6client16CmifProxyFactoryINS_7timesrv6detail7service14IStaticServiceENS4_15CmifDomainProxyINS0_4hipc6client38Hipc2ClientSessionManagedProxyKindBaseINSC_18Hipc2ProxyKindBaseILNSB_6detail11MessageTypeE4EEEEEEENS0_25StatelessAllocationPolicyINS0_22ExpHeapStaticAllocatorILm16384ENS_4time6detail7service21ServiceProviderClient30CreateTimeUserServiceObjectTagEEEEEE13ServiceObjectESS_E6Object7ReleaseEv = 0x000000000016facc + __sdk_start;
_ZN2nn2sf4cmif6client6detail13CmifProxyImplINS_2am7service26ILibraryAppletSelfAccessorENS2_15CmifDomainProxyINS0_4hipc6client38Hipc2ClientSessionManagedProxyKindBaseINSA_18Hipc2ProxyKindBaseILNS9_6detail11MessageTypeE4EEEEEEENS0_30MemoryResourceAllocationPolicyES7_E21_nn_sf_sync_PopInDataENS0_3OutINS0_13SharedPointerINS6_8IStorageEEEvEE = 0x00000000000c3ca4 + __sdk_start;
_ZN2nn2ro9BindEntryEv = 0x0000000000092a5c + __sdk_start;
_ZN2nn2sf4cmif6client34CmifDomainProxyClientCoreProcessorINS0_4hipc6client38Hipc2ClientSessionManagedProxyKindBaseINS5_18Hipc2ProxyKindBaseILNS4_6detail11MessageTypeE4EEEEENS1_6detail14CoreMethodInfoINSt3__15tupleIJNSC_17InRawArgumentInfoILm1ELm1ELl0EEENSG_ILm1ELm1ELl1EEENSG_ILm1ELm1ELl2EEEEEELm3ELm0ELb0EEESK_E7ProcessEPNS2_23CmifDomainClientMessageISB_E15ProxyBaseObjectENS2_23InRawClientArgumentTypeILm1ELm1EvEESS_SS_j = 0x00000000000bef60 + __sdk_start;
_ZN2nn3hid6detail22GetNpadControllerColorEPNS0_19NpadControllerColorERKj = 0x00000000002037e8 + __sdk_start;
_ZN2nn3ssl10Connection12GetLastErrorEPNS_6ResultE = 0x0000000000169bec + __sdk_start;
_ZTSN2nn3ngc6detail15NullInputStreamE = 0x000000000076ade0 + __sdk_start;
nnmem_nlib_memutf8_to_utf32 = 0x000000000006ed54 + __sdk_start;
_ZNSt3__110istrstreamD1Ev = 0x00000000003480b8 + __sdk_start;
_ZNK2nn5audio6server10PoolMapper17IsForceMapEnabledEv = 0x000000000018f834 + __sdk_start;
_ZTSNSt3__18numpunctIwEE = 0x00000000007b4470 + __sdk_start;
_ZTIN2nn2sm6detail14IUserInterfaceE = 0x00000000008d0fa0 + __sdk_start;
_ZTSN2nn5audio6detail12IAudioDeviceE = 0x00000000007793d0 + __sdk_start;
silk_uniform5_iCDF = 0x000000000075f707 + __sdk_start;
_ZThn16_N2nn2sf4cmif6client6detail13CmifProxyImplINS_8settings21ISystemSettingsServerENS0_4hipc6client18Hipc2ProxyKindBaseILNS7_6detail11MessageTypeE4EEENS0_25StatelessAllocationPolicyINS0_22ExpHeapStaticAllocatorILm16384ES6_EEEES6_E17GetCmifBaseObjectEv = 0x0000000000165998 + __sdk_start;
nnmem_nlib_snprintf_fallback = 0x0000000000074aec + __sdk_start;
_ZN2nn2vi13ObjectManager22FindValidDisplayHolderEPKNS0_7DisplayE = 0x00000000001be958 + __sdk_start;
_ZN2nn2sf4cmif6client6detail13CmifProxyImplINS_3hid10IHidServerENS0_4hipc6client18Hipc2ProxyKindBaseILNS7_6detail11MessageTypeE4EEENS0_25StatelessAllocationPolicyINS0_22ExpHeapStaticAllocatorILm16384ENS5_6detail9HidServerEEEEES6_E30_nn_sf_sync_GetNpadJoyHoldTypeENS_6applet20AppletResourceUserIdENS0_3OutIlvEE = 0x000000000021a360 + __sdk_start;
_ZNK2nn3mii21ParamCharInfoAccessor9GetMouthYEv = 0x00000000001a1b38 + __sdk_start;
_ZN2nn2fs16SaveDataIterator16ReadSaveDataInfoEPlPNS0_12SaveDataInfoEl = 0x00000000000630e0 + __sdk_start;
_ZN2nn3nsd6detail3ipc25DeleteSaveDataOfFsForTestEv = 0x000000000014c8b4 + __sdk_start;
__optreset = 0x0000000000a0c8e4 + __sdk_start;
_ZN2nn3err19ApplicationErrorArgC2Ev = 0x000000000010f8fc + __sdk_start;
_ZN2nn5audio21SetReverbPredelayTimeEPNS0_10ReverbTypeENS_8TimeSpanE = 0x0000000000175870 + __sdk_start;
nnsslConnectionDoHandshake = 0x000000000016a4ec + __sdk_start;
nnosCloseNativeHandle = 0x000000000008a20c + __sdk_start;
_ZN2nn2sf4cmif6client6detail13CmifProxyImplINS_3hid16IHidSystemServerENS0_4hipc6client18Hipc2ProxyKindBaseILNS7_6detail11MessageTypeE4EEENS0_25StatelessAllocationPolicyINS0_22ExpHeapStaticAllocatorILm16384ENS5_6detail15HidSystemServerEEEEES6_E36_nn_sf_sync_SetVibrationMasterVolumeEf = 0x000000000021c624 + __sdk_start;
_ZN2nn3hid6detail13GetNpadStatesEPiPNS0_16NpadJoyLeftStateEiRKj = 0x0000000000204184 + __sdk_start;
_ZN2nn6socket6detail10socketNtoaE7in_addr = 0x00000000000a4e9c + __sdk_start;
_ZN2nn3hid5debug28SetTouchScreenAutoPilotStateILm9EEEvRKNS1_25TouchScreenAutoPilotStateIXT_EEE = 0x0000000000216318 + __sdk_start;
_ZN2nn2la17PopFromOutChannelENS_6applet19LibraryAppletHandleEPvmPm = 0x00000000001a0370 + __sdk_start;
_ZN2nn5audio6common10NodeStates17GetWorkBufferSizeEi = 0x000000000017a9d8 + __sdk_start;
_ZN2nn5audio30GetRequiredBufferSizeForReverbEii = 0x00000000001753c4 + __sdk_start;
_ZTVNSt3__112ctype_bynameIwEE = 0x00000000009051f0 + __sdk_start;
_ZN2nv20SetGraphicsAllocatorEPFPvmmS0_EPFvS0_S0_EPFS0_S0_mS0_ES0_ = 0x0000000000245f5c + __sdk_start;
_ZN2nn14MemoryResourceD2Ev = 0x0000000000092df8 + __sdk_start;
_ZN2nn3hid6detail18SharedMemoryHolderC1Ev = 0x0000000000208ed0 + __sdk_start;
_ZTIN2nn5fssrv2sf15IDeviceOperatorE = 0x00000000008cece0 + __sdk_start;
_ZTIN2nn2sf4cmif6client6detail9CmifProxyINS_4nifm6detail8IRequestENS2_15CmifDomainProxyINS0_4hipc6client38Hipc2ClientSessionManagedProxyKindBaseINSA_18Hipc2ProxyKindBaseILNS9_6detail11MessageTypeE4EEEEEEENS0_25StatelessAllocationPolicyINS0_22ExpHeapStaticAllocatorILm16384ENS6_21ServiceProviderClient30CreateNifmUserServiceObjectTagEEEEEvEE = 0x00000000008de400 + __sdk_start;
_ZTSSt13bad_exception = 0x00000000007b7320 + __sdk_start;
_ZN2nn2vi6buffer11BufferQueue13DequeueBufferEPPPv = 0x00000000001c07d4 + __sdk_start;
_ZTSNSt3__115time_put_bynameIcNS_19ostreambuf_iteratorIcNS_11char_traitsIcEEEEEE = 0x00000000007b49b0 + __sdk_start;
_ZTSN2nn2sf4cmif6client16CmifProxyFactoryINS_8irsensor21IIrSensorSystemServerENS0_4hipc6client18Hipc2ProxyKindBaseILNS6_6detail11MessageTypeE4EEENS0_25StatelessAllocationPolicyINS0_22ExpHeapStaticAllocatorILm16384ENS4_6detail20IrSensorSystemServerEEEEEE13ServiceObjectE = 0x0000000000798cc0 + __sdk_start;
_ZN2nn3hid6system16GetUniquePadTypeENS1_11UniquePadIdE = 0x00000000002165d8 + __sdk_start;
_ZN2nn2os11SleepThreadENS_8TimeSpanE = 0x0000000000089218 + __sdk_start;
unw_get_proc_name = 0x00000000003792c0 + __sdk_start;
_ZN2nn2sf4hipc6client24Hipc2ClientCoreProcessorILNS1_6detail11MessageTypeE4ENS0_4cmif6detail14CoreMethodInfoINSt3__15tupleIJNS7_18BufferArgumentInfoILi0ELi5ELm0EEENS7_17InRawArgumentInfoILm8ELm8ELl0EEEEEELm8ELm0ELb0EEESF_E7ProcessEPNS2_26Hipc2ClientProxyBaseObjectENS6_6client24BufferClientArgumentTypeENSK_23InRawClientArgumentTypeILm8ELm8EvEEj = 0x000000000017f7d4 + __sdk_start;
_ZN2nn4time38SetStandardLocalSystemClockCurrentTimeERKNS0_9PosixTimeE = 0x000000000016e510 + __sdk_start;
_ZN2nn5audio20SetSubMixDestinationEPNS0_19AudioRendererConfigEPNS0_10SubMixTypeEPNS0_12SplitterTypeE = 0x000000000017961c + __sdk_start;
_ZN2nn2os6detail20AddressRegionManagerC2Emm = 0x000000000008cc3c + __sdk_start;
_ZN2nn7account37InitializeBaasAccessTokenAccessorWithEONS_2sf13SharedPointerINS0_24IBaasAccessTokenAccessorEEE = 0x00000000000b5d84 + __sdk_start;
_ZN2nn2sf4cmif6client6detail13CmifProxyImplINS_3apm8IManagerENS0_4hipc6client18Hipc2ProxyKindBaseILNS7_6detail11MessageTypeE4EEENS0_30MemoryResourceAllocationPolicyES6_E17GetCmifBaseObjectEv = 0x00000000000c7d9c + __sdk_start;
_ZN2nn3hid6detail36GetVibrationDeviceHandlePlayerNumberERKNS0_21VibrationDeviceHandleE = 0x00000000002102b0 + __sdk_start;
nvgr_get_memfd = 0x0000000000266fe8 + __sdk_start;
_ZN2nn3ldn20AddAcceptFilterEntryENS0_10MacAddressE = 0x000000000023204c + __sdk_start;
_ZN22nerd_gillette_internal5otete7jaimev127DecodeFullSilhouetteImplROKINS_15NumericalVectorIfLm2EEEPFS4_NS3_IsLm2EEEEEEbRNS_30ContiguousStorageContainerBaseIT_Lb1EEERNS0_14InputBitStreamERKNS1_23FullSilhouetteCodecDataET0_ = 0x000000000022ce7c + __sdk_start;
_ZN2nn2sf4cmif6client6detail13CmifProxyImplINS_3ssl2sf14ISslConnectionENS2_15CmifDomainProxyINS0_4hipc6client38Hipc2ClientSessionManagedProxyKindBaseINSA_18Hipc2ProxyKindBaseILNS9_6detail11MessageTypeE4EEEEEEENS0_24StatefulAllocationPolicyINS0_16ExpHeapAllocatorEEES7_E19_nn_sf_sync_PendingENS0_3OutIivEE = 0x000000000016ba50 + __sdk_start;
_ZTIN2nn2sf6detail38ObjectImplFactoryWithStatefulAllocatorINS0_4cmif6client16CmifProxyFactoryINS_2am7service16IAudioControllerENS4_15CmifDomainProxyINS0_4hipc6client38Hipc2ClientSessionManagedProxyKindBaseINSB_18Hipc2ProxyKindBaseILNSA_6detail11MessageTypeE4EEEEEEENS0_30MemoryResourceAllocationPolicyEE13ServiceObjectESJ_E6ObjectE = 0x00000000008d6f50 + __sdk_start;
nnsocketPoll = 0x000000000009a748 + __sdk_start;
_ZN2nn2sf4cmif6client6detail13CmifProxyImplINS_3apm8ISessionENS0_4hipc6client18Hipc2ProxyKindBaseILNS7_6detail11MessageTypeE4EEENS0_30MemoryResourceAllocationPolicyES6_E12GetProxyInfoEv = 0x00000000000c809c + __sdk_start;
_ZNSt3__16locale5facet16__on_zero_sharedEv = 0x00000000003316ec + __sdk_start;
_ZZN2nn2sf31SimpleAllInOneHipcClientManagerILm3EE27InitializeShimLibraryHolderINS_3pcv6detail11IPcvServiceEEENS_6ResultEPNS0_23ShimLibraryObjectHolderIT_EEPKcPNS_14MemoryResourceEENUlPvE_8__invokeESG_ = 0x00000000002f8560 + __sdk_start;
_ZN2nn2sf4cmif6client6detail13CmifProxyImplINS_2am7service18IAppletProxyCommonENS2_15CmifDomainProxyINS0_4hipc6client38Hipc2ClientSessionManagedProxyKindBaseINSA_18Hipc2ProxyKindBaseILNS9_6detail11MessageTypeE4EEEEEEENS0_30MemoryResourceAllocationPolicyENS6_17IApplicationProxyEE29_nn_sf_sync_GetSelfControllerENS0_3OutINS0_13SharedPointerINS6_15ISelfControllerEEEvEE = 0x00000000000c5108 + __sdk_start;
_ZNSt3__110ctype_base6xdigitE = 0x00000000007b38bc + __sdk_start;
_ZN2nn3hid6detail26GetSixAxisSensorLeftStatesEPiPNS0_18SixAxisSensorStateEiRKjNS_4util10BitFlagSetILi32ENS0_12NpadStyleTagEEE = 0x00000000002059e0 + __sdk_start;
_ZN2nn5audio10EffectInfo11InParameter22InvalidProcessingOrderE = 0x00000000007741cc + __sdk_start;
_ZN2nn2fs6detail27StorageServiceObjectAdapter4ReadElPvm = 0x00000000000666e4 + __sdk_start;
_ZTVN2nn2sf6detail38ObjectImplFactoryWithStatefulAllocatorINS0_4cmif6client16CmifProxyFactoryINS_2am7service15IDebugFunctionsENS4_15CmifDomainProxyINS0_4hipc6client38Hipc2ClientSessionManagedProxyKindBaseINSB_18Hipc2ProxyKindBaseILNSA_6detail11MessageTypeE4EEEEEEENS0_30MemoryResourceAllocationPolicyEE13ServiceObjectESJ_E6ObjectE = 0x00000000008d7168 + __sdk_start;
_ZNK2nn7friends16UserPresenceView17GetLastUpdateTimeEv = 0x0000000000117578 + __sdk_start;
silk_stereo_pred_quant_Q13 = 0x000000000075f69c + __sdk_start;
_ZN2nn8settings20SetXpadGenericPadMapERKNS0_22BasicXpadGenericPadMapEi = 0x000000000015d36c + __sdk_start;
_ZN2nn7friends14AddPlayHistoryERKNS0_26PlayHistoryRegistrationKeyERKNS0_15InAppScreenNameES6_ = 0x0000000000112594 + __sdk_start;
_ZNSt3__17promiseIvEC2Ev = 0x00000000003058ec + __sdk_start;
unquant_energy_finalise = 0x00000000000e2c00 + __sdk_start;
_ZN2nn4util16BinaryFileHeader11SetFileNameERKNS0_17basic_string_viewIcNSt3__111char_traitsIcEEEE = 0x000000000003a3a8 + __sdk_start;
_ZN2nn5codec11OpusEncoder10InitializeEiiNS0_15OpusApplicationEPvm = 0x000000000010ce68 + __sdk_start;
_ZN2nn3mii6detail22RandomMiiNoseTypeTableE = 0x0000000000785940 + __sdk_start;
_ZN2nn6crypto6detail11bigint_zeroEPji = 0x0000000000001f14 + __sdk_start;
_ZN2nn2sf4cmif6client6detail13CmifProxyImplINS_7account3nas21IAuthorizationRequestENS2_15CmifDomainProxyINS0_4hipc6client38Hipc2ClientSessionManagedProxyKindBaseINSA_18Hipc2ProxyKindBaseILNS9_6detail11MessageTypeE4EEEEEEENS0_25StatelessAllocationPolicyINS0_22ExpHeapStaticAllocatorILm2048ENS5_6detail12ObjectHolder24ObjectHolderAllocatorTagEEEEES7_E41_nn_sf_sync_InvokeWithoutInteractionAsyncENS0_3OutINS0_13SharedPointerINSK_13IAsyncContextEEEvEE = 0x00000000000af2f4 + __sdk_start;
_ZN2nn3mii6detail12WrinkleColorE = 0x0000000000781284 + __sdk_start;
_ZTVN2nn2sf6detail38ObjectImplFactoryWithStatefulAllocatorINS0_4cmif6client16CmifProxyFactoryINS_4bcat6detail3ipc30IDeliveryCacheDirectoryServiceENS4_15CmifDomainProxyINS0_4hipc6client38Hipc2ClientSessionManagedProxyKindBaseINSC_18Hipc2ProxyKindBaseILNSB_6detail11MessageTypeE4EEEEEEENS0_30MemoryResourceAllocationPolicyEE13ServiceObjectESK_E6ObjectE = 0x00000000008da708 + __sdk_start;
__flt_rounds = 0x00000000003a1644 + __sdk_start;
nndetailDiagOnAssertionFailure = 0x00000000000433b8 + __sdk_start;
_ZTSN2nn3hid6detail8RingLifoINS0_6system16SleepButtonStateELi16ENS1_13AtomicStorageIS4_EEEE = 0x000000000078f430 + __sdk_start;
_ZN2nn2lm6detail15LogPacketHeader11SetThreadIdEm = 0x00000000001294f4 + __sdk_start;
__nnmusl_FinalizeLock = 0x00000000003c3dc0 + __sdk_start;
_ZTIN2nn5audio6detail18IAudioDebugManagerE = 0x00000000008e1900 + __sdk_start;
_ZN2nn3hid5debug33SetShiftGyroscopeCalibrationValueERKNS0_19SixAxisSensorHandleEff = 0x00000000002153b0 + __sdk_start;
_ZN2nn3hid28SetNpadJoyAssignmentModeDualERKj = 0x00000000002142c8 + __sdk_start;
_ZNK2nn5audio15AudioBufferListINS0_14AudioOutBufferEE5frontEv = 0x00000000001734c8 + __sdk_start;
_ZN2nn6fontll18ScalableFontEngine25InitializeOtfKerningTableEPFPvmmS2_ES2_ = 0x00000000001c320c + __sdk_start;
_ZN2nn5audio6common16UpdateDataHeader10InitializeEj = 0x000000000017afc0 + __sdk_start;
FSS_set_font = 0x00000000001c7b8c + __sdk_start;
_ZTIN2nn2sf4cmif6client6detail9CmifProxyINS_2am7service19ILibraryAppletProxyENS2_15CmifDomainProxyINS0_4hipc6client38Hipc2ClientSessionManagedProxyKindBaseINSA_18Hipc2ProxyKindBaseILNS9_6detail11MessageTypeE4EEEEEEENS0_30MemoryResourceAllocationPolicyEvEE = 0x00000000008d8470 + __sdk_start;
NvOsEventPoolCreate = 0x0000000000244544 + __sdk_start;
_ZN2nn3web16ShowSharePageArgC1ENS0_14ShareStartPageE = 0x0000000000237538 + __sdk_start;
_ZNSt3__112system_errorC2ENS_10error_codeEPKc = 0x00000000003489d0 + __sdk_start;
_ZN2nn5swkbd24SetLeftOptionalSymbolKeyEPNS0_14KeyboardConfigEDs = 0x00000000001b4dc4 + __sdk_start;
_ZN2nn6applet36GetPopFromInteractiveOutChannelEventENS0_19LibraryAppletHandleE = 0x00000000000c9f7c + __sdk_start;
_ZN2nn5audio3dsp4WakeEv = 0x0000000000196564 + __sdk_start;
_ZN2nn6crypto6detail6BigNumD2Ev = 0x0000000000001e90 + __sdk_start;
_ZN2nn7account49ExternalNetworkServiceAccountIntroducingProcedureC1Ev = 0x00000000000b9d00 + __sdk_start;
_ZN2nn8settings7factory15GetEciDeviceKeyEPNS1_16EccB233DeviceKeyE = 0x000000000015b2b0 + __sdk_start;
_ZN2nn7account6detail24SimpleOAuthProcedureBaseC1Ev = 0x00000000000aac84 + __sdk_start;
_ZN2nn4pctl28UnlockRestrictionTemporarilyEPKc = 0x000000000014f9a4 + __sdk_start;
_ZN2nn6crypto6detail20p256_named_parameterE = 0x00000000007316d4 + __sdk_start;
_ZN2nn4time39AsyncEnsureNetworkClockAvailabilityTask9GetResultEv = 0x000000000016e428 + __sdk_start;
_ZN2nn3ngc6detail11AhoCorasick5ResetEv = 0x0000000000138b74 + __sdk_start;
_ZN2nn6socket6detail12SocketExemptEiii = 0x000000000009db0c + __sdk_start;
_ZTSN2nn7account13ProfileEditorE = 0x000000000074f390 + __sdk_start;
_ZN2nn5audio6server10ReverbInfo26UpdateForCommandGenerationEv = 0x000000000018f058 + __sdk_start;
_ZN2nn4htcs10InitializeEPvm = 0x00000000001263c0 + __sdk_start;
_ZN2nn4pctl14CheckMasterKeyERKNS0_11InquiryCodeEPKc = 0x000000000014fbcc + __sdk_start;
_ZN2nn3hid6detail20GetTouchScreenStatesILm11EEENS_6ResultEPiPNS0_16TouchScreenStateIXT_EEEi = 0x000000000020ba50 + __sdk_start;
NvWsiContextCreate = 0x0000000000272e38 + __sdk_start;
_ZNK2nn7account10UiSettings9GetUiModeEv = 0x00000000000aa318 + __sdk_start;
_ZN2nn2sf4cmif6client32GetClientProcessorWithObjectBaseINS2_15CmifDomainProxyINS0_4hipc6client38Hipc2ClientSessionManagedProxyKindBaseINS6_18Hipc2ProxyKindBaseILNS5_6detail11MessageTypeE4EEEEEEEE14ObjectAssignerINS0_30MemoryResourceAllocationPolicyENS_14MemoryResourceEE14AllocateObjectINS_2am7service18ISystemAppletProxyEEEvi = 0x00000000000bd510 + __sdk_start;
_ZN2nn5audio15AudioBufferListINS0_25FinalOutputRecorderBufferEE9pop_frontEv = 0x0000000000173450 + __sdk_start;
_ZN2nn2sf4cmif6client6detail13CmifProxyImplINS_2am7service22ILibraryAppletAccessorENS2_15CmifDomainProxyINS0_4hipc6client38Hipc2ClientSessionManagedProxyKindBaseINSA_18Hipc2ProxyKindBaseILNS9_6detail11MessageTypeE4EEEEEEENS0_30MemoryResourceAllocationPolicyES7_E22_nn_sf_sync_PopOutDataENS0_3OutINS0_13SharedPointerINS6_8IStorageEEEvEE = 0x00000000000c14e4 + __sdk_start;
_ZN2nn6socket12FreeAddrInfoEP8addrinfo = 0x000000000009a6b8 + __sdk_start;
_ZN2nn4time30SuspendAutonomicTimeCorrectionEv = 0x000000000016e508 + __sdk_start;
_ZN2nn2sf4cmif6client6detail13CmifProxyImplINS_5visrv2sf21ISystemDisplayServiceENS0_4hipc6client18Hipc2ProxyKindBaseILNS8_6detail11MessageTypeE4EEENS0_30MemoryResourceAllocationPolicyES7_E30_nn_sf_sync_CloseIndirectLayerEm = 0x00000000001b97e4 + __sdk_start;
_ZTVN2nn5audio6server14DeviceSinkInfoE = 0x00000000008e39a8 + __sdk_start;
_ZNK2nn3mii21ParamCharInfoAccessor11GetEyebrowXEv = 0x00000000001a1af0 + __sdk_start;
_ZTSN2nn2sf4cmif6client6detail13CmifProxyImplINS_2am7service16IStorageAccessorENS2_15CmifDomainProxyINS0_4hipc6client38Hipc2ClientSessionManagedProxyKindBaseINSA_18Hipc2ProxyKindBaseILNS9_6detail11MessageTypeE4EEEEEEENS0_30MemoryResourceAllocationPolicyES7_EE = 0x0000000000754140 + __sdk_start;
_ZTSN2nn2sf4cmif6client6detail13CmifProxyImplINS_4bcat6detail3ipc12IBcatServiceENS2_15CmifDomainProxyINS0_4hipc6client38Hipc2ClientSessionManagedProxyKindBaseINSB_18Hipc2ProxyKindBaseILNSA_6detail11MessageTypeE4EEEEEEENS0_30MemoryResourceAllocationPolicyES8_EE = 0x00000000007597c0 + __sdk_start;
_ZN2nn2sf4cmif6client6detail13CmifProxyImplINS_4nifm6detail15IGeneralServiceENS2_15CmifDomainProxyINS0_4hipc6client38Hipc2ClientSessionManagedProxyKindBaseINSA_18Hipc2ProxyKindBaseILNS9_6detail11MessageTypeE4EEEEEEENS0_25StatelessAllocationPolicyINS0_22ExpHeapStaticAllocatorILm16384ENS6_21ServiceProviderClient30CreateNifmUserServiceObjectTagEEEEES7_E36_nn_sf_sync_EnumerateNetworkProfilesERKNS0_8OutArrayINS6_2sf23NetworkProfileBasicInfoEEENS0_3OutIivEEh = 0x0000000000145258 + __sdk_start;
_ZN7android7String8C2ERKNS_8String16E = 0x00000000002afbe0 + __sdk_start;
_ZN2nn4pctl31ConfirmSystemSettingsPermissionEv = 0x000000000014ffb4 + __sdk_start;
_ZN2nn8settings6detail17GetGyroscopeScaleEPNS0_7factory14GyroscopeScaleE = 0x000000000015fa58 + __sdk_start;
_ZN2nn2sf4cmif6client6detail13CmifProxyImplIN3nns9hosbinder16IHOSBinderDriverENS0_4hipc6client18Hipc2ProxyKindBaseILNS8_6detail11MessageTypeE4EEENS0_30MemoryResourceAllocationPolicyES7_E27_nn_sf_sync_GetNativeHandleEijNS0_3OutINS0_12NativeHandleEvEE = 0x00000000001b8e34 + __sdk_start;
_ZNKSt3__110__time_put8__do_putEPcRS1_PK2tmcc = 0x0000000000324150 + __sdk_start;
_ZN2nn4pctl11PairingInfo14GetAccountInfoEPNS0_18PairingAccountInfoE = 0x000000000015171c + __sdk_start;
_ZZN2nn2sf40SimpleAllInOneHipcSubDomainClientManagerILm2EE27InitializeShimLibraryHolderINS_4pctl6detail3ipc30IParentalControlServiceFactoryEEENS_6ResultEPNS0_23ShimLibraryObjectHolderIT_EEPKcPNS_14MemoryResourceEENUlPNS0_13SharedPointerIS7_EEE_clESJ_ = 0x0000000000152520 + __sdk_start;
_ZN2nn3i2c17OpenSessionForDevEPNS0_10I2cSessionEitNS0_14AddressingModeENS0_9SpeedModeE = 0x00000000002f4e98 + __sdk_start;
_ZN2nn6socket6detail10GetSockOptEiiiPvPj = 0x000000000009c550 + __sdk_start;
_ZTIN2nn2sf6detail39ObjectImplFactoryWithStatelessAllocatorINS0_4cmif6client16CmifProxyFactoryINS_3hid10IHidServerENS0_4hipc6client18Hipc2ProxyKindBaseILNS8_6detail11MessageTypeE4EEENS0_25StatelessAllocationPolicyINS0_22ExpHeapStaticAllocatorILm16384ENS6_6detail9HidServerEEEEEE13ServiceObjectESJ_E6ObjectE = 0x00000000008e7710 + __sdk_start;
_ZN2nn7friends17NotificationQueueC1Ev = 0x0000000000116d54 + __sdk_start;
_ZN7android10VectorImpl16editItemLocationEm = 0x00000000002b3a10 + __sdk_start;
_ZN2nn5prepo10PlayReportC2Ev = 0x000000000015797c + __sdk_start;
exp2 = 0x00000000003a6f1c + __sdk_start;
_ZN2nn3hid6detail16GetGestureStatesEPiPNS0_12GestureStateEi = 0x00000000001ff2c0 + __sdk_start;
_ZN2nn3i2c20CommandListFormatterC2EPvm = 0x00000000002f62a8 + __sdk_start;
_ZN2nn2vi15FreeLayerHolderEPv = 0x00000000001be670 + __sdk_start;
_ZN2nn2sf4hipc6detail25HipcMessageBufferAccessor10SetPointerEimmi = 0x0000000000094898 + __sdk_start;
_ZN2nn2sf4cmif6client6detail13CmifProxyImplINS_7account24IBaasAccessTokenAccessorENS2_15CmifDomainProxyINS0_4hipc6client38Hipc2ClientSessionManagedProxyKindBaseINS9_18Hipc2ProxyKindBaseILNS8_6detail11MessageTypeE4EEEEEEENS0_30MemoryResourceAllocationPolicyES6_E21_nn_sf_sync_LoadCacheENS0_3OutIjvEERKNS0_9OutBufferERKNS5_3UidE = 0x00000000000b6790 + __sdk_start;
_ZN2nn3ngc6detail11CalcSelect0EjjPKmPKjPKh = 0x0000000000143690 + __sdk_start;
_ZN2nn3svc7aarch644lp6411StartThreadENS0_6HandleE = 0x00000000000a9c7c + __sdk_start;
_ZN2nn8settings6detail23GetNxControllerSettingsEPiPNS0_6system20NxControllerSettingsEi = 0x000000000015f3a0 + __sdk_start;
_ZTIN2nn7account8NotifierE = 0x00000000008d4098 + __sdk_start;
_ZTIN2nn2am7service21ILibraryAppletCreatorE = 0x00000000008d7de0 + __sdk_start;
_ZN2nn3mii6detail16Ver3StoreDataRaw11SetCreateIdERKNS1_12Ver3CreateIdE = 0x00000000001aef54 + __sdk_start;
_ZN2nn5audio16VoiceInfoManagerC2Ev = 0x0000000000179b94 + __sdk_start;
_ZN2nn7nlibsdk4heap12TlsHeapCache22GetAllocSizeFunc_Mode0EPS2_PKv = 0x000000000007ba1c + __sdk_start;
_ZN2nn2fs26EraseAndWriteParamDirectlyEPvm = 0x000000000005e660 + __sdk_start;
_ZTv0_n24_N7android11IMemoryHeapD0Ev = 0x0000000000279898 + __sdk_start;
_ZN2nn3hid19GetTouchScreenStateILm15EEEvPNS0_16TouchScreenStateIXT_EEE = 0x00000000002159e8 + __sdk_start;
_ZTSN2nn2sf4cmif6client6detail13CmifProxyImplINS_2am7service18IAppletProxyCommonENS2_15CmifDomainProxyINS0_4hipc6client38Hipc2ClientSessionManagedProxyKindBaseINSA_18Hipc2ProxyKindBaseILNS9_6detail11MessageTypeE4EEEEEEENS0_30MemoryResourceAllocationPolicyENS6_19ILibraryAppletProxyEEE = 0x0000000000755fa0 + __sdk_start;
_ZNSt3__14stodERKNS_12basic_stringIcNS_11char_traitsIcEENS_9allocatorIcEEEEPm = 0x0000000000344c64 + __sdk_start;
_ZN2nn3mii14UpdateMiiImageEPiRKNS_4util4UuidEPS4_i = 0x00000000001b3394 + __sdk_start;
_ZN2nn5audio22InitializeResampler6ChEPNS0_17ResamplerState6ChEj = 0x000000000017c350 + __sdk_start;
_ZN2nn7nlibsdk4heap14TlsHeapCentral12MakeFreeSpanEm = 0x000000000007e0c8 + __sdk_start;
_ZN2nn4pctl6detail3ipc20GetServiceForWatcherEv = 0x0000000000152158 + __sdk_start;
_ZN2nn2sf4cmif6client6detail13CmifProxyImplINS_8settings21ISystemSettingsServerENS0_4hipc6client18Hipc2ProxyKindBaseILNS7_6detail11MessageTypeE4EEENS0_25StatelessAllocationPolicyINS0_22ExpHeapStaticAllocatorILm16384ES6_EEEES6_E35_nn_sf_sync_SetNotificationSettingsERKNS5_6system20NotificationSettingsE = 0x0000000000164d50 + __sdk_start;
_ZTSN2nn3hid6detail23NfcXcdDeviceHandleStateE = 0x000000000078f2e0 + __sdk_start;
__fsetlocking = 0x00000000003b9bec + __sdk_start;
_ZN2nn5image6detail4jpeg18jinit_huff_decoderEPNS2_22jpeg_decompress_structE = 0x000000000001c2d8 + __sdk_start;
gcvt = 0x00000000003bdb00 + __sdk_start;
nnmem_nlib_get_native_last_error = 0x0000000000079d54 + __sdk_start;
nnosTimedWaitInterruptEvent = 0x000000000008a190 + __sdk_start;
_ZN2nn5audio14MemoryPoolInfo8FinalizeEv = 0x0000000000177100 + __sdk_start;
_ZN2nn2sf4hipc6client24Hipc2ClientCoreProcessorILNS1_6detail11MessageTypeE4ENS0_4cmif6detail14CoreMethodInfoINSt3__15tupleIJNS7_18OutRawArgumentInfoILm4ELm4ELl0EEENSB_ILm4ELm4ELl4EEENS7_17InRawArgumentInfoILm4ELm4ELl0EEENS7_18BufferArgumentInfoILi0ELi33ELm0EEEEEELm4ELm8ELb0EEESI_E7ProcessEPNS2_26Hipc2ClientProxyBaseObjectENS6_6client24OutRawClientArgumentTypeILm4ELm4EEESP_NSN_23InRawClientArgumentTypeILm4ELm4EvEENSN_24BufferClientArgumentTypeEj = 0x00000000000a0650 + __sdk_start;
_ZN2nn2vi17GetDisplayCmuModeEPNS0_7CmuModeEPKNS0_7DisplayE = 0x00000000001b6eb0 + __sdk_start;
_ZN2nn2oe20GetDefaultThemeColorEv = 0x000000000014ee28 + __sdk_start;
_ZTIN7android19IGraphicBufferAllocE = 0x00000000008f9060 + __sdk_start;
_ZN2nn3hid12GetNpadStateEPNS0_17NpadJoyRightStateERKj = 0x0000000000214780 + __sdk_start;
_ZN2nn3hid14InitializeNpadEv = 0x0000000000213644 + __sdk_start;
_ZN2nn2sf4cmif6client6detail13CmifProxyImplINS_8settings21ISystemSettingsServerENS0_4hipc6client18Hipc2ProxyKindBaseILNS7_6detail11MessageTypeE4EEENS0_25StatelessAllocationPolicyINS0_22ExpHeapStaticAllocatorILm16384ES6_EEEES6_E34_nn_sf_sync_GetPrimaryAlbumStorageENS0_3OutIivEE = 0x00000000001651bc + __sdk_start;
strncmp = 0x0000000000386900 + __sdk_start;
_ZN2nn3ngc6detail14ContentsReader15UnmountContentsEv = 0x0000000000137f28 + __sdk_start;
expf = 0x00000000003a74d4 + __sdk_start;
nvdcSetMode = 0x000000000023b56c + __sdk_start;
nnmem_nlib_thread_attr_init = 0x000000000006ac34 + __sdk_start;
_ZNSt3__112__rs_defaultC1ERKS0_ = 0x0000000000302b6c + __sdk_start;
_ZNK2nn2os6detail26ThreadManagerImplByHorizon13MapAliasStackEPKvS4_m = 0x000000000008e5f8 + __sdk_start;
_ZN2nn8irsensor6detail14SessionManager10GetSessionERKNS_6applet20AppletResourceUserIdE = 0x0000000000221230 + __sdk_start;
_ZTSN2nn5audio6detail26IAudioInManagerForDebuggerE = 0x0000000000777090 + __sdk_start;
_ZN2nn2sf4hipc6client24Hipc2ClientCoreProcessorILNS1_6detail11MessageTypeE4ENS0_4cmif6detail14CoreMethodInfoINSt3__15tupleIJNS7_18OutRawArgumentInfoILm16ELm1ELl0EEENS7_17InRawArgumentInfoILm4ELm4ELl0EEENSD_ILm4ELm4ELl4EEEEEELm8ELm16ELb0EEESG_E7ProcessEPNS2_26Hipc2ClientProxyBaseObjectENS6_6client24OutRawClientArgumentTypeILm16ELm1EEENSL_23InRawClientArgumentTypeILm4ELm4EvEESP_j = 0x00000000002196b8 + __sdk_start;
__nnmusl_pthread_attr_setschedpolicy = 0x00000000003c4a10 + __sdk_start;
_ZN2nn3hid15VibrationTargetC1Ev = 0x00000000002180b0 + __sdk_start;
_ZNK2nn5audio6server12VoiceContext18GetChannelResourceEi = 0x0000000000192ad8 + __sdk_start;
__cxa_deleted_virtual = 0x0000000000375d6c + __sdk_start;
expl = 0x00000000003a7654 + __sdk_start;
_ZTSN2nn2sf6detail38ObjectImplFactoryWithStatefulAllocatorINS0_4cmif6client16CmifProxyFactoryINS_3apm8IManagerENS0_4hipc6client18Hipc2ProxyKindBaseILNS8_6detail11MessageTypeE4EEENS0_30MemoryResourceAllocationPolicyEE13ServiceObjectESE_E6ObjectE = 0x00000000007581f0 + __sdk_start;
_ZTSNSt3__114codecvt_bynameIwc11__mbstate_tEE = 0x00000000007b4e40 + __sdk_start;
_ZN2nn7account13ProfileEditorD2Ev = 0x00000000000ba1f0 + __sdk_start;
multimedia_Free = 0x0000000000245a38 + __sdk_start;
_ZN2nn2vi17SetDisplayCmuLumaEPNS0_7DisplayEf = 0x00000000001b7170 + __sdk_start;
_ZN2nn3mii6detail19CompareCharInfoImpl15CompareCharInfoEPiiRKNS0_21ParamCharInfoAccessorES6_ = 0x00000000001a3070 + __sdk_start;
_ZN7android7String89removeAllEPKc = 0x00000000002b09ec + __sdk_start;
_ZN2nn2sf4cmif6client6detail13CmifProxyImplINS_5visrv2sf19IManagerRootServiceENS0_4hipc6client18Hipc2ProxyKindBaseILNS8_6detail11MessageTypeE4EEENS0_30MemoryResourceAllocationPolicyES7_E50_nn_sf_sync_GetDisplayServiceWithProxyNameExchangeENS0_3OutINS0_13SharedPointerINS6_26IApplicationDisplayServiceEEEvEEjNS_2vi9ProxyNameE = 0x00000000001b836c + __sdk_start;
_ZTIN2nn2sf4cmif6client6detail13CmifProxyImplINS_4nifm6detail14IStaticServiceENS2_15CmifDomainProxyINS0_4hipc6client38Hipc2ClientSessionManagedProxyKindBaseINSA_18Hipc2ProxyKindBaseILNS9_6detail11MessageTypeE4EEEEEEENS0_25StatelessAllocationPolicyINS0_22ExpHeapStaticAllocatorILm16384ENS6_21ServiceProviderClient30CreateNifmUserServiceObjectTagEEEEES7_EE = 0x00000000008dde10 + __sdk_start;
_ZN2nn4util10BitFlagSetILi256ENS_3hid11KeyboardKeyEE4FlagILi71EE4MaskE = 0x0000000000790378 + __sdk_start;
_ZTINSt3__117__widen_from_utf8ILm32EEE = 0x0000000000905900 + __sdk_start;
_ZN2nn2sf6detail39ObjectImplFactoryWithStatelessAllocatorINS0_4cmif6client16CmifProxyFactoryINS_7timesrv6detail7service12ISystemClockENS4_15CmifDomainProxyINS0_4hipc6client38Hipc2ClientSessionManagedProxyKindBaseINSC_18Hipc2ProxyKindBaseILNSB_6detail11MessageTypeE4EEEEEEENS0_25StatelessAllocationPolicyINS0_22ExpHeapStaticAllocatorILm16384ENS_4time6detail7service21ServiceProviderClient30CreateTimeUserServiceObjectTagEEEEEE13ServiceObjectESS_E6Object7ReleaseEv = 0x000000000016ff28 + __sdk_start;
_ZN2nn5audio6server13CommandBuffer26GeneratePerformanceCommandEPKNS1_25PerformanceEntryAddressesENS0_22PerformanceCommandTypeEj = 0x000000000018b15c + __sdk_start;
_ZN2nn4diag26EnableDefaultAbortObserverEb = 0x0000000000044090 + __sdk_start;
_ZTIN2nn2sf4cmif6client16CmifProxyFactoryINS_4nifm6detail8IRequestENS2_15CmifDomainProxyINS0_4hipc6client38Hipc2ClientSessionManagedProxyKindBaseINS9_18Hipc2ProxyKindBaseILNS8_6detail11MessageTypeE4EEEEEEENS0_25StatelessAllocationPolicyINS0_22ExpHeapStaticAllocatorILm16384ENS5_21ServiceProviderClient30CreateNifmUserServiceObjectTagEEEEEE13ServiceObjectE = 0x00000000008de420 + __sdk_start;
_ZN2nn2sf4hipc6client24Hipc2ClientCoreProcessorILNS1_6detail11MessageTypeE4ENS0_4cmif6detail14CoreMethodInfoINSt3__15tupleIJNS7_18OutRawArgumentInfoILm4ELm4ELl0EEENS7_18BufferArgumentInfoILi0ELi5ELm0EEEEEELm0ELm4ELb0EEESF_E7ProcessEPNS2_26Hipc2ClientProxyBaseObjectENS6_6client24OutRawClientArgumentTypeILm4ELm4EEENSK_24BufferClientArgumentTypeEj = 0x0000000000067288 + __sdk_start;
_ZNSt3__19strstreamD1Ev = 0x00000000003483b8 + __sdk_start;
_ZN2nn3hid6system29IsUsbFullKeyControllerEnabledEv = 0x0000000000216918 + __sdk_start;
_ZN2nn3hid6detail17AssertValidXpadIdERKNS0_11BasicXpadIdE = 0x00000000001fd58c + __sdk_start;
_ZN2nn2la32NifmToWifiWebAuthArgumentsWriterD1Ev = 0x00000000001a13b4 + __sdk_start;
_ZN2nn4lmem6detail21RestoreFrameHeapStateEPNS1_8HeapHeadERKNS0_14FrameHeapStateE = 0x000000000006a42c + __sdk_start;
NvOsAllocLeak = 0x000000000023e1f0 + __sdk_start;
_ZN2nn2sf4cmif6client34CmifDomainProxyClientCoreProcessorINS0_4hipc6client38Hipc2ClientSessionManagedProxyKindBaseINS5_18Hipc2ProxyKindBaseILNS4_6detail11MessageTypeE4EEEEENS1_6detail14CoreMethodInfoINSt3__15tupleIJNSC_18OutRawArgumentInfoILm32ELm8ELl0EEEEEELm0ELm32ELb0EEESI_E7ProcessEPNS2_23CmifDomainClientMessageISB_E15ProxyBaseObjectENS2_24OutRawClientArgumentTypeILm32ELm8EEEj = 0x000000000017003c + __sdk_start;
_ZN2nn2sf4cmif6client6detail13CmifProxyImplINS_3hid16IHidSystemServerENS0_4hipc6client18Hipc2ProxyKindBaseILNS7_6detail11MessageTypeE4EEENS0_25StatelessAllocationPolicyINS0_22ExpHeapStaticAllocatorILm16384ENS5_6detail15HidSystemServerEEEEES6_E17GetCmifBaseObjectEv = 0x000000000021cbc0 + __sdk_start;
_ZTIN2nn2sf4hipc6server25HipcServerSessionManagerTINS0_4cmif6server20CmifServerObjectInfoEEE = 0x00000000008d0b30 + __sdk_start;
_ZN2nn8settings6detail23GetDataDeletionSettingsEPNS0_6system20DataDeletionSettingsE = 0x000000000015eacc + __sdk_start;
ungetc = 0x00000000003bbcfc + __sdk_start;
iswdigit = 0x00000000003a03f4 + __sdk_start;
_ZNK2nn5audio6server14EffectInfoBase15GetSingleBufferENS2_5IndexE = 0x000000000018ecd8 + __sdk_start;
ffsl = 0x00000000003af7dc + __sdk_start;
_ZN2nn5image6detail4jpeg19jpeg_input_completeEPNS2_22jpeg_decompress_structE = 0x000000000001924c + __sdk_start;
_ZN2nn3mii23GetUpdateMiiImageResultEPiNS_6applet13StorageHandleE = 0x00000000001b358c + __sdk_start;
_ZN2nn5audio14SetDelayInGainEPNS0_9DelayTypeEf = 0x0000000000174e60 + __sdk_start;
_ZN2nn4htcs6detail6listenENS_2sf13SharedPointerINS_3tma7ISocketEEEiRi = 0x0000000000126de4 + __sdk_start;
nnutilZlib_inflateUndermine = 0x0000000000037838 + __sdk_start;
_ZTSN2nn2sf4cmif6client6detail9CmifProxyINS_7friends6detail3ipc14IFriendServiceENS2_15CmifDomainProxyINS0_4hipc6client38Hipc2ClientSessionManagedProxyKindBaseINSB_18Hipc2ProxyKindBaseILNSA_6detail11MessageTypeE4EEEEEEENS0_30MemoryResourceAllocationPolicyEvEE = 0x0000000000762b10 + __sdk_start;
_ZN2nn2os6detail13MultiWaitImpl19InternalWaitAnyImplEbNS_8TimeSpanE = 0x000000000008bdd0 + __sdk_start;
_ZN2nn2lm14SetDestinationEj = 0x0000000000129f2c + __sdk_start;
_ZN2nn2sf4hipc6detail25HipcMessageBufferAccessor10SetReceiveEimmj = 0x000000000009499c + __sdk_start;
_ZN2nn3ngc6detail12OutputStream14GetWorkBuffer_Ev = 0x000000000013e720 + __sdk_start;
_ZN2nn3hid6detail7Session8ActivateEv = 0x00000000002079d4 + __sdk_start;
_ZNK2nn3web20SharePageReturnValue18GetPostServiceNameEv = 0x000000000023796c + __sdk_start;
_ZTIN2nn2sf4cmif6client16CmifProxyFactoryINS_3apm8IManagerENS0_4hipc6client18Hipc2ProxyKindBaseILNS6_6detail11MessageTypeE4EEENS0_30MemoryResourceAllocationPolicyEE13ServiceObjectE = 0x00000000008d9210 + __sdk_start;
_ZNSt3__117__call_once_proxyINS_5tupleIJRFvvEEEEEEvPv = 0x000000000037521c + __sdk_start;
_ZN2nn5audio9AddReverbEPNS0_19AudioRendererConfigEPNS0_10ReverbTypeEPvmPNS0_10SubMixTypeEi = 0x0000000000175514 + __sdk_start;
_ZThn16_N2nn2sf4cmif6client6detail13CmifProxyImplINS_5visrv2sf21ISystemDisplayServiceENS0_4hipc6client18Hipc2ProxyKindBaseILNS8_6detail11MessageTypeE4EEENS0_30MemoryResourceAllocationPolicyES7_E17GetCmifBaseObjectEv = 0x00000000001b9ae8 + __sdk_start;
_ZN2nn5audio6server24AudioRendererManagerImplD1Ev = 0x0000000000188c80 + __sdk_start;
_ZN2nn3ldn6detail30CreateUserServiceCreatorByHipcEv = 0x0000000000232954 + __sdk_start;
_ZN2nn2ec6detail30ShowShopConsumableItemListImplENS1_10LaunchModeENS_13ApplicationIdERKNS_7account3UidENS0_8SourceIdE = 0x000000000019dfb8 + __sdk_start;
_ZN2nn3hid6detail19GetInputSourceStateEPNS0_6system16InputSourceStateERKNS_4util10BitFlagSetILi32ENS2_13InputSourceIdEEE = 0x00000000001ffe3c + __sdk_start;
_ZNSt3__112basic_stringIwNS_11char_traitsIwEENS_9allocatorIwEEE6appendEPKw = 0x0000000000341f18 + __sdk_start;
_ZN2nn2sf4cmif6client6detail13CmifProxyImplINS_4nifm6detail8IRequestENS2_15CmifDomainProxyINS0_4hipc6client38Hipc2ClientSessionManagedProxyKindBaseINSA_18Hipc2ProxyKindBaseILNS9_6detail11MessageTypeE4EEEEEEENS0_25StatelessAllocationPolicyINS0_22ExpHeapStaticAllocatorILm16384ENS6_21ServiceProviderClient30CreateNifmUserServiceObjectTagEEEEES7_E25_nn_sf_sync_SetRejectableEb = 0x0000000000145cc8 + __sdk_start;
_ZN2nn2sf4cmif6client34CmifDomainProxyClientCoreProcessorINS0_4hipc6client38Hipc2ClientSessionManagedProxyKindBaseINS5_18Hipc2ProxyKindBaseILNS4_6detail11MessageTypeE4EEEEENS1_6detail14CoreMethodInfoINSt3__15tupleIJNSC_17InRawArgumentInfoILm16ELm8ELl0EEENSG_ILm8ELm8ELl16EEENSC_18BufferArgumentInfoILi0ELi5ELm0EEEEEELm24ELm0ELb0EEESL_E7ProcessEPNS2_23CmifDomainClientMessageISB_E15ProxyBaseObjectENS2_23InRawClientArgumentTypeILm16ELm8EvEENSS_ILm8ELm8EvEENS2_24BufferClientArgumentTypeEj = 0x00000000000b14d8 + __sdk_start;
dirname = 0x00000000003af6fc + __sdk_start;
_ZNSt3__130__libcpp_thread_get_current_idEv = 0x00000000003497b0 + __sdk_start;
_ZN7android7String812appendFormatEPKcz = 0x00000000002b06ec + __sdk_start;
duplocale = 0x00000000003a16fc + __sdk_start;
_ZN2nn2os23SignalConditionVariableEPNS0_21ConditionVariableTypeE = 0x00000000000863f4 + __sdk_start;
_ZN2nn2sf4cmif6client6detail13CmifProxyImplINS_7account4baas18IGuestLoginRequestENS2_15CmifDomainProxyINS0_4hipc6client38Hipc2ClientSessionManagedProxyKindBaseINSA_18Hipc2ProxyKindBaseILNS9_6detail11MessageTypeE4EEEEEEENS0_25StatelessAllocationPolicyINS0_22ExpHeapStaticAllocatorILm2048ENS5_6detail12ObjectHolder24ObjectHolderAllocatorTagEEEEES7_E17GetCmifBaseObjectEv = 0x00000000000afe64 + __sdk_start;
NvRmSurfaceComputeSecondFieldOffset = 0x000000000024c85c + __sdk_start;
nnmem_nlib_swapendian_32_generic = 0x000000000006f44c + __sdk_start;
_ZN22nerd_gillette_internal5otete11ImageCodec213DecodeInPlaceIhEEbRKNS_15StaticImageViewIT_EERNS0_14InputBitStreamEf = 0x0000000000228fbc + __sdk_start;
_ZTIN2nn2sf4cmif6client6detail9CmifProxyINS_4nifm6detail14IStaticServiceENS2_15CmifDomainProxyINS0_4hipc6client38Hipc2ClientSessionManagedProxyKindBaseINSA_18Hipc2ProxyKindBaseILNS9_6detail11MessageTypeE4EEEEEEENS0_25StatelessAllocationPolicyINS0_22ExpHeapStaticAllocatorILm16384ENS6_21ServiceProviderClient30CreateNifmUserServiceObjectTagEEEEEvEE = 0x00000000008dde60 + __sdk_start;
_ZTVN2nn3hid6detail13BasicXpadLifoE = 0x00000000008e6078 + __sdk_start;
_ZNK2nn3mii6detail11CoreDataRaw6VerifyEv = 0x00000000001a3780 + __sdk_start;
_ZN2nn7account11Declaration4SwapERS1_ = 0x00000000000acef8 + __sdk_start;
_ZNSt3__17codecvtIDic11__mbstate_tED1Ev = 0x0000000000312764 + __sdk_start;
_ZN2nn2sf4cmif6client6detail13CmifProxyImplINS_2am7service18IDisplayControllerENS2_15CmifDomainProxyINS0_4hipc6client38Hipc2ClientSessionManagedProxyKindBaseINSA_18Hipc2ProxyKindBaseILNS9_6detail11MessageTypeE4EEEEEEENS0_30MemoryResourceAllocationPolicyES7_E46_nn_sf_sync_AcquireCallerAppletCaptureBufferExENS0_3OutIbvEENSK_INS0_12NativeHandleEvEE = 0x00000000000bfc18 + __sdk_start;
_ZN7android10VectorImpl14insertVectorAtERKS0_m = 0x00000000002b2d38 + __sdk_start;
_ZN2nn2sf4cmif6client6detail13CmifProxyImplINS_7account4baas24IManagerForSystemServiceENS2_15CmifDomainProxyINS0_4hipc6client38Hipc2ClientSessionManagedProxyKindBaseINSA_18Hipc2ProxyKindBaseILNS9_6detail11MessageTypeE4EEEEEEENS0_25StatelessAllocationPolicyINS0_22ExpHeapStaticAllocatorILm2048ENS5_6detail12ObjectHolder24ObjectHolderAllocatorTagEEEEENS6_14IAdministratorEE32_nn_sf_sync_GetNintendoAccountIdENS0_3OutINS5_17NintendoAccountIdEvEE = 0x00000000000b37d4 + __sdk_start;
_ZTv0_n24_N7android7BBinderD1Ev = 0x0000000000276300 + __sdk_start;
_ZN2nn2sf4cmif6client6detail13CmifProxyImplINS_7account4baas14IAdministratorENS2_15CmifDomainProxyINS0_4hipc6client38Hipc2ClientSessionManagedProxyKindBaseINSA_18Hipc2ProxyKindBaseILNS9_6detail11MessageTypeE4EEEEEEENS0_25StatelessAllocationPolicyINS0_22ExpHeapStaticAllocatorILm2048ENS5_6detail12ObjectHolder24ObjectHolderAllocatorTagEEEEES7_E35_nn_sf_sync_SynchronizeProfileAsyncENS0_3OutINS0_13SharedPointerINSK_13IAsyncContextEEEvEE = 0x00000000000b3b5c + __sdk_start;
_ZN2nn6applet37WaitPopFromInteractiveOutChannelEventENS0_19LibraryAppletHandleE = 0x00000000000ca038 + __sdk_start;
setjmp = 0x0000000000386ba4 + __sdk_start;
_ZN2nn4bcat25MountDeliveryCacheStorageEv = 0x00000000000cbbe4 + __sdk_start;
_ZN2nn2os6detail13ThreadManager26SetInitialThreadNameUnsafeEPNS0_10ThreadTypeE = 0x000000000008ac64 + __sdk_start;
_ZNSt3__119__shared_weak_count14__release_weakEv = 0x000000000033d78c + __sdk_start;
_ZN2nn5swkbd6detail18InlineKeyboardImplD1Ev = 0x00000000001b59b8 + __sdk_start;
_ZN7android8String166appendERKS0_ = 0x00000000002af298 + __sdk_start;
_ZN2nn2sf4cmif6client6detail13CmifProxyImplINS_4nifm6detail15IGeneralServiceENS2_15CmifDomainProxyINS0_4hipc6client38Hipc2ClientSessionManagedProxyKindBaseINSA_18Hipc2ProxyKindBaseILNS9_6detail11MessageTypeE4EEEEEEENS0_25StatelessAllocationPolicyINS0_22ExpHeapStaticAllocatorILm16384ENS6_21ServiceProviderClient30CreateNifmUserServiceObjectTagEEEEES7_E30_nn_sf_sync_SetExclusiveClientENS5_8ClientIdE = 0x00000000001455a0 + __sdk_start;
_ZNSt3__110to_wstringEd = 0x0000000000346e38 + __sdk_start;
_ZNSt3__110to_wstringEe = 0x0000000000347028 + __sdk_start;
_ZN2nn4lmem6detail12DumpHeapHeadEPKNS1_8HeapHeadE = 0x0000000000069528 + __sdk_start;
_ZNSt3__110to_wstringEf = 0x0000000000346c44 + __sdk_start;
__memmove_fast = 0x00000000003977e4 + __sdk_start;
_ZN2nn6fontll18ScalableFontEngine15AcquireGlyphmapEjt = 0x00000000001c3a14 + __sdk_start;
_ZN2nn2sf4cmif6client6detail13CmifProxyImplINS_2am7service18IDisplayControllerENS2_15CmifDomainProxyINS0_4hipc6client38Hipc2ClientSessionManagedProxyKindBaseINSA_18Hipc2ProxyKindBaseILNS9_6detail11MessageTypeE4EEEEEEENS0_30MemoryResourceAllocationPolicyES7_E44_nn_sf_sync_UpdateLastForegroundCaptureImageEv = 0x00000000000bf9e8 + __sdk_start;
_ZTSN2nn2sf6detail38ObjectImplFactoryWithStatefulAllocatorINS0_4cmif6client16CmifProxyFactoryINS_2am7service24ITransferStorageAccessorENS4_15CmifDomainProxyINS0_4hipc6client38Hipc2ClientSessionManagedProxyKindBaseINSB_18Hipc2ProxyKindBaseILNSA_6detail11MessageTypeE4EEEEEEENS0_30MemoryResourceAllocationPolicyEE13ServiceObjectESJ_E6ObjectE = 0x00000000007542e0 + __sdk_start;
_ZN2nn3mii6detail18Ver3HairColorTableE = 0x000000000078123a + __sdk_start;
_ZNSt3__110to_wstringEi = 0x000000000034629c + __sdk_start;
_ZN2nn2fs6detail12FileAccessor7SetSizeEl = 0x000000000004b6b0 + __sdk_start;
_ZNSt3__110to_wstringEj = 0x0000000000346438 + __sdk_start;
_ZNKSt3__112basic_stringIwNS_11char_traitsIwEENS_9allocatorIwEEE4copyEPwmm = 0x000000000034301c + __sdk_start;
_ZNSt3__110to_wstringEl = 0x00000000003465d4 + __sdk_start;
_ZNSt3__110to_wstringEm = 0x0000000000346770 + __sdk_start;
_ZN2nn2fs26ReadOnlyFileSystemTemplateINSt3__110unique_ptrINS0_3fsa11IFileSystemENS2_14default_deleteIS5_EEEEE10DoOpenFileEPNS3_INS4_5IFileENS6_ISA_EEEEPKcNS0_8OpenModeE = 0x0000000000061b60 + __sdk_start;
_ZNK2nn2os6detail26ThreadManagerImplByHorizon18GetCurrentPriorityEPKNS0_10ThreadTypeE = 0x000000000008eb34 + __sdk_start;
_ZTSN2nn2sf4cmif6client16CmifProxyFactoryINS_2am7service30IAllSystemAppletProxiesServiceENS2_15CmifDomainProxyINS0_4hipc6client38Hipc2ClientSessionManagedProxyKindBaseINS9_18Hipc2ProxyKindBaseILNS8_6detail11MessageTypeE4EEEEEEENS0_30MemoryResourceAllocationPolicyEE13ServiceObjectE = 0x000000000074f520 + __sdk_start;
_ZN2nn2sf4cmif6client6detail13CmifProxyImplINS_4pctl6detail3ipc23IParentalControlServiceENS2_15CmifDomainProxyINS0_4hipc6client38Hipc2ClientSessionManagedProxyKindBaseINSB_18Hipc2ProxyKindBaseILNSA_6detail11MessageTypeE4EEEEEEENS0_30MemoryResourceAllocationPolicyES8_E46_nn_sf_sync_ConfirmLaunchApplicationPermissionENS_3ncm13ApplicationIdERKNS0_7InArrayIaEEb = 0x0000000000152b8c + __sdk_start;
_ZN7android21defaultServiceManagerEv = 0x0000000000283b90 + __sdk_start;
_ZN2nn2sf4hipc6client24Hipc2ClientCoreProcessorILNS1_6detail11MessageTypeE4ENS0_4cmif6detail14CoreMethodInfoINSt3__15tupleIJNS7_17InRawArgumentInfoILm4ELm4ELl0EEENS7_18OutRawArgumentInfoILm8ELm8ELl0EEENSB_ILm8ELm8ELl8EEEEEELm16ELm8ELb1EEESG_E7ProcessEPNS2_26Hipc2ClientProxyBaseObjectENS6_6client23InRawClientArgumentTypeILm4ELm4EvEENSL_24OutRawClientArgumentTypeILm8ELm8EEENSM_ILm8ELm8EvEEj = 0x000000000021d144 + __sdk_start;
_ZN2nn2fs11RomPathTool10PathParser20GetNextDirectoryNameEPNS1_12RomEntryNameE = 0x0000000000049128 + __sdk_start;
_ZTIN2nn3hid6detail17CaptureButtonLifoE = 0x00000000008e6470 + __sdk_start;
_ZNSt3__110ctype_base5printE = 0x00000000007b38ae + __sdk_start;
_ZTIN2nn2sf6detail39ObjectImplFactoryWithStatelessAllocatorINS0_4cmif6client16CmifProxyFactoryINS_7timesrv6detail7service16ITimeZoneServiceENS4_15CmifDomainProxyINS0_4hipc6client38Hipc2ClientSessionManagedProxyKindBaseINSC_18Hipc2ProxyKindBaseILNSB_6detail11MessageTypeE4EEEEEEENS0_25StatelessAllocationPolicyINS0_22ExpHeapStaticAllocatorILm16384ENS_4time6detail7service21ServiceProviderClient30CreateTimeUserServiceObjectTagEEEEEE13ServiceObjectESS_E6ObjectE = 0x00000000008e0c10 + __sdk_start;
_ZN2nn2sf4cmif6client6detail13CmifProxyImplINS_4nifm6detail8IRequestENS2_15CmifDomainProxyINS0_4hipc6client38Hipc2ClientSessionManagedProxyKindBaseINSA_18Hipc2ProxyKindBaseILNS9_6detail11MessageTypeE4EEEEEEENS0_25StatelessAllocationPolicyINS0_22ExpHeapStaticAllocatorILm16384ENS6_21ServiceProviderClient30CreateNifmUserServiceObjectTagEEEEES7_E36_nn_sf_sync_SetRequirementByRevisionEj = 0x0000000000145dec + __sdk_start;
_ZTVNSt3__115basic_streambufIwNS_11char_traitsIwEEEE = 0x0000000000903cb8 + __sdk_start;
_ZN2nn3mii6detail16Ver3StoreDataRaw12SetHairColorEi = 0x00000000001aebac + __sdk_start;
_ZN2nn2fs18CreateCacheStorageENS_3ncm13ApplicationIdEmllj = 0x000000000006378c + __sdk_start;
_ZN2nn3nfp10FlushDebugERKNS0_12DeviceHandleE = 0x000000000012ded4 + __sdk_start;
_ZN2nn2os24TimedReceiveMessageQueueEPmPNS0_16MessageQueueTypeENS_8TimeSpanE = 0x0000000000088148 + __sdk_start;
_ZN2nn3hid6detail28SetTouchScreenAutoPilotStateILm16EEENS_6ResultERKNS0_5debug25TouchScreenAutoPilotStateIXT_EEE = 0x000000000020c800 + __sdk_start;
_ZNSt3__110to_wstringEx = 0x000000000034690c + __sdk_start;
_ZNSt3__110to_wstringEy = 0x0000000000346aa8 + __sdk_start;
_ZN2nn3mii15PrivateDatabase3GetEPiPNS0_9StoreDataEii = 0x00000000001b1420 + __sdk_start;
_ZTVNSt3__112system_errorE = 0x0000000000907b30 + __sdk_start;
_ZNSt3__115numpunct_bynameIcED0Ev = 0x0000000000337ea8 + __sdk_start;
_ZN2nn2sf4impl6detail21ServiceObjectImplBase12AddReferenceEv = 0x0000000000098bfc + __sdk_start;
_ZN2nn2os15InitializeEventEPNS0_9EventTypeEbNS0_14EventClearModeE = 0x0000000000086694 + __sdk_start;
_ZNK2nn2sf13SharedPointerINS_3apm8ISessionEE19FunctionForBoolTypeEv = 0x00000000000c8438 + __sdk_start;
NvOsGetConfigString = 0x000000000023e774 + __sdk_start;
_ZN2nn5audio13AudioInBuffer16AddressAlignmentE = 0x0000000000774140 + __sdk_start;
_ZTSN2nn2sf4cmif6client16CmifProxyFactoryINS_2am7service15IDebugFunctionsENS2_15CmifDomainProxyINS0_4hipc6client38Hipc2ClientSessionManagedProxyKindBaseINS9_18Hipc2ProxyKindBaseILNS8_6detail11MessageTypeE4EEEEEEENS0_30MemoryResourceAllocationPolicyEE13ServiceObjectE = 0x0000000000752170 + __sdk_start;
nnosTimedSendMessageQueue = 0x000000000008a1b0 + __sdk_start;
_ZN2nn2fs24HierarchicalRomFileTable8FinalizeEv = 0x0000000000045ef8 + __sdk_start;
NvRmSurfaceGetDefaultLayout = 0x000000000024c6e8 + __sdk_start;
_ZNK2nn7friends13FriendRequest31GetExternalApplicationCatalogIdEv = 0x0000000000116c70 + __sdk_start;
_ZN2nn2sf13SharedPointerINS_3nsd6detail8IManagerEED2Ev = 0x000000000014b9dc + __sdk_start;
nvcecSetEventCb = 0x00000000002399cc + __sdk_start;
_ZN2nn7nlibsdk4heap10CachedHeap15ReleaseAllCacheEv = 0x0000000000082c58 + __sdk_start;
_ZN7android7String8C1EPKcm = 0x00000000002afb44 + __sdk_start;
_ZN2nn5audio6server14MemoryPoolInfo13SetCpuAddressENS0_7CpuAddrEm = 0x000000000018f410 + __sdk_start;
_ZN2nn5audio23SplitterDestinationDataC2Ei = 0x00000000001794dc + __sdk_start;
NvRmMemReadStrided = 0x000000000025166c + __sdk_start;
_ZTSN2nn3pcv19IArbitrationManagerE = 0x00000000007b17f0 + __sdk_start;
_ZN2nn2sf4cmif6client6detail13CmifProxyImplINS_7account4baas18IGuestLoginRequestENS2_15CmifDomainProxyINS0_4hipc6client38Hipc2ClientSessionManagedProxyKindBaseINSA_18Hipc2ProxyKindBaseILNS9_6detail11MessageTypeE4EEEEEEENS0_25StatelessAllocationPolicyINS0_22ExpHeapStaticAllocatorILm2048ENS5_6detail12ObjectHolder24ObjectHolderAllocatorTagEEEEES7_E12GetProxyInfoEv = 0x00000000000afd84 + __sdk_start;
_ZTINSt3__18time_getIwNS_19istreambuf_iteratorIwNS_11char_traitsIwEEEEEE = 0x0000000000906360 + __sdk_start;
_ZN7android12ConsumerBaseD1Ev = 0x0000000000293cd0 + __sdk_start;
_ZN2nn3err18ErrorResultVariantC2ERKNS0_9ErrorCodeE = 0x000000000010fc94 + __sdk_start;
NvRmChannelSetSyncPointName = 0x0000000000255cc0 + __sdk_start;
_ZN2nn6applet31RequestExitLibraryAppletAndWaitENS0_19LibraryAppletHandleE = 0x00000000000c9a94 + __sdk_start;
_ZN2nn3mii6detail11UtilityImpl15GetRandomUint32Ej = 0x00000000001a8830 + __sdk_start;
_ZN2nn2fs6detail30FileSystemServiceObjectAdapter15DoOpenDirectoryEPNSt3__110unique_ptrINS0_3fsa10IDirectoryENS3_14default_deleteIS6_EEEEPKcNS0_17OpenDirectoryModeE = 0x000000000005ce48 + __sdk_start;
_ZTSN2nn2sf4cmif6client6detail9CmifProxyINS_3apm18IManagerPrivilegedENS0_4hipc6client18Hipc2ProxyKindBaseILNS7_6detail11MessageTypeE4EEENS0_30MemoryResourceAllocationPolicyEvEE = 0x0000000000758d70 + __sdk_start;
nnsslConnectionPeek = 0x000000000016a60c + __sdk_start;
_ZNKSt3__18time_getIcNS_19istreambuf_iteratorIcNS_11char_traitsIcEEEEE18__get_day_year_numERiRS4_S4_RjRKNS_5ctypeIcEE = 0x000000000031f90c + __sdk_start;
strncpy = 0x00000000003bfe54 + __sdk_start;
_ZN7android6Region7andSelfERKS0_ii = 0x00000000002acdd4 + __sdk_start;
_ZN2nn6crypto6detail7Md5Impl10InitializeEv = 0x0000000000004100 + __sdk_start;
_ZTSN2nn2am7service24IApplicationProxyServiceE = 0x00000000007581b0 + __sdk_start;
_ZN2nn2sf4cmif6client6detail13CmifProxyImplINS_7friends6detail3ipc14IFriendServiceENS2_15CmifDomainProxyINS0_4hipc6client38Hipc2ClientSessionManagedProxyKindBaseINSB_18Hipc2ProxyKindBaseILNSA_6detail11MessageTypeE4EEEEEEENS0_30MemoryResourceAllocationPolicyES8_E35_nn_sf_sync_ChangePlayLogPermissionERKNS_7account3UidEi = 0x000000000011a92c + __sdk_start;
_ZN2nn2sf4cmif6client34CmifDomainProxyClientCoreProcessorINS0_4hipc6client38Hipc2ClientSessionManagedProxyKindBaseINS5_18Hipc2ProxyKindBaseILNS4_6detail11MessageTypeE4EEEEENS1_6detail14CoreMethodInfoINSt3__15tupleIJNSC_18OutRawArgumentInfoILm4ELm4ELl0EEENSC_18BufferArgumentInfoILi0ELi6ELm0EEENSC_17InRawArgumentInfoILm16ELm8ELl8EEENSK_ILm4ELm4ELl0EEENSK_ILm16ELm8ELl24EEENSK_ILm8ELm8ELl40EEEEEELm48ELm4ELb1EEESP_E7ProcessEPNS2_23CmifDomainClientMessageISB_E15ProxyBaseObjectENS2_24OutRawClientArgumentTypeILm4ELm4EEENS2_24BufferClientArgumentTypeENS2_23InRawClientArgumentTypeILm16ELm8EvEENSZ_ILm4ELm4EvEES10_NSZ_ILm8ELm8EvEEj = 0x000000000011abe8 + __sdk_start;
_ZN2nn2sf4cmif6client6detail13CmifProxyImplINS_3hid10IHidServerENS0_4hipc6client18Hipc2ProxyKindBaseILNS7_6detail11MessageTypeE4EEENS0_25StatelessAllocationPolicyINS0_22ExpHeapStaticAllocatorILm16384ENS5_6detail9HidServerEEEEES6_E40_nn_sf_sync_ResetAccelerometerParametersENS_6applet20AppletResourceUserIdENS5_19SixAxisSensorHandleE = 0x000000000021a0d8 + __sdk_start;
_ZN2nn5audio6common11DumpCommandEPKNS0_25CircularBufferSinkCommandE = 0x0000000000193e28 + __sdk_start;
__nnmusl_pthread_attr_setscope = 0x00000000003c4a34 + __sdk_start;
NvRmGpuLibClose = 0x0000000000267788 + __sdk_start;
_ZN2nn3web36ShowOfflineHtmlPageArgWithPlayReport20SetPlayReportEnabledEb = 0x0000000000235f04 + __sdk_start;
_ZN2nn6socket8InetNtopEiPKvPcj = 0x000000000009a620 + __sdk_start;
_ZTIN2nn2sf6detail39ObjectImplFactoryWithStatelessAllocatorINS0_4cmif6client16CmifProxyFactoryINS_7account7profile14IProfileEditorENS4_15CmifDomainProxyINS0_4hipc6client38Hipc2ClientSessionManagedProxyKindBaseINSB_18Hipc2ProxyKindBaseILNSA_6detail11MessageTypeE4EEEEEEENS0_25StatelessAllocationPolicyINS0_22ExpHeapStaticAllocatorILm2048ENS6_6detail12ObjectHolder24ObjectHolderAllocatorTagEEEEEE13ServiceObjectESP_E6ObjectE = 0x00000000008d2bf0 + __sdk_start;
_ZN2nn3mii6detail11UtilityImpl15GetRandomUint32Ev = 0x00000000001a88bc + __sdk_start;
_ZN2nn2sf4cmif6client6detail13CmifProxyImplINS_7account6detail13IAsyncContextENS2_15CmifDomainProxyINS0_4hipc6client38Hipc2ClientSessionManagedProxyKindBaseINSA_18Hipc2ProxyKindBaseILNS9_6detail11MessageTypeE4EEEEEEENS0_25StatelessAllocationPolicyINS0_22ExpHeapStaticAllocatorILm2048ENS6_12ObjectHolder24ObjectHolderAllocatorTagEEEEES7_E26_nn_sf_sync_GetSystemEventENS0_3OutINS0_12NativeHandleEvEE = 0x00000000000aec80 + __sdk_start;
_ZNK7android6Parcel9readInt64EPl = 0x0000000000281100 + __sdk_start;
_ZN2nn4nifm6detail13RequestClient13SetRejectableEb = 0x00000000001441b0 + __sdk_start;
_ZN2nn2vi8FinalizeEv = 0x00000000001b7c20 + __sdk_start;
_ZN2nn4pctl22GetSettingsLastUpdatedEPNS_4time9PosixTimeE = 0x0000000000150988 + __sdk_start;
nnmem_nlib_strto_double = 0x00000000000776e8 + __sdk_start;
_ZN2nn6socket8resolver3tls6Client10InitializeEv = 0x00000000000a69a4 + __sdk_start;
_ZNK2nn3ngc6detail3Set7MemSizeEv = 0x00000000001406e4 + __sdk_start;
_ZN2nn4util8Color4u811ConstantRedE = 0x0000000000739e1c + __sdk_start;
_ZN2nn7friends29DeclareCloseOnlinePlaySessionERKNS_7account3UidE = 0x0000000000112268 + __sdk_start;
_ZN2nn2sf4cmif6client6detail13CmifProxyImplINS_8settings21ISystemSettingsServerENS0_4hipc6client18Hipc2ProxyKindBaseILNS7_6detail11MessageTypeE4EEENS0_25StatelessAllocationPolicyINS0_22ExpHeapStaticAllocatorILm16384ES6_EEEES6_E42_nn_sf_sync_GetAccountNotificationSettingsENS0_3OutIivEERKNS0_8OutArrayINS5_6system27AccountNotificationSettingsEEE = 0x0000000000164d70 + __sdk_start;
_ZN2nn2sf4cmif6client32GetClientProcessorWithObjectBaseINS2_15CmifDomainProxyINS0_4hipc6client38Hipc2ClientSessionManagedProxyKindBaseINS6_18Hipc2ProxyKindBaseILNS5_6detail11MessageTypeE4EEEEEEEE14ObjectAssignerINS0_30MemoryResourceAllocationPolicyENS_14MemoryResourceEE14AllocateObjectINS_4bcat6detail3ipc29IDeliveryCacheProgressServiceEEEvi = 0x00000000000cec34 + __sdk_start;
_ZN2nn3mii6detail21GetMouthColorFromVer3ENS1_14Ver3MouthColorE = 0x00000000001a3034 + __sdk_start;
_ZN2nn2sf4impl6detail17ImplTemplateBaseTINS_5audio6detail12IAudioDeviceES6_NS0_6detail18EmplacedImplHolderINS4_6server24AudioRendererManagerImpl15AudioDeviceImplEEESC_S6_E38_nn_sf_sync_QueryAudioDeviceInputEventENS0_3OutINS0_12NativeHandleEvEE = 0x00000000001895ec + __sdk_start;
_ZN2nn5codec17GetOpusBitRateMaxEi = 0x000000000010cabc + __sdk_start;
_ZN2nn4util10BitFlagSetILi256ENS_3hid11KeyboardKeyEE4FlagILi102EE4MaskE = 0x0000000000790758 + __sdk_start;
_ZNK2nn5audio6common10NodeStates11ResultBeginEv = 0x000000000017aebc + __sdk_start;
_ZN7android7String8C1EPKDim = 0x00000000002afdbc + __sdk_start;
_ZNK2nn3mii6detail12StoreDataRaw11GetEyeColorEv = 0x00000000001a80d4 + __sdk_start;
_ZN2nn3mii6detail11CoreDataRaw9SetGlassYEi = 0x00000000001a5a48 + __sdk_start;
_ZN2nn2sf6detail38ObjectImplFactoryWithStatefulAllocatorINS0_4cmif6client16CmifProxyFactoryINS_3pcv19IArbitrationManagerENS0_4hipc6client18Hipc2ProxyKindBaseILNS8_6detail11MessageTypeE4EEENS0_30MemoryResourceAllocationPolicyEE13ServiceObjectESE_E6Object7ReleaseEv = 0x00000000002f89f0 + __sdk_start;
_ZN2nn5audio24SetI3dl2ReverbParametersEPNS0_15I3dl2ReverbTypeEPKNS0_23I3dl2ReverbParameterSetE = 0x00000000001764e8 + __sdk_start;
_ZN2nn3hid6detail19GetJoyXpadLeftStateEPNS0_12JoyXpadStateERKNS0_9JoyXpadIdE = 0x00000000002009a8 + __sdk_start;
_ZN2nn5audio22AudioRendererParameter17MixBufferCountMaxE = 0x0000000000774170 + __sdk_start;
_ZN2nn2sf4hipc6client24Hipc2ClientCoreProcessorILNS1_6detail11MessageTypeE4ENS0_4cmif6detail14CoreMethodInfoINSt3__15tupleIJNS7_18OutRawArgumentInfoILm6ELm2ELl0EEEEEELm0ELm6ELb0EEESD_E7ProcessEPNS2_26Hipc2ClientProxyBaseObjectENS6_6client24OutRawClientArgumentTypeILm6ELm2EEEj = 0x000000000016272c + __sdk_start;
_ZN2nn2os6detail13MultiWaitImpl21ConstructObjectsArrayEPjPPNS1_19MultiWaitHolderBaseEi = 0x000000000008bc84 + __sdk_start;
__memalign = 0x00000000003c4898 + __sdk_start;
_ZN2nn2vi15AddToLayerStackEPNS0_5LayerENS0_10LayerStackE = 0x00000000001be488 + __sdk_start;
_ZN2nn6socket8resolver10serializer13DNSSerializer10FromBufferI12sockaddr_in6EElRT_PKhm = 0x00000000000a9634 + __sdk_start;
_ZN2nn5codec11OpusEncoder10SetBitRateEi = 0x000000000010d1c4 + __sdk_start;
_ZN2nn3hid6detail14NpadSystemLifoD0Ev = 0x0000000000208e60 + __sdk_start;
_ZN2nn4util10BitFlagSetILi256ENS_3hid11KeyboardKeyEE4FlagILi34EE4MaskE = 0x000000000078fed8 + __sdk_start;
_ZNSt11logic_errorC2ERKS_ = 0x000000000033ed28 + __sdk_start;
_ZN2nn3ngc6detail15NullInputStream6Close_Ev = 0x000000000013ea50 + __sdk_start;
_ZNK7android6Region14mergeExclusiveERKS0_ii = 0x00000000002ad01c + __sdk_start;
_ZN2nn2sf4cmif6client34CmifDomainProxyClientCoreProcessorINS0_4hipc6client38Hipc2ClientSessionManagedProxyKindBaseINS5_18Hipc2ProxyKindBaseILNS4_6detail11MessageTypeE4EEEEENS1_6detail14CoreMethodInfoINSt3__15tupleIJNSC_18OutRawArgumentInfoILm4ELm4ELl0EEENSG_ILm4ELm4ELl4EEENSC_17InRawArgumentInfoILm4ELm4ELl0EEENSC_18BufferArgumentInfoILi0ELi34ELm0EEENSG_ILm4ELm4ELl8EEEEEELm4ELm12ELb0EEESO_E7ProcessEPNS2_23CmifDomainClientMessageISB_E15ProxyBaseObjectENS2_24OutRawClientArgumentTypeILm4ELm4EEESW_NS2_23InRawClientArgumentTypeILm4ELm4EvEENS2_24BufferClientArgumentTypeESW_j = 0x00000000000a3634 + __sdk_start;
__letf2 = 0x000000000037c518 + __sdk_start;
__nnmusl_sched_cpucount = 0x00000000003c4e68 + __sdk_start;
_ZTIN2nn5visrv2sf21ISystemDisplayServiceE = 0x00000000008e4a30 + __sdk_start;
_ZN2nn7nlibsdk4heap11CentralHeap9MakeCacheEPNS1_10CachedHeapE = 0x0000000000081d10 + __sdk_start;
_ZN2nn6socket11GetAddrInfoEPKcS2_PK8addrinfoPPS3_ = 0x000000000009a6a8 + __sdk_start;
_ZN2nn3nfc8GetStateEv = 0x000000000012a7ac + __sdk_start;
_ZN2nn3hid6detail17CaptureButtonLifoD0Ev = 0x0000000000208e90 + __sdk_start;
_ZN2nn2la19FinishLibraryAppletEv = 0x00000000001a0af8 + __sdk_start;
_ZN2nn2sf4cmif6client6detail13CmifProxyImplINS_7friends6detail3ipc20INotificationServiceENS2_15CmifDomainProxyINS0_4hipc6client38Hipc2ClientSessionManagedProxyKindBaseINSB_18Hipc2ProxyKindBaseILNSA_6detail11MessageTypeE4EEEEEEENS0_30MemoryResourceAllocationPolicyES8_E17GetCmifBaseObjectEv = 0x000000000011ed64 + __sdk_start;
_ZN2nn6fontll18ScalableFontEngineD2Ev = 0x00000000001c30b0 + __sdk_start;
_ZN2nn2fs11GetRightsIdEPNS0_8RightsIdEPhPKc = 0x0000000000060a40 + __sdk_start;
_ZTSN2nn2sf4cmif6client6detail13CmifProxyImplINS_7account4http15IOAuthProcedureENS2_15CmifDomainProxyINS0_4hipc6client38Hipc2ClientSessionManagedProxyKindBaseINSA_18Hipc2ProxyKindBaseILNS9_6detail11MessageTypeE4EEEEEEENS0_25StatelessAllocationPolicyINS0_22ExpHeapStaticAllocatorILm2048ENS5_6detail12ObjectHolder24ObjectHolderAllocatorTagEEEEES7_EE = 0x000000000074d9a0 + __sdk_start;
_ZN2nn4util14DecompressGzipEPvmPKvmS1_m = 0x000000000003b520 + __sdk_start;
_ZN2nn2sf4cmif6client6detail13CmifProxyImplINS_8settings21ISystemSettingsServerENS0_4hipc6client18Hipc2ProxyKindBaseILNS7_6detail11MessageTypeE4EEENS0_25StatelessAllocationPolicyINS0_22ExpHeapStaticAllocatorILm16384ES6_EEEES6_E35_nn_sf_sync_GetNotificationSettingsENS0_3OutINS5_6system20NotificationSettingsEvEE = 0x0000000000164d30 + __sdk_start;
_ZN2nn6socket10SetSockOptEiiiPKvj = 0x000000000009a550 + __sdk_start;
_ZN2nn2vi13ObjectManager14GetDisplayLockEv = 0x00000000001bea24 + __sdk_start;
_ZN2nn5swkbd14InlineKeyboard21SetUsbKeyboardEnabledEb = 0x00000000001b5770 + __sdk_start;
_ZNK7android12MemoryDealer4dumpEPKc = 0x000000000027cf10 + __sdk_start;
_ZN2nn3mii6detail25CalculateSizeAndAlignment20AddSizeWithAlignmentEmm = 0x00000000001a20e8 + __sdk_start;
_ZN2nn5audio28ClearPerformanceDetailTargetEPNS0_19AudioRendererConfigE = 0x0000000000177edc + __sdk_start;
_ZN2nn3ntc4shim31CorrectionNetworkClockAsyncTask26GetFinishNotificationEventEv = 0x000000000017166c + __sdk_start;
_ZN2nn2ec6detail34ShowShopApplicationInformationImplENS1_10LaunchModeENS0_5NsUidERKNS_7account3UidENS0_8SourceIdEPKc = 0x000000000019da40 + __sdk_start;
_ZN2nn2fs26GetAndClearSdCardErrorInfoEPNS0_16StorageErrorInfoEPmPcm = 0x0000000000065aac + __sdk_start;
_ZN2nn2sf4cmif6client6detail13CmifProxyImplINS_4pctl6detail3ipc23IParentalControlServiceENS2_15CmifDomainProxyINS0_4hipc6client38Hipc2ClientSessionManagedProxyKindBaseINSB_18Hipc2ProxyKindBaseILNSA_6detail11MessageTypeE4EEEEEEENS0_30MemoryResourceAllocationPolicyES8_E31_nn_sf_sync_GenerateInquiryCodeENS0_3OutINS5_11InquiryCodeEvEE = 0x0000000000152f94 + __sdk_start;
_ZThn8_N7android23BnGraphicBufferProducer17onGetNativeHandleEjRjRb = 0x0000000000296fe0 + __sdk_start;
_ZNSt3__19__num_putIcE21__widen_and_group_intEPcS2_S2_S2_RS2_S3_RKNS_6localeE = 0x000000000031ad48 + __sdk_start;
_ZN2nn5audio31SetI3dl2ReverbLateReverbDensityEPNS0_15I3dl2ReverbTypeEf = 0x00000000001762d0 + __sdk_start;
_ZN2nn3mii13AppletManagerC2Ev = 0x00000000001b3184 + __sdk_start;
_ZTVN2nn2sf6detail38ObjectImplFactoryWithStatefulAllocatorINS0_4cmif6client16CmifProxyFactoryINS_2am7service19IOverlayAppletProxyENS4_15CmifDomainProxyINS0_4hipc6client38Hipc2ClientSessionManagedProxyKindBaseINSB_18Hipc2ProxyKindBaseILNSA_6detail11MessageTypeE4EEEEEEENS0_30MemoryResourceAllocationPolicyEE13ServiceObjectESJ_E6ObjectE = 0x00000000008d86c8 + __sdk_start;
_ZNSt3__115recursive_mutex6unlockEv = 0x000000000033db20 + __sdk_start;
vfprintf = 0x0000000000391c74 + __sdk_start;
_ZN2nn5codec6detail21GetFinalRangeInternalEP11OpusEncoder = 0x000000000010ddf4 + __sdk_start;
_ZN2nn3nfp6detail19StartAmiiboSettingsEPNS0_28ReturnValueForAmiiboSettingsERKNS0_27StartParamForAmiiboSettingsE = 0x0000000000133c24 + __sdk_start;
fill_outline_cff = 0x00000000001ed798 + __sdk_start;
_ZNK7android6Region16isTriviallyEqualERKS0_ = 0x00000000002ac22c + __sdk_start;
_ZNSt3__117__widen_from_utf8ILm16EED2Ev = 0x0000000000312764 + __sdk_start;
_ZN2nn4edid6detail10InitializeEPNS0_11DisplayInfoE = 0x000000000004028c + __sdk_start;
_ZN2nn2fs13MemoryStorage4ReadElPvm = 0x000000000004ae3c + __sdk_start;
_ZNK2nn5image13ExifExtractor25ExtractEffectiveDimensionEPNS0_9DimensionE = 0x000000000002f758 + __sdk_start;
_ZN2nn4pctl18DisableAllFeaturesEv = 0x000000000014fdf0 + __sdk_start;
_ZN2nn2sf4cmif6client6detail13CmifProxyImplINS_7account31IAccountServiceForSystemServiceENS2_15CmifDomainProxyINS0_4hipc6client38Hipc2ClientSessionManagedProxyKindBaseINS9_18Hipc2ProxyKindBaseILNS8_6detail11MessageTypeE4EEEEEEENS0_25StatelessAllocationPolicyINS0_22ExpHeapStaticAllocatorILm2048ENS5_6detail12ObjectHolder24ObjectHolderAllocatorTagEEEEES6_E34_nn_sf_sync_DebugSetUserStateCloseERKNS5_3UidE = 0x00000000000b0630 + __sdk_start;
_ZN2nn2sf6detail38ObjectImplFactoryWithStatefulAllocatorINS0_4cmif6client16CmifProxyFactoryINS_2am7service15ISelfControllerENS4_15CmifDomainProxyINS0_4hipc6client38Hipc2ClientSessionManagedProxyKindBaseINSB_18Hipc2ProxyKindBaseILNSA_6detail11MessageTypeE4EEEEEEENS0_30MemoryResourceAllocationPolicyEE13ServiceObjectESJ_E6Object7ReleaseEv = 0x00000000000beb3c + __sdk_start;
_ZN2nn2fs11FileStorage12OperateRangeENS0_8IStorage11OperationIdEll = 0x000000000004967c + __sdk_start;
__nnmusl_stdout_lock_finalize = 0x0000000000388ccc + __sdk_start;
__strndup = 0x0000000000397944 + __sdk_start;
nnmem_nlib_utf32char_to_utf8 = 0x000000000006fd20 + __sdk_start;
_ZN2nn3hid6detail28ResetAccelerometerParametersENS0_19SixAxisSensorHandleE = 0x00000000002050e4 + __sdk_start;
_ZNSt3__113basic_ostreamIwNS_11char_traitsIwEEE6sentryC2ERS3_ = 0x000000000030f7e4 + __sdk_start;
_ZTIN2nn2sf4impl6detail17ImplTemplateBaseTINS_5audio6detail21IAudioRendererManagerES6_NS0_6detail27UnmanagedEmplacedImplHolderINS4_6server24AudioRendererManagerImplEEESB_S6_EE = 0x00000000008e3ae0 + __sdk_start;
_ZN2nn2sf4cmif6client6detail13CmifProxyImplINS_7account31IAccountServiceForAdministratorENS2_15CmifDomainProxyINS0_4hipc6client38Hipc2ClientSessionManagedProxyKindBaseINS9_18Hipc2ProxyKindBaseILNS8_6detail11MessageTypeE4EEEEEEENS0_25StatelessAllocationPolicyINS0_22ExpHeapStaticAllocatorILm2048ENS5_6detail12ObjectHolder24ObjectHolderAllocatorTagEEEEES6_E27_nn_sf_sync_SetUserPositionERKNS5_3UidEi = 0x00000000000b23f8 + __sdk_start;
_ZTSNSt3__114__num_get_baseE = 0x00000000007b4540 + __sdk_start;
nnmem_nlib_sleep = 0x0000000000079e6c + __sdk_start;
_ZNSt3__15alignEmmRPvRm = 0x000000000033d9a8 + __sdk_start;
_ZN2nn5audio18GetSubMixMixVolumeEPKNS0_10SubMixTypeEPKNS0_12FinalMixTypeEii = 0x000000000017969c + __sdk_start;
_ZNSt3__112__rs_default4__c_E = 0x0000000000a09060 + __sdk_start;
FSS_get_outline = 0x00000000001c7500 + __sdk_start;
_ZN2nn3ssl10Connection19GetVerifyCertErrorsEPNS_6ResultEPjS4_j = 0x0000000000169cd8 + __sdk_start;
_ZTSN2nn2sf4cmif6client16CmifProxyFactoryINS_4pctl6detail3ipc30IParentalControlServiceFactoryENS2_15CmifDomainProxyINS0_4hipc6client38Hipc2ClientSessionManagedProxyKindBaseINSA_18Hipc2ProxyKindBaseILNS9_6detail11MessageTypeE4EEEEEEENS0_30MemoryResourceAllocationPolicyEE13ServiceObjectE = 0x000000000076dc60 + __sdk_start;
_ZN2nn8settings6detail16SetNfcEnableFlagEb = 0x0000000000160030 + __sdk_start;
_ZN7android8BpBinder20onIncStrongAttemptedEjPKv = 0x00000000002778a4 + __sdk_start;
_ZTIN2nn2sf4cmif6client6detail9CmifProxyINS_2am7service18ICommonStateGetterENS2_15CmifDomainProxyINS0_4hipc6client38Hipc2ClientSessionManagedProxyKindBaseINSA_18Hipc2ProxyKindBaseILNS9_6detail11MessageTypeE4EEEEEEENS0_30MemoryResourceAllocationPolicyEvEE = 0x00000000008d67b0 + __sdk_start;
_ZTIN2nn2sf6detail39ObjectImplFactoryWithStatelessAllocatorINS0_4cmif6client16CmifProxyFactoryINS_7account31IAccountServiceForSystemServiceENS4_15CmifDomainProxyINS0_4hipc6client38Hipc2ClientSessionManagedProxyKindBaseINSA_18Hipc2ProxyKindBaseILNS9_6detail11MessageTypeE4EEEEEEENS0_25StatelessAllocationPolicyINS0_22ExpHeapStaticAllocatorILm2048ENS6_6detail12ObjectHolder24ObjectHolderAllocatorTagEEEEEE13ServiceObjectESO_E6ObjectE = 0x00000000008d24e0 + __sdk_start;
_ZN2nn2sf4cmif6client6detail13CmifProxyImplINS_4pctl6detail3ipc23IParentalControlServiceENS2_15CmifDomainProxyINS0_4hipc6client38Hipc2ClientSessionManagedProxyKindBaseINSB_18Hipc2ProxyKindBaseILNSA_6detail11MessageTypeE4EEEEEEENS0_30MemoryResourceAllocationPolicyES8_E35_nn_sf_sync_IsRestrictedByPlayTimerENS0_3OutIbvEE = 0x000000000015316c + __sdk_start;
_ZN2nn4nifm22BindTelemetryInfoEventEPNS_2os15SystemEventTypeENS1_14EventClearModeE = 0x0000000000149e2c + __sdk_start;
_ZTIN2nn7account6detail18OAuthProcedureBaseE = 0x00000000008d1968 + __sdk_start;
copy_graymap = 0x00000000001ea7dc + __sdk_start;
_ZNSt3__16localeC1ERKS0_S2_i = 0x00000000003311d4 + __sdk_start;
_ZN2nn2sf4cmif6server22CmifDomainServerObject23CmifDomainServerMessage19SetOutNativeHandlesEPNS0_12NativeHandleE = 0x0000000000098058 + __sdk_start;
_ZN2nn2fs19MountSystemSaveDataEPKcmNS0_6UserIdE = 0x00000000000663c8 + __sdk_start;
_ZN2nn2sf4hipc6client24Hipc2ClientCoreProcessorILNS1_6detail11MessageTypeE4ENS0_4cmif6detail14CoreMethodInfoINSt3__15tupleIJNS7_18OutRawArgumentInfoILm40ELm4ELl0EEEEEELm0ELm40ELb0EEESD_E7ProcessEPNS2_26Hipc2ClientProxyBaseObjectENS6_6client24OutRawClientArgumentTypeILm40ELm4EEEj = 0x0000000000165dc0 + __sdk_start;
_ZN2nn2sf4cmif6client6detail13CmifProxyImplINS_2am7service19IApplicationCreatorENS2_15CmifDomainProxyINS0_4hipc6client38Hipc2ClientSessionManagedProxyKindBaseINSA_18Hipc2ProxyKindBaseILNS9_6detail11MessageTypeE4EEEEEEENS0_30MemoryResourceAllocationPolicyES7_E17GetCmifBaseObjectEv = 0x00000000000c3518 + __sdk_start;
_ZNSt13exception_ptraSERKS_ = 0x0000000000304bb4 + __sdk_start;
_ZTINSt3__114codecvt_bynameIcc11__mbstate_tEE = 0x00000000009068f0 + __sdk_start;
_ZN2nn4pctl18PairingAccountInfo15GetAccountStateEPNS0_19PairingAccountStateE = 0x0000000000151380 + __sdk_start;
_ZNSt3__121__horizon_thread_data14allocate_stackEv = 0x0000000000306a3c + __sdk_start;
_ZNK2nn3mem17StandardAllocator18GetAllocatableSizeEv = 0x0000000000083420 + __sdk_start;
_ZN2nn7account28NetworkServiceAccountManagerC2ERKNS0_3UidEPNS0_4baas24IManagerForSystemServiceE = 0x00000000000b7e3c + __sdk_start;
_ZNSt3__115numpunct_bynameIwEC2ERKNS_12basic_stringIcNS_11char_traitsIcEENS_9allocatorIcEEEEm = 0x0000000000338118 + __sdk_start;
_ZN2nn2sf6detail38ObjectImplFactoryWithStatefulAllocatorINS0_4cmif6client16CmifProxyFactoryINS_2am7service20IApplicationAccessorENS4_15CmifDomainProxyINS0_4hipc6client38Hipc2ClientSessionManagedProxyKindBaseINSB_18Hipc2ProxyKindBaseILNSA_6detail11MessageTypeE4EEEEEEENS0_30MemoryResourceAllocationPolicyEE13ServiceObjectESJ_E6Object12AddReferenceEv = 0x00000000000c0768 + __sdk_start;
_ZN2nn2sf4cmif6client6detail13CmifProxyImplINS_3hid16IHidSystemServerENS0_4hipc6client18Hipc2ProxyKindBaseILNS7_6detail11MessageTypeE4EEENS0_25StatelessAllocationPolicyINS0_22ExpHeapStaticAllocatorILm16384ENS5_6detail15HidSystemServerEEEEES6_E46_nn_sf_sync_CancelSixAxisSensorUserCalibrationENS5_6system25UniqueSixAxisSensorHandleE = 0x000000000021c934 + __sdk_start;
_ZN7android19initialize_string16Ev = 0x00000000002aec10 + __sdk_start;
_ZTv0_n24_NSt3__113basic_ostreamIcNS_11char_traitsIcEEED1Ev = 0x000000000030d794 + __sdk_start;
_ZN2nn2sf4cmif6client6detail13CmifProxyImplINS_2am7service21IStackableAppletProxyENS2_15CmifDomainProxyINS0_4hipc6client38Hipc2ClientSessionManagedProxyKindBaseINSA_18Hipc2ProxyKindBaseILNS9_6detail11MessageTypeE4EEEEEEENS0_30MemoryResourceAllocationPolicyENS6_17IApplicationProxyEE39_nn_sf_sync_GetProcessWindingControllerENS0_3OutINS0_13SharedPointerINS6_25IProcessWindingControllerEEEvEE = 0x00000000000c53ec + __sdk_start;
__nnmusl_pthread_attr_setschedparam = 0x00000000003c4904 + __sdk_start;
_ZNSt3__121recursive_timed_mutexC2Ev = 0x000000000033dde0 + __sdk_start;
_ZNK2nn2sf4hipc6detail25HipcMessageBufferAccessor7GetSendEi = 0x0000000000094960 + __sdk_start;
_ZTVN2nn3ngc6detail11InputStreamE = 0x00000000008ddc48 + __sdk_start;
_ZN2nn4util6detail15AtanSampleTableE = 0x000000000073984c + __sdk_start;
_ZTVNSt3__113basic_ostreamIcNS_11char_traitsIcEEEE = 0x0000000000903df8 + __sdk_start;
_ZN2nn3hid6detail41EnableUnintendedHomeButtonInputProtectionERKjb = 0x0000000000202f5c + __sdk_start;
_ZN2nn8settings6detail27SetBluetoothDevicesSettingsEPKNS0_6system24BluetoothDevicesSettingsEi = 0x000000000015e73c + __sdk_start;
_ZN2nn2vi20ListDisplayRgbRangesEPNS0_8RgbRangeEiPKNS0_7DisplayE = 0x00000000001bcddc + __sdk_start;
_ZN2nn3mii6detail16Ver3StoreDataRaw16SetFavoriteColorEi = 0x00000000001aeb0c + __sdk_start;
_ZN2nn2sf4hipc6client24Hipc2ClientCoreProcessorILNS1_6detail11MessageTypeE4ENS0_4cmif6detail14CoreMethodInfoINSt3__15tupleIJNS7_18OutRawArgumentInfoILm16ELm4ELl0EEENS7_17InRawArgumentInfoILm8ELm8ELl8EEENSD_ILm4ELm4ELl0EEEEEELm16ELm16ELb1EEESG_E7ProcessEPNS2_26Hipc2ClientProxyBaseObjectENS6_6client24OutRawClientArgumentTypeILm16ELm4EEENSL_23InRawClientArgumentTypeILm8ELm8EvEENSO_ILm4ELm4EvEEj = 0x000000000021b968 + __sdk_start;
_ZN2nn3ngc15ProfanityFilter16CleanUpVariablesEv = 0x00000000001340b8 + __sdk_start;
_ZN2nn2sf4hipc6client24Hipc2ClientCoreProcessorILNS1_6detail11MessageTypeE4ENS0_4cmif6detail14CoreMethodInfoINSt3__15tupleIJNS7_17InRawArgumentInfoILm36ELm1ELl0EEEEEELm36ELm0ELb0EEESD_E7ProcessEPNS2_26Hipc2ClientProxyBaseObjectENS6_6client23InRawClientArgumentTypeILm36ELm1EvEEj = 0x0000000000167160 + __sdk_start;
_ZN2nn8settings6detail18GetFirmwareVersionEPNS0_6system15FirmwareVersionE = 0x000000000015f088 + __sdk_start;
nnmem_nlib_physical_free = 0x000000000007a518 + __sdk_start;
_ZTVSt12length_error = 0x0000000000908aa8 + __sdk_start;
_ZN2nn4util8BitArray3AndEPS1_RKS1_S4_ = 0x000000000003abfc + __sdk_start;
_ZN2nn2sf4cmif6client6detail13CmifProxyImplINS_7timesrv6detail7service14IStaticServiceENS2_15CmifDomainProxyINS0_4hipc6client38Hipc2ClientSessionManagedProxyKindBaseINSB_18Hipc2ProxyKindBaseILNSA_6detail11MessageTypeE4EEEEEEENS0_25StatelessAllocationPolicyINS0_22ExpHeapStaticAllocatorILm16384ENS_4time6detail7service21ServiceProviderClient30CreateTimeUserServiceObjectTagEEEEES8_E38_nn_sf_sync_GetStandardUserSystemClockENS0_3OutINS0_13SharedPointerINS7_12ISystemClockEEEvEE = 0x000000000016fb48 + __sdk_start;
_ZN2nn3ngc6detail17MemoryInputStreamD2Ev = 0x000000000013ea6c + __sdk_start;
_ZN2nn2sf4cmif6client6detail13CmifProxyImplINS_3mii6detail16IDatabaseServiceENS2_15CmifDomainProxyINS0_4hipc6client38Hipc2ClientSessionManagedProxyKindBaseINSA_18Hipc2ProxyKindBaseILNS9_6detail11MessageTypeE4EEEEEEENS0_25StatelessAllocationPolicyINS0_22ExpHeapStaticAllocatorILm16384ENS6_21ServiceProviderClient30CreateNifmUserServiceObjectTagEEEEES7_E18_nn_sf_sync_FormatEv = 0x00000000001b201c + __sdk_start;
__cxa_get_globals = 0x00000000003750d0 + __sdk_start;
_ZN2nn3ngc6detail14ContentsReader14GetVersionDataEPvj = 0x000000000013840c + __sdk_start;
_ZN2nn5swkbd6detail18InlineKeyboardImpl12SendRequest_ENS0_14RequestCommandEPKvm = 0x00000000001b5cd4 + __sdk_start;
NvRmMemWrite = 0x000000000025161c + __sdk_start;
_ZNSt3__18ios_base9__xindex_E = 0x0000000000a09aa0 + __sdk_start;
_ZN2nn2vi20SetDisplayPowerStateEPNS0_7DisplayENS0_10PowerStateE = 0x00000000001bcabc + __sdk_start;
_ZN2nn2sf4hipc6client24Hipc2ClientCoreProcessorILNS1_6detail11MessageTypeE4ENS0_4cmif6detail14CoreMethodInfoINSt3__15tupleIJNS7_18OutRawArgumentInfoILm40ELm8ELl0EEEEEELm0ELm40ELb0EEESD_E7ProcessEPNS2_26Hipc2ClientProxyBaseObjectENS6_6client24OutRawClientArgumentTypeILm40ELm8EEEj = 0x00000000000c8978 + __sdk_start;
__floatundidf = 0x0000000000381954 + __sdk_start;
nnmem_nlib_dir_read = 0x000000000007b484 + __sdk_start;
_ZTTNSt3__110ostrstreamE = 0x00000000009077c0 + __sdk_start;
_ZTIN2nn2sf4cmif6client6detail9CmifProxyINS_2am7service25IProcessWindingControllerENS2_15CmifDomainProxyINS0_4hipc6client38Hipc2ClientSessionManagedProxyKindBaseINSA_18Hipc2ProxyKindBaseILNS9_6detail11MessageTypeE4EEEEEEENS0_30MemoryResourceAllocationPolicyEvEE = 0x00000000008d7700 + __sdk_start;
_ZNSt3__110ctype_base5punctE = 0x00000000007b38ba + __sdk_start;
_ZTIN2nn2sf4cmif6client6detail13CmifProxyImplINS_7account19IAccountServiceBaseENS2_15CmifDomainProxyINS0_4hipc6client38Hipc2ClientSessionManagedProxyKindBaseINS9_18Hipc2ProxyKindBaseILNS8_6detail11MessageTypeE4EEEEEEENS0_25StatelessAllocationPolicyINS0_22ExpHeapStaticAllocatorILm2048ENS5_6detail12ObjectHolder24ObjectHolderAllocatorTagEEEEENS5_31IAccountServiceForSystemServiceEEE = 0x00000000008d2430 + __sdk_start;
_ZTVN2nn2os6detail22MultiWaitHolderOfEventE = 0x00000000008d02b8 + __sdk_start;
nnosGetThreadNamePointer = 0x000000000008a064 + __sdk_start;
_ZN2nn2sf4hipc6client24Hipc2ClientCoreProcessorILNS1_6detail11MessageTypeE4ENS0_4cmif6detail14CoreMethodInfoINSt3__15tupleIJNS7_17InRawArgumentInfoILm8ELm8ELl0EEENSB_ILm8ELm8ELl8EEENSB_ILm8ELm8ELl16EEEEEELm24ELm0ELb1EEESF_E7ProcessEPNS2_26Hipc2ClientProxyBaseObjectENS6_6client23InRawClientArgumentTypeILm8ELm8EvEESM_SM_j = 0x00000000000910f8 + __sdk_start;
_ZN2nn6crypto6detail11XtsModeImplINS1_20XtsModeGenericHelperEE6UpdateEPvmPKvm = 0x0000000000007b90 + __sdk_start;
_ZN2nn3fgm8Debugger21GetSystemEventPointerEv = 0x00000000002f33b8 + __sdk_start;
_ZN2nn3apm28GetInternalManagerPrivilegedEv = 0x00000000000c78d8 + __sdk_start;
_ZN7android12BpMemoryHeapC2ERKNS_2spINS_7IBinderEEE = 0x0000000000278c90 + __sdk_start;
nvgr_get_stereo_info = 0x00000000002671c4 + __sdk_start;
_ZNK2nn3mii15PrivateDatabase9FindIndexERKNS0_8CreateIdEb = 0x00000000001b148c + __sdk_start;
_ZN2nn4lmem13AdjustExpHeapEPNS0_6detail8HeapHeadE = 0x0000000000068994 + __sdk_start;
silk_process_NLSFs = 0x00000000000f2184 + __sdk_start;
_ZN2nn2sf6detail39ObjectImplFactoryWithStatelessAllocatorINS0_4cmif6client16CmifProxyFactoryINS_7account31IAccountServiceForAdministratorENS4_15CmifDomainProxyINS0_4hipc6client38Hipc2ClientSessionManagedProxyKindBaseINSA_18Hipc2ProxyKindBaseILNS9_6detail11MessageTypeE4EEEEEEENS0_25StatelessAllocationPolicyINS0_22ExpHeapStaticAllocatorILm2048ENS6_6detail12ObjectHolder24ObjectHolderAllocatorTagEEEEEE13ServiceObjectESO_E6Object7ReleaseEv = 0x00000000000b1d98 + __sdk_start;
_ZNSt3__110ctype_base5blankE = 0x00000000007b38be + __sdk_start;
_ZN2nn3mii6detail14EyeShadowColorE = 0x00000000007812b4 + __sdk_start;
_ZN2nn7account31NintendoAccountLinkageProcedureC1Ev = 0x00000000000b99fc + __sdk_start;
_ZN2nn2os11GetHostArgvEv = 0x0000000000086258 + __sdk_start;
_ZN2nn2sf4cmif6client6detail13CmifProxyImplINS_3pcv6detail11IPcvServiceENS0_4hipc6client18Hipc2ProxyKindBaseILNS8_6detail11MessageTypeE4EEENS0_30MemoryResourceAllocationPolicyES7_E29_nn_sf_sync_SetVoltageEnabledEib = 0x00000000002f7a08 + __sdk_start;
_ZN7android19BufferQueueConsumer13acquireBufferEPNS_22IGraphicBufferConsumer10BufferItemEl = 0x000000000028d16c + __sdk_start;
_ZN2nn5image11JpegDecoder6DecodeEPvmiS2_m = 0x000000000002df84 + __sdk_start;
_ZN2nn5audio26I3dl2Reverb6ChannelMonoMixEPNS0_16I3dl2ReverbStateEPPKiPPij = 0x000000000019a544 + __sdk_start;
_ZNK2nn5codec11OpusEncoder17GetBitRateControlEv = 0x000000000010d2ac + __sdk_start;
_ZN2nn7account49ExternalNetworkServiceAccountIntroducingProcedureC2EOS1_ = 0x00000000000b9d70 + __sdk_start;
_ZN2nv21GetGraphicsMemoryInfoEPNS_10MemoryInfoE = 0x00000000002462e0 + __sdk_start;
_ZN2nn3mii6detail11CoreDataRaw7SetEyeXEi = 0x00000000001a5348 + __sdk_start;
_ZNSt3__19__num_getIcE17__stage2_int_prepERNS_8ios_baseEPcRc = 0x00000000003199b8 + __sdk_start;
_ZN2nn3fgm8DebuggerD2Ev = 0x00000000002f3540 + __sdk_start;
nnosSetThreadNamePointer = 0x000000000008a060 + __sdk_start;
_ZN2nn8settings6detail23GetEciDeviceCertificateEPNS0_7factory24EccB233DeviceCertificateE = 0x000000000015ebac + __sdk_start;
_ZN2nn2sf4cmif6client34CmifDomainProxyClientCoreProcessorINS0_4hipc6client38Hipc2ClientSessionManagedProxyKindBaseINS5_18Hipc2ProxyKindBaseILNS4_6detail11MessageTypeE4EEEEENS1_6detail14CoreMethodInfoINSt3__15tupleIJNSC_18OutRawArgumentInfoILm8ELm4ELl0EEENSC_21OutHandleArgumentInfoILi0ELi1EEENSG_ILm4ELm4ELl8EEENSC_18BufferArgumentInfoILi0ELi10ELm0EEENSC_17InRawArgumentInfoILm16ELm8ELl0EEEEEELm16ELm12ELb0EEESP_E7ProcessEPNS2_23CmifDomainClientMessageISB_E15ProxyBaseObjectENS2_24OutRawClientArgumentTypeILm8ELm4EEENS2_27OutHandleClientArgumentTypeENSW_ILm4ELm4EEENS2_24BufferClientArgumentTypeENS2_23InRawClientArgumentTypeILm16ELm8EvEEj = 0x00000000001550f0 + __sdk_start;
nnmem_nlib_memchr = 0x000000000006c4cc + __sdk_start;
_ZN2nn7friends12AsyncContextD2Ev = 0x000000000011654c + __sdk_start;
NvRmMemCacheListSyncForCpu = 0x0000000000251984 + __sdk_start;
_ZN2nn3mii6detail12StoreDataRaw12SetMouthTypeEi = 0x00000000001a8658 + __sdk_start;
_ZN2nn3mii6detail10NicknameLe7ConvertEPS2_RKNS0_8NicknameE = 0x00000000001a676c + __sdk_start;
_ZN2nn2sf4hipc6client24Hipc2ClientCoreProcessorILNS1_6detail11MessageTypeE4ENS0_4cmif6detail14CoreMethodInfoINSt3__15tupleIJNS7_18OutRawArgumentInfoILm4ELm4ELl0EEENS7_21OutHandleArgumentInfoILi0ELi1EEENS7_17InRawArgumentInfoILm4ELm4ELl0EEENSF_ILm4ELm4ELl4EEEEEELm8ELm4ELb0EEESI_E7ProcessEPNS2_26Hipc2ClientProxyBaseObjectENS6_6client24OutRawClientArgumentTypeILm4ELm4EEENSN_27OutHandleClientArgumentTypeENSN_23InRawClientArgumentTypeILm4ELm4EvEESS_j = 0x0000000000122f90 + __sdk_start;
_ZN2nn5audio6server10MixContext27UpdateDistancesFromFinalMixEv = 0x0000000000190188 + __sdk_start;
_ZN2nn4diag29InitializeAbortObserverHolderEPNS0_19AbortObserverHolderEPFvRKNS0_9AbortInfoEE = 0x0000000000043f90 + __sdk_start;
_ZN2nn5image6detail4jpeg22jinit_input_controllerEPNS2_22jpeg_decompress_structE = 0x000000000001e6b0 + __sdk_start;
sync_create_nvrm_mapping = 0x00000000002a8ff0 + __sdk_start;
_ZN2nn4util10BitFlagSetILi256ENS_3hid11KeyboardKeyEE4FlagILi147EE4MaskE = 0x0000000000790a58 + __sdk_start;
_ZNK2nn3hid15VibrationPlayer18GetLoopEndPositionEv = 0x0000000000217f44 + __sdk_start;
_ZN2nn4time26StandardNetworkSystemClock20IsAccuracySufficientEv = 0x000000000016e744 + __sdk_start;
_ZN2nn5audio6server15I3dl2ReverbInfo6UpdateEPNS0_6common17BehaviorParameter9ErrorInfoEPKNS0_10EffectInfo11InParameterERNS1_10PoolMapperE = 0x000000000018f0e4 + __sdk_start;
iswprint = 0x00000000003a04dc + __sdk_start;
_ZN2nn2sf4cmif6client6detail13CmifProxyImplINS_7account6detail13IAsyncContextENS2_15CmifDomainProxyINS0_4hipc6client38Hipc2ClientSessionManagedProxyKindBaseINSA_18Hipc2ProxyKindBaseILNS9_6detail11MessageTypeE4EEEEEEENS0_25StatelessAllocationPolicyINS0_22ExpHeapStaticAllocatorILm2048ENS6_12ObjectHolder24ObjectHolderAllocatorTagEEEEES7_E21_nn_sf_sync_GetResultEv = 0x00000000000aece0 + __sdk_start;
nnmem_nlib_memchr_gt_generic = 0x000000000006cd64 + __sdk_start;
_ZNK2nn3web20SharePageReturnValue13GetPostIdSizeEv = 0x0000000000237a74 + __sdk_start;
get_ttf_table = 0x00000000001f915c + __sdk_start;
_ZTSN2nn2sf6detail39ObjectImplFactoryWithStatelessAllocatorINS0_4cmif6client16CmifProxyFactoryINS_4nifm6detail15IGeneralServiceENS4_15CmifDomainProxyINS0_4hipc6client38Hipc2ClientSessionManagedProxyKindBaseINSB_18Hipc2ProxyKindBaseILNSA_6detail11MessageTypeE4EEEEEEENS0_25StatelessAllocationPolicyINS0_22ExpHeapStaticAllocatorILm16384ENS7_21ServiceProviderClient30CreateNifmUserServiceObjectTagEEEEEE13ServiceObjectESO_E6ObjectE = 0x000000000076b5f0 + __sdk_start;
_ZTSN2nn3hid6detail15SleepButtonLifoE = 0x000000000078f400 + __sdk_start;
_ZTVN2nn2sf6detail38ObjectImplFactoryWithStatefulAllocatorINS0_4cmif6client16CmifProxyFactoryINS_3fgm2sf8IRequestENS4_15CmifDomainProxyINS0_4hipc6client38Hipc2ClientSessionManagedProxyKindBaseINSB_18Hipc2ProxyKindBaseILNSA_6detail11MessageTypeE4EEEEEEENS0_30MemoryResourceAllocationPolicyEE13ServiceObjectESJ_E6ObjectE = 0x0000000000902798 + __sdk_start;
_ZTVN2nn5audio6server15I3dl2ReverbInfoE = 0x00000000008e3908 + __sdk_start;
_ZN2nn5image11ExifBuilder7AnalyzeEv = 0x000000000002ec0c + __sdk_start;
_ZNSt9type_infoD0Ev = 0x00000000003779d4 + __sdk_start;
_ZN2nn3hid6detail23GetActualVibrationValueEPNS0_14VibrationValueERKNS0_21VibrationDeviceHandleE = 0x000000000020ff94 + __sdk_start;
_ZN2nn2sf4hipc6server17HipcServerMessage12SetOutObjectEiONS0_4cmif6server20CmifServerObjectInfoE = 0x0000000000096acc + __sdk_start;
_ZN2nn4htcs6detail9sendLargeENS_2sf13SharedPointerINS_3tma7ISocketEEEPKvmiRi = 0x0000000000127200 + __sdk_start;
_ZN2nn4htcs5CloseEi = 0x00000000001266e8 + __sdk_start;
_ZN2nn5audio14ResetAuxBufferEPNS0_13AuxBufferInfoE = 0x0000000000174114 + __sdk_start;
_ZThn16_N7android18BnConsumerListener10onTransactEjRKNS_6ParcelEPS1_j = 0x000000000028a4e0 + __sdk_start;
_ZN2nn2os17GetThreadCoreMaskEPiPmPKNS0_10ThreadTypeE = 0x00000000000892a4 + __sdk_start;
_ZN2nn5audio8ResampleEPiPKiiS1_i = 0x000000000019bbdc + __sdk_start;
_ZN2nn6socket11GetPeerNameEiP8sockaddrPj = 0x000000000009a540 + __sdk_start;
_ZN2nn4pctl18GetCurrentSettingsEPNS0_19SafetyLevelSettingsE = 0x0000000000150490 + __sdk_start;
_ZN2nn3hid14KeyboardLayout5GreekE = 0x0000000000790bc0 + __sdk_start;
_ZN2nn4util10BitFlagSetILi256ENS_3hid11KeyboardKeyEE4FlagILi79EE4MaskE = 0x0000000000790478 + __sdk_start;
_ZTIN2nn3pcv19IArbitrationManagerE = 0x0000000000903570 + __sdk_start;
_ZTIN2nn2sf4cmif6client6detail9CmifProxyINS_3ssl2sf14ISslConnectionENS2_15CmifDomainProxyINS0_4hipc6client38Hipc2ClientSessionManagedProxyKindBaseINSA_18Hipc2ProxyKindBaseILNS9_6detail11MessageTypeE4EEEEEEENS0_24StatefulAllocationPolicyINS0_16ExpHeapAllocatorEEEvEE = 0x00000000008e05e0 + __sdk_start;
_ZTIN2nn2sf4cmif6client6detail13CmifProxyImplINS_2am7service18IAppletProxyCommonENS2_15CmifDomainProxyINS0_4hipc6client38Hipc2ClientSessionManagedProxyKindBaseINSA_18Hipc2ProxyKindBaseILNS9_6detail11MessageTypeE4EEEEEEENS0_30MemoryResourceAllocationPolicyENS6_19IOverlayAppletProxyEEE = 0x00000000008d8780 + __sdk_start;
_ZTSN2nn2sf4cmif6client16CmifProxyFactoryINS_7timesrv6detail7service14IStaticServiceENS2_15CmifDomainProxyINS0_4hipc6client38Hipc2ClientSessionManagedProxyKindBaseINSA_18Hipc2ProxyKindBaseILNS9_6detail11MessageTypeE4EEEEEEENS0_25StatelessAllocationPolicyINS0_22ExpHeapStaticAllocatorILm16384ENS_4time6detail7service21ServiceProviderClient30CreateTimeUserServiceObjectTagEEEEEE13ServiceObjectE = 0x0000000000771990 + __sdk_start;
_ZN2nn7account25ShowUserCreatorForStarterEv = 0x00000000000aa720 + __sdk_start;
nnutilZlib_deflate = 0x0000000000031230 + __sdk_start;
_ZN7android8String16D1Ev = 0x00000000002af118 + __sdk_start;
conj = 0x00000000003991a0 + __sdk_start;
_ZTVNSt3__115__codecvt_utf16IDiLb1EEE = 0x0000000000905d58 + __sdk_start;
_ZN2nn6socket6detail26DestroyClientMonitorByHipcEPNS_2sf13SharedPointerINS0_2sf7IClientEEE = 0x000000000009e838 + __sdk_start;
_ZN2nn3hid19GetTouchScreenStateILm6EEEvPNS0_16TouchScreenStateIXT_EEE = 0x0000000000215784 + __sdk_start;
_ZN2nn2fs13EraseGameCardENS0_12GameCardSizeEm = 0x000000000005d554 + __sdk_start;
_ZN2nn3svc7aarch644lp6423UnmapDeviceAddressSpaceENS0_6HandleES3_mmm = 0x00000000000a9fa4 + __sdk_start;
_ZN2nn2fs26GetContentStorageMountNameENS0_16ContentStorageIdE = 0x00000000000505e0 + __sdk_start;
_ZN2nn2os24FinalizeReaderWriterLockEPNS0_20ReaderWriterLockTypeE = 0x0000000000088884 + __sdk_start;
_ZN2nn2sf4cmif6client6detail13CmifProxyImplINS_7friends6detail3ipc14IFriendServiceENS2_15CmifDomainProxyINS0_4hipc6client38Hipc2ClientSessionManagedProxyKindBaseINSB_18Hipc2ProxyKindBaseILNSA_6detail11MessageTypeE4EEEEEEENS0_30MemoryResourceAllocationPolicyES8_E36_nn_sf_sync_ChangeFriendFavoriteFlagERKNS_7account3UidENSL_23NetworkServiceAccountIdEb = 0x000000000011a5b0 + __sdk_start;
_ZN2nn3mii6detail12StoreDataRaw7SetEyeYEi = 0x00000000001a862c + __sdk_start;
_ZN2nn4util10BitFlagSetILi256ENS_3hid11KeyboardKeyEE4FlagILi7EE4MaskE = 0x000000000078fb78 + __sdk_start;
_ZN2nn2sf4cmif6client6detail13CmifProxyImplINS_8settings21ISystemSettingsServerENS0_4hipc6client18Hipc2ProxyKindBaseILNS7_6detail11MessageTypeE4EEENS0_25StatelessAllocationPolicyINS0_22ExpHeapStaticAllocatorILm16384ES6_EEEES6_E42_nn_sf_sync_SetHeadphoneVolumeWarningCountEi = 0x00000000001657ec + __sdk_start;
_ZN2nn2os6detail26ThreadManagerImplByHorizon9QuickExitEv = 0x0000000000089318 + __sdk_start;
_ZN2nn3hid6detail33InitializeSharedMemoryForRingLifoEPNS_2os16SharedMemoryTypeEm = 0x00000000002078b4 + __sdk_start;
_ZN2nn2sf4cmif6client6detail13CmifProxyImplINS_3hid10IHidServerENS0_4hipc6client18Hipc2ProxyKindBaseILNS7_6detail11MessageTypeE4EEENS0_25StatelessAllocationPolicyINS0_22ExpHeapStaticAllocatorILm16384ENS5_6detail9HidServerEEEEES6_E38_nn_sf_sync_EnableUsbFullKeyControllerEb = 0x000000000021a700 + __sdk_start;
optind = 0x0000000000911618 + __sdk_start;
_ZN2nn3hid6detail21GetJoyXpadRightStatesEPiPNS0_12JoyXpadStateEiRKNS0_9JoyXpadIdE = 0x0000000000200b40 + __sdk_start;
_ZN2nn4lmem6detail18ExtendUnitHeapAreaEPNS1_8HeapHeadEm = 0x000000000006a6d4 + __sdk_start;
_ZN2nn4pctl19GenerateInquiryCodeEPNS0_11InquiryCodeE = 0x000000000014fb74 + __sdk_start;
_ZN2nn5audio22IsBufferMixerRemovableEPKNS0_15BufferMixerTypeE = 0x00000000001747ac + __sdk_start;
_ZN2nn5audio49CreateFinalOutputRecorderManagerForDebuggerByHipcEv = 0x00000000001836e0 + __sdk_start;
_ZN2nn3ngc6detail12OutputStream6Write_EPKvm = 0x000000000013e530 + __sdk_start;
_ZN2nn2sf4cmif6client6detail13CmifProxyImplINS_2am7service21ILibraryAppletCreatorENS2_15CmifDomainProxyINS0_4hipc6client38Hipc2ClientSessionManagedProxyKindBaseINSA_18Hipc2ProxyKindBaseILNS9_6detail11MessageTypeE4EEEEEEENS0_30MemoryResourceAllocationPolicyES7_E25_nn_sf_sync_CreateStorageENS0_3OutINS0_13SharedPointerINS6_8IStorageEEEvEEl = 0x00000000000c25a8 + __sdk_start;
_ZTv0_n24_NSt3__113basic_istreamIcNS_11char_traitsIcEEED1Ev = 0x0000000000308488 + __sdk_start;
__cxa_throw = 0x0000000000377b10 + __sdk_start;
_ZN2nn2sf4cmif6client6detail13CmifProxyImplINS_5visrv2sf23IApplicationRootServiceENS0_4hipc6client18Hipc2ProxyKindBaseILNS8_6detail11MessageTypeE4EEENS0_30MemoryResourceAllocationPolicyES7_E17GetCmifBaseObjectEv = 0x00000000001bc14c + __sdk_start;
__nnmusl_pthread_setschedprio = 0x00000000003c4df4 + __sdk_start;
_ZN2nn4util10BitFlagSetILi256ENS_3hid11KeyboardKeyEE4FlagILi231EE4MaskE = 0x0000000000790b78 + __sdk_start;
_ZN2nn5audio20GetBufferMixerVolumeEPKNS0_15BufferMixerTypeEi = 0x0000000000174770 + __sdk_start;
_ZNSt15underflow_errorD2Ev = 0x0000000000377694 + __sdk_start;
freopen64 = 0x000000000038864c + __sdk_start;
_ZdaPv = 0x000000000033e310 + __sdk_start;
_ZN7android6Region13operationSelfERKS0_iii = 0x00000000002accf0 + __sdk_start;
_ZN2nn2sf4cmif6client6detail13CmifProxyImplINS_3hid16IHidSystemServerENS0_4hipc6client18Hipc2ProxyKindBaseILNS7_6detail11MessageTypeE4EEENS0_25StatelessAllocationPolicyINS0_22ExpHeapStaticAllocatorILm16384ENS5_6detail15HidSystemServerEEEEES6_E40_nn_sf_sync_GetUniquePadBluetoothAddressENS0_3OutINS_9bluetooth7AddressEvEENS5_6system11UniquePadIdE = 0x000000000021c958 + __sdk_start;
_ZN2nn5audio17SetVoicePlayStateEPNS0_9VoiceTypeENS1_9PlayStateE = 0x0000000000179968 + __sdk_start;
_ZNSt3__121__libcpp_mutex_unlockEPN2nn2os9MutexTypeE = 0x00000000003495cc + __sdk_start;
_ZN2nn2fs6detail14CheckMountNameEPKc = 0x000000000004cbcc + __sdk_start;
_ZN2nn2fs26ReadOnlyFileSystemTemplateINSt3__110unique_ptrINS0_3fsa11IFileSystemENS2_14default_deleteIS5_EEEEE19DoGetTotalSpaceSizeEPlPKc = 0x0000000000061b54 + __sdk_start;
_ZN2nn2sf4cmif6client34CmifDomainProxyClientCoreProcessorINS0_4hipc6client38Hipc2ClientSessionManagedProxyKindBaseINS5_18Hipc2ProxyKindBaseILNS4_6detail11MessageTypeE4EEEEENS1_6detail14CoreMethodInfoINSt3__15tupleIJNSC_21OutObjectArgumentInfoILi0ELi0EEEEEELm0ELm0ELb0EEESI_E21ProcessWithOutObjectsEPNS2_23CmifDomainClientMessageISB_E15ProxyBaseObjectENS2_27OutObjectClientArgumentTypeEjPNS0_13SharedPointerINS0_14IServiceObjectEEE = 0x0000000000053dfc + __sdk_start;
posix_memalign = 0x00000000003a3700 + __sdk_start;
_ZN2nn2sf4cmif6client6detail13CmifProxyImplINS_3mii6detail16IDatabaseServiceENS2_15CmifDomainProxyINS0_4hipc6client38Hipc2ClientSessionManagedProxyKindBaseINSA_18Hipc2ProxyKindBaseILNS9_6detail11MessageTypeE4EEEEEEENS0_25StatelessAllocationPolicyINS0_22ExpHeapStaticAllocatorILm16384ENS6_21ServiceProviderClient30CreateNifmUserServiceObjectTagEEEEES7_E17GetCmifBaseObjectEv = 0x00000000001b20cc + __sdk_start;
_ZN2nn7nlibsdk4heap14TlsHeapCentral18FreeSpanToSpanPageEPNS1_4SpanEPNS1_8SpanPageE = 0x000000000007ccd4 + __sdk_start;
_ZN7android7String811setPathNameEPKc = 0x00000000002b0e30 + __sdk_start;
_ZN2nn8settings7factory22GetGameCardCertificateEPNS1_19GameCardCertificateE = 0x000000000015b620 + __sdk_start;
_ZTIN2nn2sf6detail38ObjectImplFactoryWithStatefulAllocatorINS0_4cmif6client16CmifProxyFactoryINS_2am7service17IApplicationProxyENS4_15CmifDomainProxyINS0_4hipc6client38Hipc2ClientSessionManagedProxyKindBaseINSB_18Hipc2ProxyKindBaseILNSA_6detail11MessageTypeE4EEEEEEENS0_30MemoryResourceAllocationPolicyEE13ServiceObjectESJ_E6ObjectE = 0x00000000008d8b80 + __sdk_start;
_ZNKSt3__114__codecvt_utf8IwE6do_outER11__mbstate_tPKwS5_RS5_PcS7_RS7_ = 0x0000000000335920 + __sdk_start;
_ZN2nn4pctl38UpdateFreeCommunicationApplicationListEPKNS0_32FreeCommunicationApplicationInfoEi = 0x0000000000150770 + __sdk_start;
_ZThn16_N2nn2sf4cmif6client6detail13CmifProxyImplINS_8irsensor15IIrSensorServerENS0_4hipc6client18Hipc2ProxyKindBaseILNS7_6detail11MessageTypeE4EEENS0_25StatelessAllocationPolicyINS0_22ExpHeapStaticAllocatorILm16384ENS5_6detail14IrSensorServerEEEEES6_E17GetCmifBaseObjectEv = 0x00000000002225a0 + __sdk_start;
nnmem_nlib_strnlen_generic = 0x000000000006de8c + __sdk_start;
_ZN2nn5audio6common19WorkBufferAllocatorC2EPvm = 0x000000000017a7f0 + __sdk_start;
_ZN2nn3hid6detail17InitializeGestureEv = 0x00000000001ff13c + __sdk_start;
_ZN2nn3htc43WaitUntilTargetEnvironmentVariableAvailableENS_8TimeSpanE = 0x0000000000067d0c + __sdk_start;
_ZN2nn3svc7aarch644lp645BreakENS0_11BreakReasonEmm = 0x00000000000a9dec + __sdk_start;
_ZN2nn5image6detail4jpeg15jpeg_free_largeEPNS2_18jpeg_common_structEPvm = 0x0000000000029c14 + __sdk_start;
_ZN2nn2sf4cmif6client6detail13CmifProxyImplINS_6aocsrv6detail20IAddOnContentManagerENS0_4hipc6client18Hipc2ProxyKindBaseILNS8_6detail11MessageTypeE4EEENS0_30MemoryResourceAllocationPolicyES7_E43_nn_sf_sync_ListAddOnContentByApplicationIdENS0_3OutIivEERKNS0_8OutArrayIiEEiiNS_3ncm13ApplicationIdE = 0x00000000001727f0 + __sdk_start;
dcngettext = 0x000000000038727c + __sdk_start;
_ZNK7android19IGraphicBufferAlloc22getInterfaceDescriptorEv = 0x000000000029548c + __sdk_start;
_ZN2nn7friends6detail9CallAsyncEPNS0_12AsyncContextEPKcPFNS_6ResultEPNS1_3ipc14IFriendServiceEPvEPFvPKvSA_mESE_ = 0x0000000000118cec + __sdk_start;
_ZN2nn6socket8resolver3tls10InitializeEv = 0x00000000000a5314 + __sdk_start;
_ZN2nn2sf4cmif6client6detail13CmifProxyImplINS_7account4baas12IManagerBaseENS2_15CmifDomainProxyINS0_4hipc6client38Hipc2ClientSessionManagedProxyKindBaseINSA_18Hipc2ProxyKindBaseILNS9_6detail11MessageTypeE4EEEEEEENS0_25StatelessAllocationPolicyINS0_22ExpHeapStaticAllocatorILm2048ENS5_6detail12ObjectHolder24ObjectHolderAllocatorTagEEEEENS6_14IAdministratorEE29_nn_sf_sync_CheckAvailabilityEv = 0x00000000000b36b8 + __sdk_start;
__c_locale = 0x00000000007c29f8 + __sdk_start;
_ZNSt3__110__time_putD1Ev = 0x0000000000323fc8 + __sdk_start;
_ZNKSt3__17num_getIcNS_19istreambuf_iteratorIcNS_11char_traitsIcEEEEE15__do_get_signedIxEES4_S4_S4_RNS_8ios_baseERjRT_ = 0x0000000000313610 + __sdk_start;
_ZNSt9exceptionD2Ev = 0x0000000000375d80 + __sdk_start;
_ZTVN7android17BnSurfaceComposerE = 0x00000000008fc648 + __sdk_start;
_ZN2nn2os6detail17MemoryHeapManager25SplitFreeMemoryNodeUnsafeENS_4util13IntrusiveListINS1_14FreeMemoryNodeENS3_29IntrusiveListMemberNodeTraitsIS5_XadL_ZNS5_6m_nodeEEES5_EEE8iteratorEm = 0x000000000008b414 + __sdk_start;
_ZTIN2nn2sf4impl6detail17ImplTemplateBaseTINS_5audio6detail14IAudioRendererES6_NS0_6detail18EmplacedImplHolderINS4_6server24AudioRendererManagerImpl17AudioRendererImplEEESC_S6_EE = 0x00000000008e3310 + __sdk_start;
_ZN2nn6crypto6detail11XtsModeImplINS1_20XtsModeGenericHelperEEC2Ev = 0x0000000000007b88 + __sdk_start;
_ZNK2nn3mii16CharInfoAccessor9GetHeightEv = 0x00000000001a1540 + __sdk_start;
_ZN2nn5audio11RemoveDelayEPNS0_19AudioRendererConfigEPNS0_9DelayTypeEPNS0_12FinalMixTypeE = 0x0000000000174b30 + __sdk_start;
_ZN2nn4gpio13BindInterruptEPNS_2os15SystemEventTypeEPNS0_14GpioPadSessionE = 0x00000000002f41ac + __sdk_start;
_ZN2nn3mii16GetNoselineColorENS0_9GammaTypeE = 0x00000000001a1edc + __sdk_start;
_ZNSt3__110moneypunctIcLb1EE2idE = 0x0000000000a0a0e0 + __sdk_start;
_ZN2nn5prepo16SystemPlayReport3AddEPKcd = 0x0000000000157fd8 + __sdk_start;
_ZN2nn5audio14AddBufferMixerEPNS0_19AudioRendererConfigEPNS0_15BufferMixerTypeEPNS0_12FinalMixTypeE = 0x000000000017454c + __sdk_start;
_ZN2nn3web13ShowSharePageEPNS0_20SharePageReturnValueERKNS0_16ShowSharePageArgE = 0x000000000023706c + __sdk_start;
_ZN2nn2fs21MountSaveDataForDebugEPKc = 0x0000000000062e90 + __sdk_start;
_ZN2nn3ngc6detail2Bp6ImportEPNS1_12BinaryReaderE = 0x000000000013ca94 + __sdk_start;
_ZN2nn2sf4cmif6client6detail13CmifProxyImplINS_7account31IAccountServiceForSystemServiceENS2_15CmifDomainProxyINS0_4hipc6client38Hipc2ClientSessionManagedProxyKindBaseINS9_18Hipc2ProxyKindBaseILNS8_6detail11MessageTypeE4EEEEEEENS0_25StatelessAllocationPolicyINS0_22ExpHeapStaticAllocatorILm2048ENS5_6detail12ObjectHolder24ObjectHolderAllocatorTagEEEEENS5_31IAccountServiceForAdministratorEE49_nn_sf_sync_GetBaasAccountManagerForSystemServiceENS0_3OutINS0_13SharedPointerINS5_4baas24IManagerForSystemServiceEEEvEERKNS5_3UidE = 0x00000000000b20d4 + __sdk_start;
_ZTIN2nn2sf6detail38ObjectImplFactoryWithStatefulAllocatorINS0_4cmif6client16CmifProxyFactoryINS_2am7service19ILibraryAppletProxyENS4_15CmifDomainProxyINS0_4hipc6client38Hipc2ClientSessionManagedProxyKindBaseINSB_18Hipc2ProxyKindBaseILNSA_6detail11MessageTypeE4EEEEEEENS0_30MemoryResourceAllocationPolicyEE13ServiceObjectESJ_E6ObjectE = 0x00000000008d84b0 + __sdk_start;
_ZN2nn3hid6system21GetUniquePadsFromNpadEPNS1_11UniquePadIdEiRKj = 0x0000000000214008 + __sdk_start;
_ZN2nn5prepo16SystemPlayReport3AddEPKcl = 0x0000000000157f98 + __sdk_start;
_ZN2nn2sf4cmif6client6detail13CmifProxyImplINS_4pctl6detail3ipc23IParentalControlServiceENS2_15CmifDomainProxyINS0_4hipc6client38Hipc2ClientSessionManagedProxyKindBaseINSB_18Hipc2ProxyKindBaseILNSA_6detail11MessageTypeE4EEEEEEENS0_30MemoryResourceAllocationPolicyES8_E35_nn_sf_sync_GetAccountMiiImageAsyncENS0_3OutINS6_9AsyncDataEvEENSL_INS0_12NativeHandleEvEENSL_IjvEERKNS0_9OutBufferERKNS6_22PairingAccountInfoBaseE = 0x000000000015345c + __sdk_start;
_ZN2nn2os6detail10TlsManager20InvokeTlsDestructorsEv = 0x000000000008b080 + __sdk_start;
renormalise_vector = 0x00000000000e388c + __sdk_start;
_ZTVNSt3__18time_putIcNS_19ostreambuf_iteratorIcNS_11char_traitsIcEEEEEE = 0x00000000009048d8 + __sdk_start;
_ZN2nn2fs36CorruptSaveDataThumbnailFileForDebugEmRKNS_7account3UidE = 0x0000000000120ebc + __sdk_start;
timespec_get = 0x00000000003c1d30 + __sdk_start;
_ZN2nn2os18SdkAllocateTlsSlotEPNS0_7TlsSlotEPFvmE = 0x00000000000893c0 + __sdk_start;
_ZN2nn7account42NintendoAccountAuthorizationRequestContextC2EOS1_ = 0x00000000000b9218 + __sdk_start;
_ZN2nn6fontll18ScalableFontEngine8FinalizeEv = 0x00000000001c3154 + __sdk_start;
_ZN2nn5audio17SetVoiceMixVolumeEPNS0_9VoiceTypeEPNS0_12FinalMixTypeEfii = 0x00000000001799b0 + __sdk_start;
_ZN2nn3ldn24GetIpv4AddressForMonitorEPNS0_11Ipv4AddressEPNS0_10SubnetMaskE = 0x0000000000231d20 + __sdk_start;
_ZN2nn6applet14ReleaseStorageENS0_13StorageHandleE = 0x00000000000cacdc + __sdk_start;
_ZN2nn2sf4cmif6client6detail13CmifProxyImplINS_8settings21ISystemSettingsServerENS0_4hipc6client18Hipc2ProxyKindBaseILNS7_6detail11MessageTypeE4EEENS0_25StatelessAllocationPolicyINS0_22ExpHeapStaticAllocatorILm16384ES6_EEEES6_E29_nn_sf_sync_GetDeviceNickNameENS0_3OutINS5_6system14DeviceNickNameEvEE = 0x000000000016538c + __sdk_start;
_ZN2nn2fs23ScopedAutoAbortDisablerC2Ev = 0x0000000000045afc + __sdk_start;
emboss_graymap = 0x00000000001d4a0c + __sdk_start;
_ZN2nn3ntc4shim29ResumeAutonomicTimeCorrectionEv = 0x000000000017177c + __sdk_start;
_ZN2nn2fs6detail24FileServiceObjectAdapter7DoWriteElPKvmRKNS0_11WriteOptionE = 0x000000000005c184 + __sdk_start;
_ZNSt3__111timed_mutexD1Ev = 0x000000000033dba4 + __sdk_start;
_ZN2nn8settings6system24SetVibrationMasterVolumeEf = 0x000000000015ba4c + __sdk_start;
_ZN2nn3hid6detail23InitializeCaptureButtonEv = 0x00000000001fd7c4 + __sdk_start;
_ZN2nn4util16BinaryFileHeader18GetRelocationTableEv = 0x000000000003a3c8 + __sdk_start;
_ZN2nn4nifm6detail29TemporaryNetworkProfileClientD1Ev = 0x00000000001439fc + __sdk_start;
BAZOutlineSmooth = 0x00000000001de68c + __sdk_start;
_ZN2nn3mii6detail16Ver3StoreDataRaw11SetMoleTypeEi = 0x00000000001aedbc + __sdk_start;
_ZN2nn3ldn16GetNetworkConfigEPNS0_13NetworkConfigE = 0x00000000002324c4 + __sdk_start;
_ZN2nn2la28StartLibraryAppletBackgroundEPKvmNS_6applet8AppletIdEb = 0x00000000001a0b24 + __sdk_start;
_ZN2nn2sf6detail38ObjectImplFactoryWithStatefulAllocatorINS0_4cmif6client16CmifProxyFactoryINS_2am7service19IOverlayAppletProxyENS4_15CmifDomainProxyINS0_4hipc6client38Hipc2ClientSessionManagedProxyKindBaseINSB_18Hipc2ProxyKindBaseILNSA_6detail11MessageTypeE4EEEEEEENS0_30MemoryResourceAllocationPolicyEE13ServiceObjectESJ_E6Object12AddReferenceEv = 0x00000000000c4794 + __sdk_start;
_ZTSN2nn3ldn6detail22IMonitorServiceCreatorE = 0x000000000079b400 + __sdk_start;
_ZN2nn2sf4cmif6client6detail13CmifProxyImplINS_3pcv17IImmediateManagerENS0_4hipc6client18Hipc2ProxyKindBaseILNS7_6detail11MessageTypeE4EEENS0_30MemoryResourceAllocationPolicyES6_E24_nn_sf_sync_SetClockRateEij = 0x00000000002f87e4 + __sdk_start;
_ZN2nn4time39AsyncEnsureNetworkClockAvailabilityTaskC1Ev = 0x000000000016e3ac + __sdk_start;
_ZN2nn4edid6detail30GetDetailedTimingHsyncPolarityEh = 0x0000000000040cdc + __sdk_start;
_ZN22nerd_gillette_internal5otete7jaimev29SerializeINS0_15BitStreamReaderINS0_14InputBitStreamEEEEEbRNS1_20ProtuberanceInPacketERT_ = 0x0000000000226048 + __sdk_start;
_Unwind_GetGR = 0x000000000037c0c4 + __sdk_start;
_ZNSt3__113basic_istreamIcNS_11char_traitsIcEEE8readsomeEPcl = 0x000000000030a598 + __sdk_start;
_ZN2nn2sf4cmif6client34CmifDomainProxyClientCoreProcessorINS0_4hipc6client38Hipc2ClientSessionManagedProxyKindBaseINS5_18Hipc2ProxyKindBaseILNS4_6detail11MessageTypeE4EEEEENS1_6detail14CoreMethodInfoINSt3__15tupleIJNSC_18OutRawArgumentInfoILm1ELm1ELl0EEENSC_17InRawArgumentInfoILm16ELm8ELl0EEEEEELm16ELm1ELb0EEESK_E7ProcessEPNS2_23CmifDomainClientMessageISB_E15ProxyBaseObjectENS2_24OutRawClientArgumentTypeILm1ELm1EEENS2_23InRawClientArgumentTypeILm16ELm8EvEEj = 0x00000000000ad6e0 + __sdk_start;
ec_encode = 0x00000000000de55c + __sdk_start;
FixSqrt = 0x00000000001d97a8 + __sdk_start;
_ZN2nn2fs18InvalidateBisCacheEv = 0x000000000004f900 + __sdk_start;
NvRmGpuDeviceZbcGetTableSize = 0x000000000026785c + __sdk_start;
__nnmusl_GetThreadNamePointer = 0x00000000003c4cfc + __sdk_start;
_ZNSt3__120__threads_data_queueD1Ev = 0x00000000003067bc + __sdk_start;
_ZTIN2nn6socket8resolver9IResolverE = 0x00000000008d1700 + __sdk_start;
_ZTSNSt3__115__codecvt_utf16IDsLb1EEE = 0x00000000007b4230 + __sdk_start;
_ZN2nn4util40InitializeStreamingDecompressZlibContextEPNS0_30StreamingDecompressZlibContextE = 0x000000000003c180 + __sdk_start;
_ZNK2nn2os6detail26ThreadManagerImplByHorizon17SetThreadCoreMaskEPNS0_10ThreadTypeEim = 0x000000000008ed4c + __sdk_start;
NvMemoryProfilerBeginFree = 0x000000000023d088 + __sdk_start;
_ZN2nn4lmem13FreeToExpHeapEPNS0_6detail8HeapHeadEPv = 0x00000000000688dc + __sdk_start;
nnosFinalizeSemaphore = 0x000000000008a084 + __sdk_start;
_ZNKSt3__123__match_any_but_newlineIcE6__execERNS_7__stateIcEE = 0x000000000033e6b8 + __sdk_start;
_ZTIN2nn2sf4cmif6client16CmifProxyFactoryINS_7friends6detail3ipc15IServiceCreatorENS2_15CmifDomainProxyINS0_4hipc6client38Hipc2ClientSessionManagedProxyKindBaseINSA_18Hipc2ProxyKindBaseILNS9_6detail11MessageTypeE4EEEEEEENS0_30MemoryResourceAllocationPolicyEE13ServiceObjectE = 0x00000000008db910 + __sdk_start;
_ZTSN2nn3hid6detail8RingLifoINS1_33SixAxisSensorUserCalibrationStateELi1ENS1_13AtomicStorageIS3_EEEE = 0x000000000078f790 + __sdk_start;
ashmem_create_region = 0x0000000000286f30 + __sdk_start;
_ZN2nn3svc7aarch644lp6428GetResourceLimitCurrentValueEPlNS0_6HandleENS0_17LimitableResourceE = 0x00000000000a9e8c + __sdk_start;
_ZN2nn2sf4cmif6client6detail13CmifProxyImplINS_4pctl6detail3ipc23IParentalControlServiceENS2_15CmifDomainProxyINS0_4hipc6client38Hipc2ClientSessionManagedProxyKindBaseINSB_18Hipc2ProxyKindBaseILNSA_6detail11MessageTypeE4EEEEEEENS0_30MemoryResourceAllocationPolicyES8_E37_nn_sf_sync_GetPlayTimerRemainingTimeENS0_3OutINS_12TimeSpanTypeEvEE = 0x000000000015314c + __sdk_start;
_ZN2nn3hid6detail24SetAccelerometerPlayModeENS0_19SixAxisSensorHandleENS0_21AccelerometerPlayModeE = 0x0000000000205158 + __sdk_start;
_ZTSN2nn5image11ExifBuilderE = 0x00000000007345e0 + __sdk_start;
memset = 0x00000000003bf3e8 + __sdk_start;
_ZNKSt3__115__codecvt_utf16IDsLb0EE6do_outER11__mbstate_tPKDsS5_RS5_PcS7_RS7_ = 0x00000000003365c4 + __sdk_start;
_ZN2nn2sf4hipc6client24Hipc2ClientCoreProcessorILNS1_6detail11MessageTypeE4ENS0_4cmif6detail14CoreMethodInfoINSt3__15tupleIJNS7_17InRawArgumentInfoILm4ELm4ELl0EEENSB_ILm4ELm4ELl4EEENS7_21OutHandleArgumentInfoILi0ELi1EEEEEELm8ELm0ELb0EEESG_E7ProcessEPNS2_26Hipc2ClientProxyBaseObjectENS6_6client23InRawClientArgumentTypeILm4ELm4EvEESN_NSL_27OutHandleClientArgumentTypeEj = 0x00000000001b9148 + __sdk_start;
_ZNK2nn2sf13SharedPointerINS_5visrv2sf21ISystemDisplayServiceEE19FunctionForBoolTypeEv = 0x00000000001bf1d8 + __sdk_start;
_ZN2nn3hid6detail20GetTouchScreenStatesILm2EEENS_6ResultEPiPNS0_16TouchScreenStateIXT_EEEi = 0x000000000020b270 + __sdk_start;
_ZTSN2nn2sf4hipc6client26Hipc2ClientProxyBaseObjectE = 0x000000000073b480 + __sdk_start;
_ZN2nn7friends6detail20AsyncContextInternal14DeleteInstanceEPS2_ = 0x0000000000118f58 + __sdk_start;
_ZN2nn7friends10InitializeEv = 0x000000000011181c + __sdk_start;
_ZN2nn5prepo6detail19PlayReportGenerator11AddKeyValueEPmPKclPhmm = 0x00000000001589fc + __sdk_start;
nndetailDiagVLogImplForC = 0x00000000000438f8 + __sdk_start;
nnmem_nlib_memcmp = 0x000000000006c270 + __sdk_start;
FSS_get_link_info = 0x00000000001c9698 + __sdk_start;
_ZN2nn2sf4cmif6client34CmifDomainProxyClientCoreProcessorINS0_4hipc6client38Hipc2ClientSessionManagedProxyKindBaseINS5_18Hipc2ProxyKindBaseILNS4_6detail11MessageTypeE4EEEEENS1_6detail14CoreMethodInfoINSt3__15tupleIJNSC_18OutRawArgumentInfoILm8ELm8ELl0EEENSC_17InRawArgumentInfoILm64ELm1ELl0EEEEEELm64ELm8ELb0EEESK_E7ProcessEPNS2_23CmifDomainClientMessageISB_E15ProxyBaseObjectENS2_24OutRawClientArgumentTypeILm8ELm8EEENS2_23InRawClientArgumentTypeILm64ELm1EvEEj = 0x0000000000068468 + __sdk_start;
_ZTIN2nn2sf4cmif6client6detail13CmifProxyImplINS_2am7service15IDebugFunctionsENS2_15CmifDomainProxyINS0_4hipc6client38Hipc2ClientSessionManagedProxyKindBaseINSA_18Hipc2ProxyKindBaseILNS9_6detail11MessageTypeE4EEEEEEENS0_30MemoryResourceAllocationPolicyES7_EE = 0x00000000008d7200 + __sdk_start;
_ZN2nn2vi13ObjectManager27CreateValidateDisplayHolderEmPKc = 0x00000000001be698 + __sdk_start;
_ZN2nn4lmem6detail17AllocFromUnitHeapEPNS1_8HeapHeadE = 0x000000000006a760 + __sdk_start;
_ZN2nn2fs15RomFsFileSystem10DoOpenFileEPNSt3__110unique_ptrINS0_3fsa5IFileENS2_14default_deleteIS5_EEEEPKcNS0_8OpenModeE = 0x000000000004a98c + __sdk_start;
_ZN2nn4edid6detail26IsDetailedTimingInterlacedEh = 0x0000000000040de0 + __sdk_start;
nngpioGetDirection = 0x00000000002f4e4c + __sdk_start;
_ZN2nn4util16BinaryFileHeader13SetFirstBlockEPNS0_17BinaryBlockHeaderE = 0x000000000003a58c + __sdk_start;
_ZN2nn2fs13MountSaveDataEPKcRKNS_7account3UidE = 0x000000000012045c + __sdk_start;
_ZN2nn3hid6system14IsUsbConnectedENS1_11UniquePadIdE = 0x0000000000216968 + __sdk_start;
_ZN2nn2oe43GetUserInactivityDetectionTimeExtensionModeEv = 0x000000000014e3f8 + __sdk_start;
_ZN2nn3ldn14FinalizeSystemEv = 0x00000000002317ac + __sdk_start;
_ZNK2nn3hid15KeyCodeComposer14GetCompositionEPti = 0x0000000000212558 + __sdk_start;
_ZNK2nn3mii6detail12StoreDataRaw15GetEyebrowColorEv = 0x00000000001a80f0 + __sdk_start;
_ZN2nn6socket6detail7ReallocEPvm = 0x000000000009a9c4 + __sdk_start;
_ZN2nn7friends29GetPlayHistoryRegistrationKeyEPNS0_26PlayHistoryRegistrationKeyENS_7account23NetworkServiceAccountIdEb = 0x00000000001163e4 + __sdk_start;
_ZNSt3__15stollERKNS_12basic_stringIwNS_11char_traitsIwEENS_9allocatorIwEEEEPmi = 0x0000000000344364 + __sdk_start;
_ZN2nn5codec6detail20GetLookAheadInternalEP11OpusEncoder = 0x000000000010ddcc + __sdk_start;
catclose = 0x00000000003a16e4 + __sdk_start;
_ZTSN2nn3hid6detail8RingLifoINS0_17NpadJoyRightStateELi16ENS1_13AtomicStorageIS3_EEEE = 0x000000000078f0d0 + __sdk_start;
_ZNK2nn3mii6detail12StoreDataRaw12GetHairColorEv = 0x00000000001a80c8 + __sdk_start;
_ZN2nn3ngc6detail12OutputStream12WriteGather_EPKNS1_7FdIoVecEi = 0x000000000013e94c + __sdk_start;
_ZN2nn8settings6system29GetDeviceTimeZoneLocationNameEPNS_4time12LocationNameE = 0x000000000015cef8 + __sdk_start;
opus_decoder_create = 0x00000000000ff470 + __sdk_start;
_ZN2nn3hid6detail8RingLifoINS0_17NpadJoyRightStateELi16ENS1_13AtomicStorageIS3_EEED2Ev = 0x0000000000208e58 + __sdk_start;
_ZTSN2nn7account34NetworkServiceAccountAdministratorE = 0x000000000074f260 + __sdk_start;
_ZN7android7String8C1EPKDsm = 0x00000000002afcd8 + __sdk_start;
_ZTIN2nn2sf4hipc6client26Hipc2ClientProxyBaseObjectE = 0x00000000008cd6f0 + __sdk_start;
_ZN2nn3mii6detail16Ver3StoreDataRaw15SetEyebrowColorEi = 0x00000000001aec4c + __sdk_start;
_ZN2nn2sf4cmif6client6detail13CmifProxyImplINS_7account19IAccountServiceBaseENS2_15CmifDomainProxyINS0_4hipc6client38Hipc2ClientSessionManagedProxyKindBaseINS9_18Hipc2ProxyKindBaseILNS8_6detail11MessageTypeE4EEEEEEENS0_25StatelessAllocationPolicyINS0_22ExpHeapStaticAllocatorILm2048ENS5_6detail12ObjectHolder24ObjectHolderAllocatorTagEEEEENS5_31IAccountServiceForSystemServiceEE24_nn_sf_sync_ListAllUsersERKNS0_8OutArrayINS5_3UidEEE = 0x00000000000b014c + __sdk_start;
cosf = 0x00000000003a5b18 + __sdk_start;
cosh = 0x00000000003a5ca4 + __sdk_start;
_ZN2nn2sf4cmif6client6detail13CmifProxyImplINS_7account31IAccountServiceForSystemServiceENS2_15CmifDomainProxyINS0_4hipc6client38Hipc2ClientSessionManagedProxyKindBaseINS9_18Hipc2ProxyKindBaseILNS8_6detail11MessageTypeE4EEEEEEENS0_25StatelessAllocationPolicyINS0_22ExpHeapStaticAllocatorILm2048ENS5_6detail12ObjectHolder24ObjectHolderAllocatorTagEEEEES6_E36_nn_sf_sync_GetProfileUpdateNotifierENS0_3OutINS0_13SharedPointerINSJ_9INotifierEEEvEE = 0x00000000000b04e8 + __sdk_start;
_ZNK7android14SurfaceControl20clearLayerFrameStatsEv = 0x00000000002a41c8 + __sdk_start;
_Unwind_GetIP = 0x000000000037c0ec + __sdk_start;
_ZN2nn2fs6detail12FileAccessor16UpdateLastResultENS_6ResultE = 0x000000000004b61c + __sdk_start;
RoundFuncCall = 0x00000000001de520 + __sdk_start;
_ZNK7android6Parcel8dataSizeEv = 0x000000000027ea18 + __sdk_start;
_ZN2nn2sf4cmif6client6detail13CmifProxyImplINS_5visrv2sf22IManagerDisplayServiceENS0_4hipc6client18Hipc2ProxyKindBaseILNS8_6detail11MessageTypeE4EEENS0_30MemoryResourceAllocationPolicyES7_E30_nn_sf_sync_SetLayerVisibilityEmb = 0x00000000001bac5c + __sdk_start;
_ZN2nn2sf4cmif6client6detail13CmifProxyImplINS_7account31IAccountServiceForSystemServiceENS2_15CmifDomainProxyINS0_4hipc6client38Hipc2ClientSessionManagedProxyKindBaseINS9_18Hipc2ProxyKindBaseILNS8_6detail11MessageTypeE4EEEEEEENS0_25StatelessAllocationPolicyINS0_22ExpHeapStaticAllocatorILm2048ENS5_6detail12ObjectHolder24ObjectHolderAllocatorTagEEEEENS5_31IAccountServiceForAdministratorEE33_nn_sf_sync_LoadSaveDataThumbnailENS0_3OutIjvEERKNS0_9OutBufferERKNS5_3UidENS_13ApplicationIdE = 0x00000000000b22c0 + __sdk_start;
_ZTIN2nn2sf4cmif6client16CmifProxyFactoryINS_7account31IAccountServiceForSystemServiceENS2_15CmifDomainProxyINS0_4hipc6client38Hipc2ClientSessionManagedProxyKindBaseINS8_18Hipc2ProxyKindBaseILNS7_6detail11MessageTypeE4EEEEEEENS0_25StatelessAllocationPolicyINS0_22ExpHeapStaticAllocatorILm2048ENS4_6detail12ObjectHolder24ObjectHolderAllocatorTagEEEEEE13ServiceObjectE = 0x00000000008d24c0 + __sdk_start;
cosl = 0x00000000003a5e1c + __sdk_start;
_ZTSN2nn5audio6detail32IAudioRendererManagerForDebuggerE = 0x0000000000779f00 + __sdk_start;
_ZN2nn6socket8resolver13GetHostByNameEPKc = 0x00000000000a5af4 + __sdk_start;
environ = 0x0000000000a0c8c8 + __sdk_start;
_ZN2nn8settings6detail22GetPrimaryAlbumStorageEPi = 0x000000000015dd50 + __sdk_start;
_ZN2nn2fs16g_DefaultContextE = 0x0000000000926e30 + __sdk_start;
sqrtf = 0x0000000000386b5c + __sdk_start;
_ZN2nn2sf6detail38ObjectImplFactoryWithStatefulAllocatorINS0_4cmif6client16CmifProxyFactoryINS_4bcat6detail3ipc29IDeliveryCacheProgressServiceENS4_15CmifDomainProxyINS0_4hipc6client38Hipc2ClientSessionManagedProxyKindBaseINSC_18Hipc2ProxyKindBaseILNSB_6detail11MessageTypeE4EEEEEEENS0_30MemoryResourceAllocationPolicyEE13ServiceObjectESK_E6Object12AddReferenceEv = 0x00000000000cece0 + __sdk_start;
_ZN2nn5audio6server24AudioRendererManagerImpl15AudioDeviceImpl24GetActiveAudioDeviceNameERKNS_2sf9OutBufferE = 0x0000000000193c20 + __sdk_start;
_ZTTNSt3__113basic_ostreamIwNS_11char_traitsIwEEEE = 0x0000000000903ea8 + __sdk_start;
_ZN2nn5audio3dsp19InvalidateDataCacheEPvmb = 0x000000000019443c + __sdk_start;
_ZTSN2nn2sf4hipc6detail12IHipcManagerE = 0x0000000000743830 + __sdk_start;
_ZN2nn2sf4cmif6client6detail13CmifProxyImplINS_7account4baas12IManagerBaseENS2_15CmifDomainProxyINS0_4hipc6client38Hipc2ClientSessionManagedProxyKindBaseINSA_18Hipc2ProxyKindBaseILNS9_6detail11MessageTypeE4EEEEEEENS0_25StatelessAllocationPolicyINS0_22ExpHeapStaticAllocatorILm2048ENS5_6detail12ObjectHolder24ObjectHolderAllocatorTagEEEEENS6_14IAdministratorEE24_nn_sf_sync_GetAccountIdENS0_3OutINS5_23NetworkServiceAccountIdEvEE = 0x00000000000b36d8 + __sdk_start;
_ZN2nn2sf4cmif6client34CmifDomainProxyClientCoreProcessorINS0_4hipc6client38Hipc2ClientSessionManagedProxyKindBaseINS5_18Hipc2ProxyKindBaseILNS4_6detail11MessageTypeE4EEEEENS1_6detail14CoreMethodInfoINSt3__15tupleIJNSC_18BufferArgumentInfoILi0ELi6ELm0EEENSC_17InRawArgumentInfoILm1ELm1ELl0EEENSI_ILm8ELm8ELl8EEEEEELm16ELm0ELb0EEESL_E7ProcessEPNS2_23CmifDomainClientMessageISB_E15ProxyBaseObjectENS2_24BufferClientArgumentTypeENS2_23InRawClientArgumentTypeILm1ELm1EvEENST_ILm8ELm8EvEEj = 0x0000000000057bbc + __sdk_start;
_ZN2nn5swkbd6detail18InlineKeyboardImpl11SetUtf8ModeEb = 0x00000000001b5f90 + __sdk_start;
nnosInitializeMultiWaitHolderForEvent = 0x000000000008a180 + __sdk_start;
sqrtl = 0x00000000003acc48 + __sdk_start;
nngpioGetInterruptMode = 0x00000000002f4e54 + __sdk_start;
_ZN2nn3ntc6detail4shim40EnsureNetworkClockAvailabilityClientImpl6CancelEv = 0x0000000000172074 + __sdk_start;
_ZNK2nn3ngc6detail2Bp8FindOpenEj = 0x000000000013c60c + __sdk_start;
_ZN2nn5audio6server6detail26GetAudioDeviceOutputVolumeEPKNS0_15AudioDeviceNameERKNS_6applet20AppletResourceUserIdE = 0x0000000000193da8 + __sdk_start;
_ZTSDh = 0x00000000007b7558 + __sdk_start;
_ZNSt16invalid_argumentD0Ev = 0x00000000003777a8 + __sdk_start;
_ZTIN2nn2sf4cmif6client6detail9CmifProxyINS_2am7service24IApplicationProxyServiceENS2_15CmifDomainProxyINS0_4hipc6client38Hipc2ClientSessionManagedProxyKindBaseINSA_18Hipc2ProxyKindBaseILNS9_6detail11MessageTypeE4EEEEEEENS0_30MemoryResourceAllocationPolicyEvEE = 0x00000000008d8e70 + __sdk_start;
opus_decoder_init = 0x00000000000ff2d4 + __sdk_start;
_ZTSDi = 0x00000000007b75a8 + __sdk_start;
_ZN2nn7friends22GetFriendCandidateListEPNS0_12AsyncContextEPiPNS0_15FriendCandidateERKNS_7account3UidEiNS0_19FriendCandidateTypeE = 0x000000000011419c + __sdk_start;
_ZTIN2nn2sf4cmif6client6detail13CmifProxyImplINS_7account4baas28IFloatingRegistrationRequestENS2_15CmifDomainProxyINS0_4hipc6client38Hipc2ClientSessionManagedProxyKindBaseINSA_18Hipc2ProxyKindBaseILNS9_6detail11MessageTypeE4EEEEEEENS0_25StatelessAllocationPolicyINS0_22ExpHeapStaticAllocatorILm2048ENS5_6detail12ObjectHolder24ObjectHolderAllocatorTagEEEEES7_EE = 0x00000000008d2d40 + __sdk_start;
_ZTIN2nn5audio6server8SinkInfoINS0_6common23CircularBufferParameterENS1_23CircularBufferSinkStateEEE = 0x00000000008e3a40 + __sdk_start;
init_phantom_points = 0x00000000001e3ecc + __sdk_start;
_ZNK2nn5audio6server15SplitterContext13UsingSplitterEv = 0x00000000001917dc + __sdk_start;
_ZNSt12out_of_rangeD1Ev = 0x00000000003775dc + __sdk_start;
_ZN2nn2sf4cmif6client6detail13CmifProxyImplINS_3pcv6detail11IPcvServiceENS0_4hipc6client18Hipc2ProxyKindBaseILNS8_6detail11MessageTypeE4EEENS0_30MemoryResourceAllocationPolicyES7_E33_nn_sf_sync_GetPossibleClockRatesENS0_3OutIivEERKNS0_8OutArrayIjEESH_ii = 0x00000000002f7978 + __sdk_start;
_ZTSDn = 0x00000000007b7494 + __sdk_start;
celt_decoder_get_size = 0x00000000000d3c28 + __sdk_start;
_ZNK7android10FrameStats16getFlattenedSizeEv = 0x00000000002a99d0 + __sdk_start;
_ZN2nn8irsensor15RunDpdProcessorERKNS0_14IrCameraHandleE = 0x0000000000221814 + __sdk_start;
_ZTSN2nn2sf4cmif6client6detail9CmifProxyIN3nns9hosbinder16IHOSBinderDriverENS0_4hipc6client18Hipc2ProxyKindBaseILNS8_6detail11MessageTypeE4EEENS0_30MemoryResourceAllocationPolicyEvEE = 0x000000000078c650 + __sdk_start;
_ZTSDs = 0x00000000007b7598 + __sdk_start;
__overflow = 0x00000000003bd380 + __sdk_start;
_ZN2nn7account28NetworkServiceAccountManager26GetNetworkServiceAccountIdEPNS0_23NetworkServiceAccountIdE = 0x00000000000b8014 + __sdk_start;
nnsocketCancel = 0x000000000009a88c + __sdk_start;
_ZN2nn2sf4cmif6client6detail13CmifProxyImplINS_7account19IAccountServiceBaseENS2_15CmifDomainProxyINS0_4hipc6client38Hipc2ClientSessionManagedProxyKindBaseINS9_18Hipc2ProxyKindBaseILNS8_6detail11MessageTypeE4EEEEEEENS0_25StatelessAllocationPolicyINS0_22ExpHeapStaticAllocatorILm2048ENS5_6detail12ObjectHolder24ObjectHolderAllocatorTagEEEEENS5_31IAccountServiceForAdministratorEE28_nn_sf_sync_GetProfileDigestENS0_3OutINS5_13ProfileDigestEvEERKNS5_3UidE = 0x00000000000b1f60 + __sdk_start;
_ZN2nn3hid6detail37SetShiftAccelerometerCalibrationValueERKNS0_19SixAxisSensorHandleEff = 0x00000000002067a4 + __sdk_start;
_ZN2nn3hid6detail20IsVibrationPermittedEPb = 0x000000000020fc08 + __sdk_start;
_ZNKSt3__117moneypunct_bynameIwLb1EE16do_decimal_pointEv = 0x000000000032647c + __sdk_start;
_ZTSN2nn2sf4cmif6client6detail13CmifProxyImplINS_2am7service15IAppletAccessorENS2_15CmifDomainProxyINS0_4hipc6client38Hipc2ClientSessionManagedProxyKindBaseINSA_18Hipc2ProxyKindBaseILNS9_6detail11MessageTypeE4EEEEEEENS0_30MemoryResourceAllocationPolicyENS6_22ILibraryAppletAccessorEEE = 0x0000000000753840 + __sdk_start;
_ZN2nn4util10BitFlagSetILi256ENS_3hid11KeyboardKeyEE4FlagILi23EE4MaskE = 0x000000000078fd78 + __sdk_start;
_ZTIN7android12BnMemoryHeapE = 0x00000000008ed6a0 + __sdk_start;
bcmp = 0x00000000003bed38 + __sdk_start;
_ZTVNSt3__117__widen_from_utf8ILm16EEE = 0x0000000000905818 + __sdk_start;
opus_multistream_encode_float = 0x000000000010b738 + __sdk_start;
__nnmusl_MutexDestroy = 0x00000000003c4570 + __sdk_start;
FSS_font_name_with_offset = 0x00000000001c92d4 + __sdk_start;
_ZN2nn4util15RelocationTable13CalculateSizeEii = 0x000000000003a93c + __sdk_start;
freelocale = 0x00000000003a1758 + __sdk_start;
_ZN2nn3hid6detail26GetSixAxisSensorLeftStatesEPiPNS0_18SixAxisSensorStateEiRKNS0_9JoyXpadIdE = 0x000000000020166c + __sdk_start;
_ZN2nn4diag6detail17GetModulePathImplEPcmm = 0x00000000000449b0 + __sdk_start;
_ZN2nn5audio6server13CommandBuffer33GenerateCircularBufferSinkCommandEiPKNS1_12SinkInfoBaseEj = 0x000000000018b048 + __sdk_start;
_ZTVN2nn7account34NetworkServiceAccountAdministratorE = 0x00000000008d4028 + __sdk_start;
_ZN2nn2sf4cmif6client6detail13CmifProxyImplINS_2am7service24ITransferStorageAccessorENS2_15CmifDomainProxyINS0_4hipc6client38Hipc2ClientSessionManagedProxyKindBaseINSA_18Hipc2ProxyKindBaseILNS9_6detail11MessageTypeE4EEEEEEENS0_30MemoryResourceAllocationPolicyES7_E21_nn_sf_sync_GetHandleENS0_3OutINS0_12NativeHandleEvEENSK_ImvEE = 0x00000000000c2058 + __sdk_start;
_ZN2nn4nifm7RequestC2ERKNS0_17RequestParametersENS_2os14EventClearModeE = 0x000000000014a040 + __sdk_start;
_ZTSN2nn2sf4cmif6client6detail13CmifProxyImplINS_5visrv2sf18ISystemRootServiceENS0_4hipc6client18Hipc2ProxyKindBaseILNS8_6detail11MessageTypeE4EEENS0_30MemoryResourceAllocationPolicyES7_EE = 0x000000000078d370 + __sdk_start;
_ZN2nn3ldn11OpenStationEv = 0x00000000002320bc + __sdk_start;
_ZN2nn5image6detail4jpeg21jpeg_start_decompressEPNS2_22jpeg_decompress_structE = 0x00000000000193f4 + __sdk_start;
_ZTIN2nn2sf6detail39ObjectImplFactoryWithStatelessAllocatorINS0_4cmif6client16CmifProxyFactoryINS_4nifm6detail15IGeneralServiceENS4_15CmifDomainProxyINS0_4hipc6client38Hipc2ClientSessionManagedProxyKindBaseINSB_18Hipc2ProxyKindBaseILNSA_6detail11MessageTypeE4EEEEEEENS0_25StatelessAllocationPolicyINS0_22ExpHeapStaticAllocatorILm16384ENS7_21ServiceProviderClient30CreateNifmUserServiceObjectTagEEEEEE13ServiceObjectESO_E6ObjectE = 0x00000000008de0e0 + __sdk_start;
NvRmSurfaceComputeSize = 0x000000000024b8b4 + __sdk_start;
_ZNSt3__114__shared_countD1Ev = 0x000000000033d684 + __sdk_start;
silk_PLC_Reset = 0x00000000000eade8 + __sdk_start;
_ZNSt3__111timed_mutex6unlockEv = 0x000000000033dd6c + __sdk_start;
nnosInitializeSemaphore = 0x000000000008a080 + __sdk_start;
_ZN2nn2sf4hipc6client24Hipc2ClientCoreProcessorILNS1_6detail11MessageTypeE4ENS0_4cmif6detail14CoreMethodInfoINSt3__15tupleIJNS7_17InRawArgumentInfoILm8ELm8ELl0EEENSB_ILm8ELm8ELl8EEEEEELm16ELm0ELb1EEESE_E7ProcessEPNS2_26Hipc2ClientProxyBaseObjectENS6_6client23InRawClientArgumentTypeILm8ELm8EvEESL_j = 0x0000000000090ff8 + __sdk_start;
nnmem_nlib_mq_readonly = 0x00000000000724c8 + __sdk_start;
_ZTVN2nn2sf6detail39ObjectImplFactoryWithStatelessAllocatorINS0_4cmif6client16CmifProxyFactoryINS_3hid19IHidTemporaryServerENS0_4hipc6client18Hipc2ProxyKindBaseILNS8_6detail11MessageTypeE4EEENS0_25StatelessAllocationPolicyINS0_22ExpHeapStaticAllocatorILm16384ENS6_6detail18HidTemporaryServerEEEEEE13ServiceObjectESJ_E6ObjectE = 0x00000000008e7d78 + __sdk_start;
_ZTVNSt3__15ctypeIcEE = 0x0000000000905120 + __sdk_start;
_ZN7android8Composer11setPositionERKNS_2spINS_21SurfaceComposerClientEEERKNS1_INS_7IBinderEEEff = 0x00000000002a52ac + __sdk_start;
_ZN2nn5codec6detail18OpusPacketInternal23GetOpusPacketCodingModeEPNS0_14OpusCodingModeEPKhm = 0x000000000010d9d8 + __sdk_start;
_ZN2nn5prepo6detail7msgpack10WriteMap32EPNS2_17OutputStreamParamEj = 0x0000000000155f60 + __sdk_start;
_ZTIN2nn2sf4cmif6client16CmifProxyFactoryINS_4bcat6detail3ipc29IDeliveryCacheProgressServiceENS2_15CmifDomainProxyINS0_4hipc6client38Hipc2ClientSessionManagedProxyKindBaseINSA_18Hipc2ProxyKindBaseILNS9_6detail11MessageTypeE4EEEEEEENS0_30MemoryResourceAllocationPolicyEE13ServiceObjectE = 0x00000000008da400 + __sdk_start;
_ZN2nn2sf4cmif6client6detail13CmifProxyImplINS_4nifm6detail8IRequestENS2_15CmifDomainProxyINS0_4hipc6client38Hipc2ClientSessionManagedProxyKindBaseINSA_18Hipc2ProxyKindBaseILNS9_6detail11MessageTypeE4EEEEEEENS0_25StatelessAllocationPolicyINS0_22ExpHeapStaticAllocatorILm16384ENS6_21ServiceProviderClient30CreateNifmUserServiceObjectTagEEEEES7_E26_nn_sf_sync_SetSustainableEbh = 0x0000000000145d58 + __sdk_start;
_ZN2nn4htcs5FcntlEiii = 0x0000000000126a04 + __sdk_start;
_ZNSt3__112basic_stringIcNS_11char_traitsIcEENS_9allocatorIcEEED1Ev = 0x000000000033f34c + __sdk_start;
iswctype = 0x00000000003a01b0 + __sdk_start;
_ZN2nn3hid15VibrationTargetC1ERKNS0_21VibrationDeviceHandleE = 0x00000000002180fc + __sdk_start;
_ZNK2nn2os6detail34MultiWaitHolderOfInterProcessEvent15GetNativeHandleEPj = 0x000000000008c604 + __sdk_start;
_ZN2nn3web20SharePageReturnValueC1Ev = 0x00000000002377e8 + __sdk_start;
_ZN2nn5audio6server18PerformanceManagerC1Ev = 0x000000000018e30c + __sdk_start;
_ZN2nn5audio14MemoryPoolInfo7PrepareEPNS1_11InParameterE = 0x0000000000177320 + __sdk_start;
_ZTISt16bad_array_length = 0x0000000000907d60 + __sdk_start;
_ZN2nn3nfc6mifare8GetStateEv = 0x000000000012c028 + __sdk_start;
nnsocketGetHostByNameWithoutNsdResolve = 0x000000000009a878 + __sdk_start;
_ZN2nn2sf4cmif6client6detail13CmifProxyImplINS_2am7service15IAppletAccessorENS2_15CmifDomainProxyINS0_4hipc6client38Hipc2ClientSessionManagedProxyKindBaseINSA_18Hipc2ProxyKindBaseILNS9_6detail11MessageTypeE4EEEEEEENS0_30MemoryResourceAllocationPolicyES7_E17GetCmifBaseObjectEv = 0x00000000000c0c70 + __sdk_start;
_ZN7android6Region7xorSelfERKNS_4RectE = 0x00000000002ac348 + __sdk_start;
_ZTINSt3__112ctype_bynameIcEE = 0x0000000000906040 + __sdk_start;
_ZN2nn8settings6system44GetHeadphoneVolumeWarningDisplayedEventCountEv = 0x000000000015a370 + __sdk_start;
_ZN2nn2sf4cmif6client6detail13CmifProxyImplINS_5visrv2sf26IApplicationDisplayServiceENS0_4hipc6client18Hipc2ProxyKindBaseILNS8_6detail11MessageTypeE4EEENS0_30MemoryResourceAllocationPolicyES7_E30_nn_sf_sync_OpenDefaultDisplayENS0_3OutImvEE = 0x00000000001b89c8 + __sdk_start;
_ZN7android8Composer27setAnimationTransactionImplEv = 0x00000000002a50a4 + __sdk_start;
_ZNSt3__112system_errorD1Ev = 0x0000000000348d70 + __sdk_start;
__iswprint_l = 0x00000000003a0564 + __sdk_start;
_ZN2nn2sf4cmif6client6detail13CmifProxyImplINS_2am7service22ILibraryAppletAccessorENS2_15CmifDomainProxyINS0_4hipc6client38Hipc2ClientSessionManagedProxyKindBaseINSA_18Hipc2ProxyKindBaseILNS9_6detail11MessageTypeE4EEEEEEENS0_30MemoryResourceAllocationPolicyES7_E30_nn_sf_sync_NeedsToExitProcessENS0_3OutIbvEE = 0x00000000000c16e4 + __sdk_start;
_ZN2nn2fs18IsSaveDataExistingENS_3ncm13ApplicationIdERKNS0_6UserIdE = 0x0000000000062724 + __sdk_start;
_ZTSN2nn5fssrv2sf5IFileE = 0x000000000073d370 + __sdk_start;
_ZN2nn3mem19NumberLineAllocator8AddRangeEii = 0x000000000008398c + __sdk_start;
_ZN2nn5codec6detail21SetComplexityInternalEP11OpusEncoderi = 0x000000000010dd70 + __sdk_start;
_ZN2nn5prepo16SystemPlayReport10SetEventIdEPKc = 0x0000000000157ed0 + __sdk_start;
_ZTSN2nn2os6detail34MultiWaitHolderOfInterProcessEventE = 0x0000000000742f60 + __sdk_start;
_ZNK7android7Surface25getIGraphicBufferProducerEv = 0x00000000002a1e88 + __sdk_start;
_ZNSt3__112bad_weak_ptrD2Ev = 0x000000000033d650 + __sdk_start;
nnmem_nlib_rwlock_trywrlock = 0x000000000006b3ec + __sdk_start;
_ZN2nn5prepo6detail7msgpack11ReadCurrentEPNS2_7AnyDataEPNS2_16InputStreamParamE = 0x0000000000155724 + __sdk_start;
_ZN2nn5audio16AppendWaveBufferEPNS0_9VoiceTypeEPKNS0_10WaveBufferE = 0x0000000000179a6c + __sdk_start;
_ZN2nn3ngc6detail9SparseSet4SwapERS2_ = 0x000000000014217c + __sdk_start;
_ZN2nn2sf4cmif6client6detail13CmifProxyImplIN3nns9hosbinder16IHOSBinderDriverENS0_4hipc6client18Hipc2ProxyKindBaseILNS8_6detail11MessageTypeE4EEENS0_30MemoryResourceAllocationPolicyES7_E26_nn_sf_sync_AdjustRefcountEiii = 0x00000000001b8e08 + __sdk_start;
_ZTIN7android16SortedVectorImplE = 0x0000000000900920 + __sdk_start;
_ZN2nn4util7Color4f13ConstantWhiteE = 0x0000000000739e60 + __sdk_start;
imaxdiv = 0x00000000003bdb44 + __sdk_start;
_ZN2nn4util6detail16IntrusiveDicImpl10InsertImplEPNS0_16IntrusiveDicNodeE = 0x000000000003b800 + __sdk_start;
_ZNSt3__112system_errorC2ENS_10error_codeE = 0x0000000000348a88 + __sdk_start;
_ZN2nn5image6detail4jpeg22jinit_merged_upsamplerEPNS2_22jpeg_decompress_structE = 0x0000000000022464 + __sdk_start;
_ZN2nn8settings6system24SetInitialLaunchSettingsERKNS1_21InitialLaunchSettingsE = 0x000000000015cbc4 + __sdk_start;
_ZNK2nn3mii8Database8GetCountEi = 0x00000000001b103c + __sdk_start;
_ZN2nn3ngc6detail15CompressedArray5ResetEv = 0x00000000001428d4 + __sdk_start;
_ZN2nn3ldn15MakeIpv4AddressERA4_Kh = 0x0000000000232760 + __sdk_start;
_ZN2nn5audio6server24AudioRendererManagerImpl5SleepEv = 0x0000000000189148 + __sdk_start;
_ZN2nn6socket13GetHostByAddrEPKvjii = 0x000000000009a6d8 + __sdk_start;
__nnmusl_pthread_setaffinity_np = 0x00000000003c4c08 + __sdk_start;
_ZNK7android7BBinder22getInterfaceDescriptorEv = 0x0000000000275ef8 + __sdk_start;
NvRmMemHandleFromIVCId = 0x000000000025139c + __sdk_start;
_ZN2nn5audio6server10PoolMapperC1Ejb = 0x000000000018f8a4 + __sdk_start;
_ZN2nn2sf4hipc6client34HipcSimpleClientSessionManagerBase4Impl18InitializeByHandleINS_4bcat6detail3ipc15IServiceCreatorENS0_30MemoryResourceAllocationPolicyEEENS_6ResultEPNS0_13SharedPointerIT_EEPNT0_9AllocatorENS_3svc6HandleE = 0x00000000000ce518 + __sdk_start;
_ZTSN2nn2sf4cmif6client6detail13CmifProxyImplINS_5prepo6detail3ipc13IPrepoServiceENS2_15CmifDomainProxyINS0_4hipc6client38Hipc2ClientSessionManagedProxyKindBaseINSB_18Hipc2ProxyKindBaseILNSA_6detail11MessageTypeE4EEEEEEENS0_30MemoryResourceAllocationPolicyES8_EE = 0x000000000076eb30 + __sdk_start;
_ZN2nn2fs22AllReturnResultHandlerENS_6ResultE = 0x0000000000045af4 + __sdk_start;
_ZNK2nn3mii6detail11CoreDataRaw11GetEyebrowXEv = 0x00000000001a4910 + __sdk_start;
_ZN2nn3hid13GetNpadStatesEPNS0_17NpadHandheldStateEiRKj = 0x0000000000214188 + __sdk_start;
_ZN2nn2sf4cmif6client6detail13CmifProxyImplINS_8settings21ISystemSettingsServerENS0_4hipc6client18Hipc2ProxyKindBaseILNS7_6detail11MessageTypeE4EEENS0_25StatelessAllocationPolicyINS0_22ExpHeapStaticAllocatorILm16384ES6_EEEES6_E34_nn_sf_sync_GetBluetoothEnableFlagENS0_3OutIbvEE = 0x00000000001654f8 + __sdk_start;
_ZNSt3__17collateIcE2idE = 0x0000000000a0a030 + __sdk_start;
_ZN2nn5swkbd6detail18InlineKeyboardImpl17UnsetUserWordInfoEv = 0x00000000001b5f80 + __sdk_start;
_ZN2nn2sf4cmif6client6detail13CmifProxyImplINS_2am7service21IApplicationFunctionsENS2_15CmifDomainProxyINS0_4hipc6client38Hipc2ClientSessionManagedProxyKindBaseINSA_18Hipc2ProxyKindBaseILNS9_6detail11MessageTypeE4EEEEEEENS0_30MemoryResourceAllocationPolicyES7_E30_nn_sf_sync_GetDesiredLanguageENS0_3OutINS_8settings12LanguageCodeEvEE = 0x00000000000c582c + __sdk_start;
_ZN2nn5codec6detail21GetOpusFrameSizeValueENS0_13OpusFrameSizeE = 0x000000000010daec + __sdk_start;
_ZN2nn2vi24GetLayerIdWithValidationEPKNS0_5LayerE = 0x00000000001be574 + __sdk_start;
_ZN2nn2sf4cmif6client6detail13CmifProxyImplINS_2am7service15IAppletAccessorENS2_15CmifDomainProxyINS0_4hipc6client38Hipc2ClientSessionManagedProxyKindBaseINSA_18Hipc2ProxyKindBaseILNS9_6detail11MessageTypeE4EEEEEEENS0_30MemoryResourceAllocationPolicyES7_E38_nn_sf_sync_GetAppletStateChangedEventENS0_3OutINS0_12NativeHandleEvEE = 0x00000000000c0bb0 + __sdk_start;
_ZN2nn2fs24HierarchicalRomFileTable19CreateRootDirectoryEv = 0x0000000000045f34 + __sdk_start;
_ZN2nn3ssl10Connection20SetRenegotiationModeENS1_17RenegotiationModeE = 0x0000000000168db0 + __sdk_start;
_ZN2nn2fs8ReadFileENS0_10FileHandleElPvmRKNS0_10ReadOptionE = 0x000000000004d218 + __sdk_start;
_ZN2nn2sf4cmif6client6detail13CmifProxyImplINS_3mii6detail16IDatabaseServiceENS2_15CmifDomainProxyINS0_4hipc6client38Hipc2ClientSessionManagedProxyKindBaseINSA_18Hipc2ProxyKindBaseILNS9_6detail11MessageTypeE4EEEEEEENS0_25StatelessAllocationPolicyINS0_22ExpHeapStaticAllocatorILm16384ENS6_21ServiceProviderClient30CreateNifmUserServiceObjectTagEEEEES7_E24_nn_sf_sync_AddOrReplaceERKNS5_9StoreDataE = 0x00000000001b1f9c + __sdk_start;
_ZN2nn3mii6detail11CoreDataRaw11SetNicknameERKNS0_8NicknameE = 0x00000000001a4370 + __sdk_start;
_ZTIN2nn2sf6detail39ObjectImplFactoryWithStatelessAllocatorINS0_4cmif6client16CmifProxyFactoryINS_8settings15ISettingsServerENS0_4hipc6client18Hipc2ProxyKindBaseILNS8_6detail11MessageTypeE4EEENS0_25StatelessAllocationPolicyINS0_22ExpHeapStaticAllocatorILm16384ES7_EEEEE13ServiceObjectESH_E6ObjectE = 0x00000000008dfb20 + __sdk_start;
nnsslConnectionGetVerifyOption = 0x000000000016a49c + __sdk_start;
_ZN2nn3hid5debug28SetTouchScreenAutoPilotStateILm6EEEvRKNS1_25TouchScreenAutoPilotStateIXT_EEE = 0x000000000021624c + __sdk_start;
_ZN2nn6crypto6detail11CcmModeImplINS0_12AesEncryptorILm16EEEE10InitializeEPKS4_PKvmllm = 0x00000000000005a8 + __sdk_start;
_ZN2nn4diag24RegisterSdkAbortObserverEPNS0_22SdkAbortObserverHolderE = 0x00000000000440b0 + __sdk_start;
_ZTVNSt3__110ostrstreamE = 0x0000000000907770 + __sdk_start;
_ZTIN2nn2sf4cmif6server17CmifServerMessageE = 0x00000000008d0c20 + __sdk_start;
_ZN2nn5audio23SplitterDestinationData8FinalizeEv = 0x00000000001790a0 + __sdk_start;
wcscoll_l = 0x00000000003a3350 + __sdk_start;
_ZN2nn3mem19NumberLineAllocator9GetSizeOfEi = 0x00000000000859f8 + __sdk_start;
_ZN2nn5codec6detail24SetFrameSizeTypeInternalEP11OpusEncoderNS0_13OpusFrameSizeE = 0x000000000010dd90 + __sdk_start;
_ZNSt3__18ios_base10scientificE = 0x00000000007b2aac + __sdk_start;
amp2Log2 = 0x00000000000e2d6c + __sdk_start;
_ZN2nn5audio32GetReverbHighFrequencyDecayRatioEPKNS0_10ReverbTypeE = 0x0000000000175b08 + __sdk_start;
_ZN7android7String85setToEPKDim = 0x00000000002b0398 + __sdk_start;
fflush = 0x00000000003b9e28 + __sdk_start;
_ZN2nn3ntc4shim38CancelEnsuringNetworkClockAvailabilityEv = 0x0000000000171698 + __sdk_start;
_ZTSN2nn2sf4cmif6client16CmifProxyFactoryINS_4nifm6detail14IStaticServiceENS2_15CmifDomainProxyINS0_4hipc6client38Hipc2ClientSessionManagedProxyKindBaseINS9_18Hipc2ProxyKindBaseILNS8_6detail11MessageTypeE4EEEEEEENS0_25StatelessAllocationPolicyINS0_22ExpHeapStaticAllocatorILm16384ENS5_21ServiceProviderClient30CreateNifmUserServiceObjectTagEEEEEE13ServiceObjectE = 0x000000000076b190 + __sdk_start;
_ZN2nn2ec6detail15ShowShopPageArg14SetCallbackUrlEPKc = 0x000000000019ed80 + __sdk_start;
_ZN7android11DisplayEDIDC1Ev = 0x00000000002a93a0 + __sdk_start;
__nnmusl_ExitThread = 0x00000000003c3f84 + __sdk_start;
nnosLinkMultiWaitHolder = 0x000000000008a1f4 + __sdk_start;
_ZN2nn2sf6detail37UnmanagedEmplacedImplHolderBaseGetterINS_5audio6server24AudioRendererManagerImplEvE5Impl27ReleaseEv = 0x0000000000193fb4 + __sdk_start;
_ZN2nn3hid6detail20GetSleepButtonStatesEPiPNS0_6system16SleepButtonStateEi = 0x0000000000209d74 + __sdk_start;
_ZN2nn2os6detail13ThreadManager11ExitProcessEv = 0x0000000000089e84 + __sdk_start;
_ZN2nn5audio6server15SplitterContext25ClearAllNewConnectionFlagEv = 0x0000000000191820 + __sdk_start;
_ZN2nn2sf4cmif6client6detail13CmifProxyImplINS_8irsensor15IIrSensorServerENS0_4hipc6client18Hipc2ProxyKindBaseILNS7_6detail11MessageTypeE4EEENS0_25StatelessAllocationPolicyINS0_22ExpHeapStaticAllocatorILm16384ENS5_6detail14IrSensorServerEEEEES6_E30_nn_sf_sync_DeactivateIrsensorENS_6applet20AppletResourceUserIdE = 0x00000000002223d8 + __sdk_start;
_ZN2nn5audio23OpenFinalOutputRecorderEPNS0_19FinalOutputRecorderEPNS_2os11SystemEventERKNS0_28FinalOutputRecorderParameterERKNS_6applet20AppletResourceUserIdE = 0x0000000000186a1c + __sdk_start;
_ZNSt3__117__assoc_sub_state13set_exceptionESt13exception_ptr = 0x0000000000305194 + __sdk_start;
_ZN2nn5audio16VoiceInfoManager19FlushVoiceDataCacheEPKNS0_9VoiceInfoE = 0x000000000017a30c + __sdk_start;
_ZN2nn2sf4hipc6client24Hipc2ClientCoreProcessorILNS1_6detail11MessageTypeE4ENS0_4cmif6detail14CoreMethodInfoINSt3__15tupleIJNS7_17InRawArgumentInfoILm8ELm8ELl16EEENSB_ILm4ELm4ELl0EEENSB_ILm4ELm4ELl4EEENSB_ILm4ELm4ELl8EEEEEELm24ELm0ELb1EEESG_E7ProcessEPNS2_26Hipc2ClientProxyBaseObjectENS6_6client23InRawClientArgumentTypeILm8ELm8EvEENSM_ILm4ELm4EvEESO_SO_j = 0x000000000021ad68 + __sdk_start;
_ZN2nn2sf4cmif6client6detail13CmifProxyImplINS_3hid16IHidSystemServerENS0_4hipc6client18Hipc2ProxyKindBaseILNS7_6detail11MessageTypeE4EEENS0_25StatelessAllocationPolicyINS0_22ExpHeapStaticAllocatorILm16384ENS5_6detail15HidSystemServerEEEEES6_E37_nn_sf_sync_IsFirmwareUpdateAvailableENS0_3OutIbvEENS5_6system11UniquePadIdE = 0x000000000021cb20 + __sdk_start;
_ZN2nn5image6detail11GetExifInfoEPPKvPtPKhm = 0x000000000002d074 + __sdk_start;
silk_inner_prod_aligned_scale = 0x00000000000f203c + __sdk_start;
logbf = 0x00000000003aa85c + __sdk_start;
_ZN2nn2fs3fsa11IFileSystem21DoGetFileTimeStampRawEPNS0_16FileTimeStampRawEPKc = 0x000000000004ae28 + __sdk_start;
_ZN2nn4util8BitArray4flipEv = 0x000000000003aa44 + __sdk_start;
_ZN2nn3mii6detail12IsValidCrc16EPKvit = 0x00000000001a6ce0 + __sdk_start;
_ZNSt3__113basic_ostreamIwNS_11char_traitsIwEEE5tellpEv = 0x0000000000311390 + __sdk_start;
logbl = 0x00000000003aa8a4 + __sdk_start;
_ZN2nn2fs6detail17DirectoryAccessorD1Ev = 0x000000000004b360 + __sdk_start;
_ZN2nn4htcs6SocketEv = 0x0000000000126698 + __sdk_start;
_ZN2nn2sf4cmif6client6detail13CmifProxyImplINS_3hid15IHidDebugServerENS0_4hipc6client18Hipc2ProxyKindBaseILNS7_6detail11MessageTypeE4EEENS0_25StatelessAllocationPolicyINS0_22ExpHeapStaticAllocatorILm16384ENS5_6detail14HidDebugServerEEEEES6_E44_nn_sf_sync_UnsetCaptureButtonAutoPilotStateEv = 0x0000000000218e04 + __sdk_start;
__isalnum_l = 0x000000000039fe48 + __sdk_start;
_ZNK2nn5codec11OpusEncoder10GetBitRateEv = 0x000000000010d240 + __sdk_start;
_ZN2nn2sf4hipc6server6detail29HipcAllInOneServerManagerBase16ReceiveAsSessionEPNS_2os19MultiWaitHolderTypeE = 0x00000000000950f4 + __sdk_start;
_ZNK2nn3mii6detail16Ver3StoreDataRaw11GetEyebrowYEv = 0x00000000001ab60c + __sdk_start;
_ZN2nn2sf4cmif6client6detail13CmifProxyImplINS_7account4http15IOAuthProcedureENS2_15CmifDomainProxyINS0_4hipc6client38Hipc2ClientSessionManagedProxyKindBaseINSA_18Hipc2ProxyKindBaseILNS9_6detail11MessageTypeE4EEEEEEENS0_25StatelessAllocationPolicyINS0_22ExpHeapStaticAllocatorILm2048ENS5_6detail12ObjectHolder24ObjectHolderAllocatorTagEEEEES7_E17GetCmifBaseObjectEv = 0x00000000000b5344 + __sdk_start;
_ZN2nn8settings6detail18GetAudioOutputModeEPii = 0x000000000015d690 + __sdk_start;
_ZN2nn8settings22ResetXpadGenericPadMapEi = 0x000000000015d3b0 + __sdk_start;
_ZNK2nn3mii6detail16Ver3StoreDataRaw11GetCopyableEv = 0x00000000001aa37c + __sdk_start;
_ZTIN2nn2sf4cmif6client6detail13CmifProxyImplINS_5visrv2sf22IManagerDisplayServiceENS0_4hipc6client18Hipc2ProxyKindBaseILNS8_6detail11MessageTypeE4EEENS0_30MemoryResourceAllocationPolicyES7_EE = 0x00000000008e4c40 + __sdk_start;
_ZZN2nn2sf31SimpleAllInOneHipcClientManagerILm3EE27InitializeShimLibraryHolderINS_3pcv17IImmediateManagerEEENS_6ResultEPNS0_23ShimLibraryObjectHolderIT_EEPKcPNS_14MemoryResourceEENUlPNS0_13SharedPointerIS5_EEE_clESH_ = 0x00000000002f85ac + __sdk_start;
_ZNSt20bad_array_new_lengthD2Ev = 0x0000000000375474 + __sdk_start;
nnmem_nlib_yield = 0x0000000000079e54 + __sdk_start;
_ZNSt13runtime_errorC2ERKNSt3__112basic_stringIcNS0_11char_traitsIcEENS0_9allocatorIcEEEE = 0x000000000033edb4 + __sdk_start;
nnsocketSetSockOpt = 0x000000000009a728 + __sdk_start;
_ZN2nn4nifm6detail43ConvertInternetConnectionStatusToSfFromNifmEPNS1_2sf24InternetConnectionStatusERKNS0_24InternetConnectionStatusE = 0x000000000014ac64 + __sdk_start;
_ZNK2nn4bcat21DeliveryCacheProgress9GetResultEv = 0x00000000000cd620 + __sdk_start;
_ZN2nn3web15ShowNewsPageArgC2Ev = 0x000000000023870c + __sdk_start;
_ZN2nn6applet16MapHandleStorageEPPvPmNS0_13StorageHandleE = 0x00000000000caf50 + __sdk_start;
_ZTSN2nn2sf4cmif6client6detail9CmifProxyINS_3hid15IHidDebugServerENS0_4hipc6client18Hipc2ProxyKindBaseILNS7_6detail11MessageTypeE4EEENS0_25StatelessAllocationPolicyINS0_22ExpHeapStaticAllocatorILm16384ENS5_6detail14HidDebugServerEEEEEvEE = 0x0000000000796bb0 + __sdk_start;
_ZN2nn3mii15PrivateDatabaseD1Ev = 0x00000000001b11ec + __sdk_start;
__lshrti3 = 0x0000000000381f44 + __sdk_start;
_ZTVN2nn2sf4cmif6server23CmifServerDomainManager6DomainE = 0x00000000008d0728 + __sdk_start;
_ZN2nn6socket6detail10socketAtonEPKcP7in_addr = 0x000000000009e408 + __sdk_start;
_ZN2nn2fs15GetMmcSpeedModeEPNS0_12MmcSpeedModeE = 0x000000000005fc00 + __sdk_start;
_ZN2nn3hid24SetNpadCommunicationModeENS0_21NpadCommunicationModeE = 0x0000000000214570 + __sdk_start;
_ZN7android21SurfaceComposerClient15releaseInstanceEv = 0x00000000002a7d58 + __sdk_start;
_ZTSN2nn2sf4cmif6client6detail9CmifProxyINS_7account4baas14IAdministratorENS2_15CmifDomainProxyINS0_4hipc6client38Hipc2ClientSessionManagedProxyKindBaseINSA_18Hipc2ProxyKindBaseILNS9_6detail11MessageTypeE4EEEEEEENS0_25StatelessAllocationPolicyINS0_22ExpHeapStaticAllocatorILm2048ENS5_6detail12ObjectHolder24ObjectHolderAllocatorTagEEEEEvEE = 0x000000000074c630 + __sdk_start;
_ZN2nn2sf4cmif6client6detail13CmifProxyImplINS_3hid10IHidServerENS0_4hipc6client18Hipc2ProxyKindBaseILNS7_6detail11MessageTypeE4EEENS0_25StatelessAllocationPolicyINS0_22ExpHeapStaticAllocatorILm16384ENS5_6detail9HidServerEEEEES6_E17GetCmifBaseObjectEv = 0x000000000021a788 + __sdk_start;
_ZN7android21SurfaceComposerClient21getHotplugEventHandleERjRb = 0x00000000002a61c8 + __sdk_start;
_ZN2nn2ec23ShowShopSettingsForMenuERKNS_7account3UidENS0_8SourceIdE = 0x000000000019d6c8 + __sdk_start;
_ZN2nn2sf4cmif6client34CmifDomainProxyClientCoreProcessorINS0_4hipc6client38Hipc2ClientSessionManagedProxyKindBaseINS5_18Hipc2ProxyKindBaseILNS4_6detail11MessageTypeE4EEEEENS1_6detail14CoreMethodInfoINSt3__15tupleIJNSC_18BufferArgumentInfoILi0ELi26ELm1208EEENSC_17InRawArgumentInfoILm16ELm8ELl8EEENSI_ILm8ELm1ELl0EEEEEELm24ELm0ELb0EEESL_E7ProcessEPNS2_23CmifDomainClientMessageISB_E15ProxyBaseObjectENS2_24BufferClientArgumentTypeENS2_23InRawClientArgumentTypeILm16ELm8EvEENST_ILm8ELm1EvEEj = 0x000000000011d844 + __sdk_start;
_ZnamRKSt9nothrow_t = 0x000000000033e2d4 + __sdk_start;
_ZN2nn8irsensor6detail15IrSensorSessionC1ERKNS_6applet20AppletResourceUserIdE = 0x0000000000220784 + __sdk_start;
_ZTVNSt3__115numpunct_bynameIcEE = 0x0000000000905378 + __sdk_start;
_ZTIN2nn2sf6detail39ObjectImplFactoryWithStatelessAllocatorINS0_4cmif6client16CmifProxyFactoryINS_7account6detail13IAsyncContextENS4_15CmifDomainProxyINS0_4hipc6client38Hipc2ClientSessionManagedProxyKindBaseINSB_18Hipc2ProxyKindBaseILNSA_6detail11MessageTypeE4EEEEEEENS0_25StatelessAllocationPolicyINS0_22ExpHeapStaticAllocatorILm2048ENS7_12ObjectHolder24ObjectHolderAllocatorTagEEEEEE13ServiceObjectESO_E6ObjectE = 0x00000000008d2000 + __sdk_start;
strerror = 0x00000000003a1484 + __sdk_start;
setup_outline = 0x00000000001ed710 + __sdk_start;
_ZN2nn4util10BitFlagSetILi256ENS_3hid11KeyboardKeyEE4FlagILi136EE4MaskE = 0x0000000000790958 + __sdk_start;
NvRmSyncIsSyncpoints = 0x0000000000251ad8 + __sdk_start;
_ZN2nn2sf4cmif6client34CmifDomainProxyClientCoreProcessorINS0_4hipc6client38Hipc2ClientSessionManagedProxyKindBaseINS5_18Hipc2ProxyKindBaseILNS4_6detail11MessageTypeE4EEEEENS1_6detail14CoreMethodInfoINSt3__15tupleIJNSC_17InRawArgumentInfoILm8ELm8ELl0EEENSG_ILm8ELm8ELl8EEENSC_18BufferArgumentInfoILi0ELi5ELm0EEEEEELm16ELm0ELb1EEESL_E7ProcessEPNS2_23CmifDomainClientMessageISB_E15ProxyBaseObjectENS2_23InRawClientArgumentTypeILm8ELm8EvEEST_NS2_24BufferClientArgumentTypeEj = 0x000000000012b1a8 + __sdk_start;
_ZN2nn4gpio8FinalizeEv = 0x00000000002f3bb4 + __sdk_start;
_ZN2nn8irsensor6detail13StatusManager23UnregisterIrSensorAruidERKNS_6applet20AppletResourceUserIdE = 0x000000000021fd4c + __sdk_start;
__nnmusl_fini_dso = 0x00000000003c572c + __sdk_start;
nnutilZlib__tr_align = 0x0000000000038280 + __sdk_start;
_ZTv0_n24_N7android9BpRefBaseD1Ev = 0x0000000000276860 + __sdk_start;
ctanhf = 0x000000000039a000 + __sdk_start;
_ZNSt3__117moneypunct_bynameIwLb1EE4initEPKc = 0x0000000000325bf0 + __sdk_start;
_ZN2nn2oe33EndBlockingHomeButtonShortPressedEv = 0x000000000014dee4 + __sdk_start;
_ZN2nn5audio6common10EdgeMatrix11RemoveEdgesEi = 0x000000000017a910 + __sdk_start;
_ZN2nn3hid12GetNpadStateEPNS0_16NpadJoyDualStateERKj = 0x0000000000214600 + __sdk_start;
_ZN2nn2sf4cmif6client6detail13CmifProxyImplINS_7friends6detail3ipc14IFriendServiceENS2_15CmifDomainProxyINS0_4hipc6client38Hipc2ClientSessionManagedProxyKindBaseINSB_18Hipc2ProxyKindBaseILNSA_6detail11MessageTypeE4EEEEEEENS0_30MemoryResourceAllocationPolicyES8_E25_nn_sf_sync_GetFriendListENS0_3OutIivEERKNS0_8OutArrayINS6_10FriendImplEEERKNS_7account3UidEiRKNS7_17SizedFriendFilterEm = 0x0000000000119eac + __sdk_start;
_ZN2nn2sf4cmif6client6detail13CmifProxyImplINS_7account6detail14ISessionObjectENS2_15CmifDomainProxyINS0_4hipc6client38Hipc2ClientSessionManagedProxyKindBaseINSA_18Hipc2ProxyKindBaseILNS9_6detail11MessageTypeE4EEEEEEENS0_25StatelessAllocationPolicyINS0_22ExpHeapStaticAllocatorILm2048ENS6_12ObjectHolder24ObjectHolderAllocatorTagEEEEES7_E17GetCmifBaseObjectEv = 0x00000000000b5828 + __sdk_start;
_ZNK2nn3ngc6detail7SbvRank7MemSizeEj = 0x000000000013f24c + __sdk_start;
_ZN2nn3hid6detail35GetSixAxisSensorHandleXpadTypeValueERKNS0_19SixAxisSensorHandleE = 0x0000000000209080 + __sdk_start;
__strcoll_l = 0x00000000003a2e64 + __sdk_start;
ctanhl = 0x000000000039a190 + __sdk_start;
_ZTIN2nn4pctl6detail3ipc23IParentalControlServiceE = 0x00000000008def30 + __sdk_start;
_ZNK2nn2sf4hipc6detail25HipcMessageBufferAccessor13GetMoveHandleEi = 0x000000000009488c + __sdk_start;
_ZTINSt3__110istrstreamE = 0x0000000000907920 + __sdk_start;
_ZN2nn4diag40GetRequiredBufferSizeForGetAllModuleInfoEv = 0x0000000000044230 + __sdk_start;
_ZN2nn2sf4hipc6client24Hipc2ClientCoreProcessorILNS1_6detail11MessageTypeE4ENS0_4cmif6detail14CoreMethodInfoINSt3__15tupleIJNS7_18OutRawArgumentInfoILm6ELm1ELl0EEENS7_17InRawArgumentInfoILm8ELm8ELl0EEEEEELm8ELm6ELb0EEESF_E7ProcessEPNS2_26Hipc2ClientProxyBaseObjectENS6_6client24OutRawClientArgumentTypeILm6ELm1EEENSK_23InRawClientArgumentTypeILm8ELm8EvEEj = 0x000000000021d534 + __sdk_start;
_ZN2nn5image11JpegEncoder10SetQualityEi = 0x000000000002e4a0 + __sdk_start;
_ZN2nn4util10BitFlagSetILi256ENS_3hid11KeyboardKeyEE4FlagILi68EE4MaskE = 0x0000000000790318 + __sdk_start;
_ZTIN2nn2sf6detail38ObjectImplFactoryWithStatefulAllocatorINS0_4cmif6client16CmifProxyFactoryINS_4bcat6detail3ipc25IDeliveryCacheFileServiceENS4_15CmifDomainProxyINS0_4hipc6client38Hipc2ClientSessionManagedProxyKindBaseINSC_18Hipc2ProxyKindBaseILNSB_6detail11MessageTypeE4EEEEEEENS0_30MemoryResourceAllocationPolicyEE13ServiceObjectESK_E6ObjectE = 0x00000000008da6d0 + __sdk_start;
_ZTIPKDh = 0x00000000009084f0 + __sdk_start;
_ZTIN10__cxxabiv116__enum_type_infoE = 0x00000000009087c0 + __sdk_start;
_ZTIPKDi = 0x00000000009086d0 + __sdk_start;
_ZN2nn2vi18GetDisplayRgbRangeEPNS0_8RgbRangeEPKNS0_7DisplayE = 0x00000000001bd280 + __sdk_start;
_ZN2nn3hid6system6detail18GetFirmwareVersionEPNS1_15FirmwareVersionENS1_11UniquePadIdE = 0x00000000001feeec + __sdk_start;
_ZN2nn5audio17ReleaseMemoryPoolEPNS0_19AudioRendererConfigEPNS0_14MemoryPoolTypeE = 0x0000000000176fe4 + __sdk_start;
NvOsAtomicExchangeAdd32 = 0x0000000000245d30 + __sdk_start;
_ZNSt3__116__narrow_to_utf8ILm32EED2Ev = 0x0000000000312764 + __sdk_start;
NvOsPhysicalMemUnmap = 0x0000000000244cd8 + __sdk_start;
_ZN2nn6crypto19GenerateHmacSha1MacEPvmPKvmS3_m = 0x000000000000157c + __sdk_start;
_ZTIPKDn = 0x0000000000907ff0 + __sdk_start;
_ZN2nn7friends15FriendCandidateC1Ev = 0x0000000000116a08 + __sdk_start;
_ZN7android21SurfaceComposerClientC2Ev = 0x00000000002a5a88 + __sdk_start;
_ZTVN2nn2sf6detail38ObjectImplFactoryWithStatefulAllocatorINS0_4cmif6client16CmifProxyFactoryINS_4bcat6detail3ipc28IDeliveryCacheStorageServiceENS4_15CmifDomainProxyINS0_4hipc6client38Hipc2ClientSessionManagedProxyKindBaseINSC_18Hipc2ProxyKindBaseILNSB_6detail11MessageTypeE4EEEEEEENS0_30MemoryResourceAllocationPolicyEE13ServiceObjectESK_E6ObjectE = 0x00000000008da458 + __sdk_start;
fwrite_unlocked = 0x00000000003bb060 + __sdk_start;
_ZN2nn2sf13SharedPointerINS_5visrv2sf26IApplicationDisplayServiceEED2Ev = 0x00000000001b7250 + __sdk_start;
_ZN7android16BnServiceManager10onTransactEjRKNS_6ParcelEPS1_j = 0x000000000027ba90 + __sdk_start;
_ZN7android8BpBinder11linkToDeathERKNS_2spINS_7IBinder14DeathRecipientEEEPvj = 0x000000000027741c + __sdk_start;
_ZN2nn2sf4cmif6client6detail13CmifProxyImplINS_2am7service25IProcessWindingControllerENS2_15CmifDomainProxyINS0_4hipc6client38Hipc2ClientSessionManagedProxyKindBaseINSA_18Hipc2ProxyKindBaseILNS9_6detail11MessageTypeE4EEEEEEENS0_30MemoryResourceAllocationPolicyES7_E12GetProxyInfoEv = 0x00000000000c0ef8 + __sdk_start;
_ZN2nn5audio6server24AudioRendererManagerImpl15AudioDeviceImpl34GetAudioDeviceOutputVolumeInternalERKNS_2sf8InBufferENS4_3OutIfvEE = 0x0000000000193b38 + __sdk_start;
_ZTIPKDs = 0x0000000000908680 + __sdk_start;
_ZN2nn5audio15PerformanceInfoD2Ev = 0x0000000000177b20 + __sdk_start;
_ZTSSt10bad_typeid = 0x00000000007b77b0 + __sdk_start;
NvRmSurfaceInitRmPitch = 0x000000000024acf8 + __sdk_start;
_ZN2nn6fontll18ScalableFontEngine8GetErrorEv = 0x00000000001c3a10 + __sdk_start;
_ZN2nn3err39ShowUnacceptableApplicationVersionErrorEv = 0x000000000010f2f4 + __sdk_start;
_ZN2nn4lmem6detail12DumpUnitHeapEPNS1_8HeapHeadE = 0x000000000006a824 + __sdk_start;
_ZN2nn2sf4cmif6client6detail13CmifProxyImplINS_2am7service21ILibraryAppletCreatorENS2_15CmifDomainProxyINS0_4hipc6client38Hipc2ClientSessionManagedProxyKindBaseINSA_18Hipc2ProxyKindBaseILNS9_6detail11MessageTypeE4EEEEEEENS0_30MemoryResourceAllocationPolicyES7_E36_nn_sf_sync_AreAnyLibraryAppletsLeftENS0_3OutIbvEE = 0x00000000000c2588 + __sdk_start;
_ZN2nn3mii6detail11CoreDataRaw12SetEyeAspectEi = 0x00000000001a52b8 + __sdk_start;
_ZN2nn2sf4cmif6client6detail13CmifProxyImplINS_8settings21ISystemSettingsServerENS0_4hipc6client18Hipc2ProxyKindBaseILNS7_6detail11MessageTypeE4EEENS0_25StatelessAllocationPolicyINS0_22ExpHeapStaticAllocatorILm16384ES6_EEEES6_E25_nn_sf_sync_GetColorSetIdENS0_3OutIivEE = 0x0000000000164c64 + __sdk_start;
_ZN2nn2sf4cmif6client34CmifDomainProxyClientCoreProcessorINS0_4hipc6client38Hipc2ClientSessionManagedProxyKindBaseINS5_18Hipc2ProxyKindBaseILNS4_6detail11MessageTypeE4EEEEENS1_6detail14CoreMethodInfoINSt3__15tupleIJNSC_18BufferArgumentInfoILi0ELi25ELm4EEEEEELm0ELm0ELb0EEESI_E7ProcessEPNS2_23CmifDomainClientMessageISB_E15ProxyBaseObjectENS2_24BufferClientArgumentTypeEj = 0x0000000000147dd8 + __sdk_start;
_ZTSN2nn2fs10SubStorageE = 0x000000000073b8b0 + __sdk_start;
_ZN2nn4gpio18SetInterruptEnableEPNS0_14GpioPadSessionEb = 0x00000000002f4058 + __sdk_start;
_ZN2nn2sf6detail38ObjectImplFactoryWithStatefulAllocatorINS0_4cmif6client16CmifProxyFactoryINS_2am7service16IStorageAccessorENS4_15CmifDomainProxyINS0_4hipc6client38Hipc2ClientSessionManagedProxyKindBaseINSB_18Hipc2ProxyKindBaseILNSA_6detail11MessageTypeE4EEEEEEENS0_30MemoryResourceAllocationPolicyEE13ServiceObjectESJ_E6Object12AddReferenceEv = 0x00000000000c1a9c + __sdk_start;
_ZTVN2nn2sf6detail38ObjectImplFactoryWithStatefulAllocatorINS0_4cmif6client16CmifProxyFactoryINS_3fgm2sf8ISessionENS4_15CmifDomainProxyINS0_4hipc6client38Hipc2ClientSessionManagedProxyKindBaseINSB_18Hipc2ProxyKindBaseILNSA_6detail11MessageTypeE4EEEEEEENS0_30MemoryResourceAllocationPolicyEE13ServiceObjectESJ_E6ObjectE = 0x0000000000902650 + __sdk_start;
_ZN2nn2sf4cmif6client6detail13CmifProxyImplINS_8irsensor15IIrSensorServerENS0_4hipc6client18Hipc2ProxyKindBaseILNS7_6detail11MessageTypeE4EEENS0_25StatelessAllocationPolicyINS0_22ExpHeapStaticAllocatorILm16384ENS5_6detail14IrSensorServerEEEEES6_E33_nn_sf_sync_SuspendImageProcessorENS_6applet20AppletResourceUserIdENS5_14IrCameraHandleE = 0x0000000000222544 + __sdk_start;
_ZTSN2nn2sf4cmif6client16CmifProxyFactoryINS_7account4baas28IFloatingRegistrationRequestENS2_15CmifDomainProxyINS0_4hipc6client38Hipc2ClientSessionManagedProxyKindBaseINS9_18Hipc2ProxyKindBaseILNS8_6detail11MessageTypeE4EEEEEEENS0_25StatelessAllocationPolicyINS0_22ExpHeapStaticAllocatorILm2048ENS4_6detail12ObjectHolder24ObjectHolderAllocatorTagEEEEEE13ServiceObjectE = 0x000000000074bd30 + __sdk_start;
_ZNK2nn3web38ShowApplicationLegalInformationPageArg15PushToInChannelENS_6applet19LibraryAppletHandleE = 0x00000000002365a4 + __sdk_start;
_ZN2nn5audio27GetAudioRendererSampleCountENS0_19AudioRendererHandleE = 0x000000000017e144 + __sdk_start;
pack_ufixed_20_12_f = 0x000000000023bd08 + __sdk_start;
_ZN2nn5audio21SetI3dl2ReverbEnabledEPNS0_15I3dl2ReverbTypeEb = 0x0000000000176774 + __sdk_start;
setlocale = 0x00000000003879a4 + __sdk_start;
_ZN2nn2sf4cmif6client6detail13CmifProxyImplINS_7friends6detail3ipc14IFriendServiceENS2_15CmifDomainProxyINS0_4hipc6client38Hipc2ClientSessionManagedProxyKindBaseINSB_18Hipc2ProxyKindBaseILNSA_6detail11MessageTypeE4EEEEEEENS0_30MemoryResourceAllocationPolicyES8_E28_nn_sf_sync_GetFriendListIdsENS0_3OutIivEERKNS0_8OutArrayINS_7account23NetworkServiceAccountIdEEERKNSO_3UidEiRKNS7_17SizedFriendFilterEm = 0x0000000000119e58 + __sdk_start;
_ZN2nn2sf4cmif6client6detail13CmifProxyImplINS_3ssl2sf14ISslConnectionENS2_15CmifDomainProxyINS0_4hipc6client38Hipc2ClientSessionManagedProxyKindBaseINSA_18Hipc2ProxyKindBaseILNS9_6detail11MessageTypeE4EEEEEEENS0_24StatefulAllocationPolicyINS0_16ExpHeapAllocatorEEES7_E23_nn_sf_sync_GetHostNameERKNS0_9OutBufferENS0_3OutIjvEE = 0x000000000016b948 + __sdk_start;
silk_residual_energy_FIX = 0x00000000000fd634 + __sdk_start;
_ZNSt3__115basic_streambufIwNS_11char_traitsIwEEE5imbueERKNS_6localeE = 0x000000000030816c + __sdk_start;
_ZN2nn3ssl7Context9GetOptionEPiNS1_13ContextOptionE = 0x0000000000168238 + __sdk_start;
_ZNK2nn5audio8SinkInfo6IsUsedEv = 0x0000000000178330 + __sdk_start;
_ZTIN2nn2sf4cmif6client6detail9CmifProxyINS_3ssl2sf11ISslServiceENS2_15CmifDomainProxyINS0_4hipc6client38Hipc2ClientSessionManagedProxyKindBaseINSA_18Hipc2ProxyKindBaseILNS9_6detail11MessageTypeE4EEEEEEENS0_24StatefulAllocationPolicyINS0_16ExpHeapAllocatorEEEvEE = 0x00000000008e0240 + __sdk_start;
_ZNK2nn5audio23SplitterDestinationData16GetDestinationIdEv = 0x0000000000179558 + __sdk_start;
_ZN2nn2sf4cmif6client6detail13CmifProxyImplINS_7friends6detail3ipc14IFriendServiceENS2_15CmifDomainProxyINS0_4hipc6client38Hipc2ClientSessionManagedProxyKindBaseINSB_18Hipc2ProxyKindBaseILNSA_6detail11MessageTypeE4EEEEEEENS0_30MemoryResourceAllocationPolicyES8_E31_nn_sf_sync_AcceptFriendRequestERKNS_7account3UidENS5_9RequestIdE = 0x000000000011a678 + __sdk_start;
silk_stereo_LR_to_MS = 0x00000000000f4330 + __sdk_start;
_ZN2nn2sf4cmif6client6detail13CmifProxyImplINS_7friends6detail3ipc14IFriendServiceENS2_15CmifDomainProxyINS0_4hipc6client38Hipc2ClientSessionManagedProxyKindBaseINSB_18Hipc2ProxyKindBaseILNSA_6detail11MessageTypeE4EEEEEEENS0_30MemoryResourceAllocationPolicyES8_E29_nn_sf_sync_LoadFriendSettingENS0_3OutINS6_17FriendSettingImplEvEERKNS_7account3UidENSO_23NetworkServiceAccountIdE = 0x000000000011a25c + __sdk_start;
NvOsHeapAllocatorPrintStatistics = 0x0000000000243ed4 + __sdk_start;
_ZN7android7RefBase11renameRefIdEPS0_PKvS3_ = 0x00000000002ae86c + __sdk_start;
_ZN2nn5audio18SetReverbEarlyGainEPNS0_10ReverbTypeEf = 0x00000000001759f8 + __sdk_start;
_ZTSN2nn2sf6detail38ObjectImplFactoryWithStatefulAllocatorINS0_4cmif6client16CmifProxyFactoryINS_2am7service19ILibraryAppletProxyENS4_15CmifDomainProxyINS0_4hipc6client38Hipc2ClientSessionManagedProxyKindBaseINSB_18Hipc2ProxyKindBaseILNSA_6detail11MessageTypeE4EEEEEEENS0_30MemoryResourceAllocationPolicyEE13ServiceObjectESJ_E6ObjectE = 0x0000000000755a10 + __sdk_start;
_ZN7android12ConsumerBase16onFrameAvailableERKNS_10BufferItemE = 0x0000000000293f78 + __sdk_start;
_ZN2nn5audio6server24AudioRendererManagerImpl15AudioDeviceImpl30SetAudioDeviceOutputVolumeAutoERKNS_2sf8InBufferEf = 0x0000000000193af4 + __sdk_start;
_ZN2nn2sf4cmif6client6detail13CmifProxyImplINS_3fgm2sf8IRequestENS2_15CmifDomainProxyINS0_4hipc6client38Hipc2ClientSessionManagedProxyKindBaseINSA_18Hipc2ProxyKindBaseILNS9_6detail11MessageTypeE4EEEEEEENS0_30MemoryResourceAllocationPolicyES7_E15_nn_sf_sync_SetEjj = 0x00000000002f2e34 + __sdk_start;
_ZNSt3__118condition_variableD2Ev = 0x0000000000302e34 + __sdk_start;
_ZTIN2nn4nifm6detail8IRequestE = 0x00000000008de390 + __sdk_start;
_ZN2nn4htcs14GetPeerNameAnyEv = 0x00000000001275d4 + __sdk_start;
_ZN7android14SurfaceControl20writeSurfaceToParcelERKNS_2spIS0_EEPNS_6ParcelE = 0x00000000002a4218 + __sdk_start;
_ZN2nn2lm6detail20LogPacketTransmitter17PushLogSessionEndEv = 0x00000000001295ec + __sdk_start;
_ZN2nn2sf4cmif6client6detail13CmifProxyImplINS_4bcat6detail3ipc12IBcatServiceENS2_15CmifDomainProxyINS0_4hipc6client38Hipc2ClientSessionManagedProxyKindBaseINSB_18Hipc2ProxyKindBaseILNSA_6detail11MessageTypeE4EEEEEEENS0_30MemoryResourceAllocationPolicyES8_E31_nn_sf_sync_UnblockDeliveryTaskENS_13ApplicationIdE = 0x00000000000ceb44 + __sdk_start;
_ZNSt3__114collate_bynameIcED0Ev = 0x00000000003319dc + __sdk_start;
_ZN2nn2sf4cmif6client6detail13CmifProxyImplINS_8irsensor15IIrSensorServerENS0_4hipc6client18Hipc2ProxyKindBaseILNS7_6detail11MessageTypeE4EEENS0_25StatelessAllocationPolicyINS0_22ExpHeapStaticAllocatorILm16384ENS5_6detail14IrSensorServerEEEEES6_E28_nn_sf_sync_ActivateIrsensorENS_6applet20AppletResourceUserIdE = 0x00000000002223b8 + __sdk_start;
_ZNSt3__118shared_timed_mutex11lock_sharedEv = 0x000000000033eae8 + __sdk_start;
_ZN2nn6socket8resolver3tls6Client24GetCurrentGaiErrorStringEv = 0x00000000000a6c5c + __sdk_start;
_ZN2nn3nsd14GetSettingNameEPNS0_11SettingNameE = 0x000000000014b67c + __sdk_start;
_ZN2nn3ssl6detail16SslMemoryManager6g_HeapE = 0x00000000009775d8 + __sdk_start;
_ZN2nn5codec30HardwareOpusMultiStreamDecoderC1Ei = 0x000000000010c60c + __sdk_start;
_ZTSN2nn2sf6detail38ObjectImplFactoryWithStatefulAllocatorINS0_4cmif6client16CmifProxyFactoryINS_3fgm2sf8IRequestENS4_15CmifDomainProxyINS0_4hipc6client38Hipc2ClientSessionManagedProxyKindBaseINSB_18Hipc2ProxyKindBaseILNSA_6detail11MessageTypeE4EEEEEEENS0_30MemoryResourceAllocationPolicyEE13ServiceObjectESJ_E6ObjectE = 0x00000000007af5d0 + __sdk_start;
nnutilZlib__tr_init = 0x0000000000037ee8 + __sdk_start;
_ZNSt3__113basic_ostreamIwNS_11char_traitsIwEEED2Ev = 0x000000000030f710 + __sdk_start;
internal_get_outline = 0x00000000001eecec + __sdk_start;
_ZN2nn2sf4cmif6client34CmifDomainProxyClientCoreProcessorINS0_4hipc6client38Hipc2ClientSessionManagedProxyKindBaseINS5_18Hipc2ProxyKindBaseILNS4_6detail11MessageTypeE4EEEEENS1_6detail14CoreMethodInfoINSt3__15tupleIJNSC_18BufferArgumentInfoILi0ELi26ELm64EEENSC_17InRawArgumentInfoILm8ELm4ELl0EEEEEELm8ELm0ELb0EEESK_E7ProcessEPNS2_23CmifDomainClientMessageISB_E15ProxyBaseObjectENS2_24BufferClientArgumentTypeENS2_23InRawClientArgumentTypeILm8ELm4EvEEj = 0x000000000013177c + __sdk_start;
_ZTSN2nn2sf4cmif6client6detail13CmifProxyImplINS_2am7service25IProcessWindingControllerENS2_15CmifDomainProxyINS0_4hipc6client38Hipc2ClientSessionManagedProxyKindBaseINSA_18Hipc2ProxyKindBaseILNS9_6detail11MessageTypeE4EEEEEEENS0_30MemoryResourceAllocationPolicyES7_EE = 0x0000000000753290 + __sdk_start;
_ZTSN2nn7account6detail13IAsyncContextE = 0x0000000000748710 + __sdk_start;
perror = 0x00000000003bb634 + __sdk_start;
_ZN2nn2sf4cmif6client6detail13CmifProxyImplINS_4nifm6detail15IGeneralServiceENS2_15CmifDomainProxyINS0_4hipc6client38Hipc2ClientSessionManagedProxyKindBaseINSA_18Hipc2ProxyKindBaseILNS9_6detail11MessageTypeE4EEEEEEENS0_25StatelessAllocationPolicyINS0_22ExpHeapStaticAllocatorILm16384ENS6_21ServiceProviderClient30CreateNifmUserServiceObjectTagEEEEES7_E36_nn_sf_sync_GetCurrentNetworkProfileENS0_3OutINS6_2sf18NetworkProfileDataEvEE = 0x00000000001451fc + __sdk_start;
_ZTIN2nn2fs6detail18FileSystemAccessorE = 0x00000000008cdf40 + __sdk_start;
_ZN2nn2os22StartOneShotTimerEventEPNS0_14TimerEventTypeENS_8TimeSpanE = 0x0000000000087188 + __sdk_start;
__nnmusl_CreateThread = 0x00000000003c4074 + __sdk_start;
_ZNK2nn4nifm6detail12HttpResponse10GetPointerEv = 0x000000000014b664 + __sdk_start;
_ZTIN2nn7timesrv6detail7service14IStaticServiceE = 0x00000000008e06f0 + __sdk_start;
_ZTIN2nn3i2c8IManagerE = 0x0000000000902d30 + __sdk_start;
_ZNK7android5Fence10getFdCountEv = 0x00000000002a96c8 + __sdk_start;
_ZNSt3__14stolERKNS_12basic_stringIcNS_11char_traitsIcEENS_9allocatorIcEEEEPmi = 0x0000000000343cd0 + __sdk_start;
_ZNKSt3__117moneypunct_bynameIwLb0EE13do_neg_formatEv = 0x0000000000325be8 + __sdk_start;
_ZN2nn5audio36GetReleasedFinalOutputRecorderBufferEPNS0_19FinalOutputRecorderE = 0x0000000000186fac + __sdk_start;
_ZNK2nn3mii6detail11CoreDataRaw15GetFacelineTypeEv = 0x00000000001a44fc + __sdk_start;
_ZN2nn4util20GenerateUuidVersion5EPKv = 0x00000000000aa21c + __sdk_start;
_ZN2nn8settings6system20SetBacklightSettingsERKNS1_19BacklightSettingsExE = 0x000000000015a5cc + __sdk_start;
NvRmSyncCalculateSizeForInplaceFd = 0x000000000024e078 + __sdk_start;
_ZN2nn8settings6detail22SetBluetoothEnableFlagEb = 0x000000000015e82c + __sdk_start;
_ZN2nn7nlibsdk4heap14TlsHeapCentralC2Ev = 0x000000000007d464 + __sdk_start;
_ZNK2nn5audio3dsp20CommandListProcessor14GetBufferCountEv = 0x000000000019517c + __sdk_start;
_ZN2nn3ngc12CountNumbersEPKc = 0x0000000000133d84 + __sdk_start;
_ZN2nn2sf4cmif6client6detail13CmifProxyImplINS_4pctl6detail3ipc23IParentalControlServiceENS2_15CmifDomainProxyINS0_4hipc6client38Hipc2ClientSessionManagedProxyKindBaseINSB_18Hipc2ProxyKindBaseILNSA_6detail11MessageTypeE4EEEEEEENS0_30MemoryResourceAllocationPolicyES8_E47_nn_sf_sync_FinishGetAccountMiiImageContentTypeENS0_3OutIjvEERKNS0_8OutArrayIcEENS6_9AsyncDataE = 0x00000000001534ec + __sdk_start;
creat64 = 0x00000000003a1568 + __sdk_start;
_ZN2nn3hid6detail32GetSixAxisSensorHandleNpadIdTypeERKNS0_19SixAxisSensorHandleE = 0x00000000002090a0 + __sdk_start;
__floatundisf = 0x0000000000381980 + __sdk_start;
_ZN2nn7account6detail18OAuthProcedureBase13ApplyResponseEPKcm = 0x00000000000aaaac + __sdk_start;
_ZN2nn2oe37IsUserInactivityDetectionTimeExtendedEv = 0x000000000014e398 + __sdk_start;
_ZNSt3__18ios_base7failureD1Ev = 0x0000000000311948 + __sdk_start;
_ZNK7android10BufferItem7flattenERPvRmRPiS3_ = 0x000000000028b51c + __sdk_start;
_ZN2nn2sf4cmif6client6detail13CmifProxyImplINS_3hid15IHidDebugServerENS0_4hipc6client18Hipc2ProxyKindBaseILNS7_6detail11MessageTypeE4EEENS0_25StatelessAllocationPolicyINS0_22ExpHeapStaticAllocatorILm16384ENS5_6detail14HidDebugServerEEEEES6_E42_nn_sf_sync_DeactivateConsoleSixAxisSensorEv = 0x0000000000218ec4 + __sdk_start;
_ZN2nn2os20InitializeLightEventEPNS0_14LightEventTypeEbNS0_14EventClearModeE = 0x00000000000869b8 + __sdk_start;
_ZNSt3__18numpunctIcEC2Em = 0x00000000003379bc + __sdk_start;
_ZN2nn2sf4cmif6client6detail13CmifProxyImplINS_8settings21ISystemSettingsServerENS0_4hipc6client18Hipc2ProxyKindBaseILNS7_6detail11MessageTypeE4EEENS0_25StatelessAllocationPolicyINS0_22ExpHeapStaticAllocatorILm16384ES6_EEEES6_E26_nn_sf_sync_GetAudioVolumeENS0_3OutINS5_6system11AudioVolumeEvEEi = 0x0000000000164bbc + __sdk_start;
_ZTSN2nn2sf4cmif6client6detail13CmifProxyImplINS_7friends6detail3ipc15IServiceCreatorENS2_15CmifDomainProxyINS0_4hipc6client38Hipc2ClientSessionManagedProxyKindBaseINSB_18Hipc2ProxyKindBaseILNSA_6detail11MessageTypeE4EEEEEEENS0_30MemoryResourceAllocationPolicyES8_EE = 0x0000000000762770 + __sdk_start;
_ZN2nn5audio18GetMemoryPoolStateEPKNS0_14MemoryPoolTypeE = 0x0000000000177094 + __sdk_start;
_ZTv0_n24_NSt3__113basic_ostreamIwNS_11char_traitsIwEEED0Ev = 0x000000000030f758 + __sdk_start;
_ZN2nn4nifm23TemporaryNetworkProfile9GetHandleEv = 0x000000000014a1d8 + __sdk_start;
_ZN2nn2sf4hipc6server24HipcServerSessionManager19CreateServerSessionEONS0_4cmif6server20CmifServerObjectInfoE = 0x00000000000959bc + __sdk_start;
_ZNSt3__18ios_base5clearEj = 0x0000000000306d18 + __sdk_start;
ttf_read_buf = 0x00000000001f8ee0 + __sdk_start;
_ZN2nn2sf4cmif6client34CmifDomainProxyClientCoreProcessorINS0_4hipc6client38Hipc2ClientSessionManagedProxyKindBaseINS5_18Hipc2ProxyKindBaseILNS4_6detail11MessageTypeE4EEEEENS1_6detail14CoreMethodInfoINSt3__15tupleIJNSC_18OutRawArgumentInfoILm88ELm4ELl0EEENSC_17InRawArgumentInfoILm4ELm4ELl0EEEEEELm4ELm88ELb0EEESK_E7ProcessEPNS2_23CmifDomainClientMessageISB_E15ProxyBaseObjectENS2_24OutRawClientArgumentTypeILm88ELm4EEENS2_23InRawClientArgumentTypeILm4ELm4EvEEj = 0x00000000001b23d8 + __sdk_start;
_ZTVNSt3__17codecvtIDic11__mbstate_tEE = 0x0000000000905678 + __sdk_start;
_ZN2nn3mii6detail16Ver3StoreDataRaw9UpdateCrcEv = 0x00000000001ac270 + __sdk_start;
_ZN2nn2sf4hipc6client24Hipc2ClientCoreProcessorILNS1_6detail11MessageTypeE4ENS0_4cmif6detail14CoreMethodInfoINSt3__15tupleIJNS7_17InRawArgumentInfoILm4ELm4ELl0EEENSB_ILm8ELm8ELl8EEEEEELm16ELm0ELb1EEESE_E7ProcessEPNS2_26Hipc2ClientProxyBaseObjectENS6_6client23InRawClientArgumentTypeILm4ELm4EvEENSK_ILm8ELm8EvEEj = 0x0000000000173164 + __sdk_start;
_ZN2nn3ngc12CountNumbersEPKt = 0x0000000000133f38 + __sdk_start;
app_Free = 0x0000000000245900 + __sdk_start;
_ZN2nn5audio6common13NodeIdManager7GetBaseEj = 0x000000000017a7d8 + __sdk_start;
_ZN2nn7account49DebugCreateExternalNetworkServiceAccountRegistrarEPmmPNS0_38ExternalNetworkServiceAccountRegistrarEPvm = 0x00000000000acc4c + __sdk_start;
pthread_cond_signal = 0x000000000038a048 + __sdk_start;
make_graymap = 0x00000000001e8120 + __sdk_start;
_ZN2nn5swkbd6detail18InlineKeyboardImpl25GetImageMemoryRequirementEPmS3_ = 0x00000000001b6d24 + __sdk_start;
nnmem_nlib_thread_priority_max = 0x000000000007afa0 + __sdk_start;
_ZN2nn3ssl6detail14ServiceSession8FinalizeEv = 0x000000000016a7f4 + __sdk_start;
_ZNK2nn3mii6detail11CoreDataRaw8GetMoleYEv = 0x00000000001a4dd8 + __sdk_start;
_ZN2nn5audio21SetBufferMixerEnabledEPNS0_15BufferMixerTypeEb = 0x000000000017479c + __sdk_start;
_ZTSNSt12experimental19bad_optional_accessE = 0x00000000007b5060 + __sdk_start;
_ZN2nn2sf4cmif6client6detail13CmifProxyImplINS_5visrv2sf21ISystemDisplayServiceENS0_4hipc6client18Hipc2ProxyKindBaseILNS8_6detail11MessageTypeE4EEENS0_30MemoryResourceAllocationPolicyES7_E35_nn_sf_sync_SetDisplayContrastRatioEmf = 0x00000000001b9a2c + __sdk_start;
_ZTSN2nn5audio6server15BufferMixerInfoE = 0x000000000077be50 + __sdk_start;
_ZTIN2nn2sf6detail39ObjectImplFactoryWithStatelessAllocatorINS0_4cmif6client16CmifProxyFactoryINS_8settings28IFirmwareDebugSettingsServerENS0_4hipc6client18Hipc2ProxyKindBaseILNS8_6detail11MessageTypeE4EEENS0_25StatelessAllocationPolicyINS0_22ExpHeapStaticAllocatorILm16384ES7_EEEEE13ServiceObjectESH_E6ObjectE = 0x00000000008df850 + __sdk_start;
__memmove_device = 0x0000000000397624 + __sdk_start;
_ZTIN2nn7account6detail14ISessionObjectE = 0x00000000008d3520 + __sdk_start;
_ZN2nn7account22ShowUserNicknameEditorERKNS0_3UidE = 0x00000000000aa6c8 + __sdk_start;
_ZN2nn2sf4hipc6client24Hipc2ClientCoreProcessorILNS1_6detail11MessageTypeE4ENS0_4cmif6detail14CoreMethodInfoINSt3__15tupleIJNS7_18OutRawArgumentInfoILm12ELm4ELl0EEEEEELm0ELm12ELb0EEESD_E7ProcessEPNS2_26Hipc2ClientProxyBaseObjectENS6_6client24OutRawClientArgumentTypeILm12ELm4EEEj = 0x0000000000167258 + __sdk_start;
_ZTSN10__cxxabiv117__array_type_infoE = 0x00000000007b75c0 + __sdk_start;
_ZN2nn6socket8resolver10serializer13DNSSerializer12InternalNtohERKj = 0x00000000000a98a4 + __sdk_start;
_ZN7android18GraphicBufferAllocD2Ev = 0x0000000000294ccc + __sdk_start;
__floatunditf = 0x000000000037d138 + __sdk_start;
_ZN2nn8irsensor6detail13StatusManager21RegisterIrSensorAruidERKNS_6applet20AppletResourceUserIdE = 0x000000000021fce0 + __sdk_start;
_ZN2nn5audio14MemoryPoolType16AddressAlignmentE = 0x00000000007741d0 + __sdk_start;
__addvsi3 = 0x000000000037e448 + __sdk_start;
_ZN2nn3hid6detail16GetIrSensorStateEPNS0_6system13IrSensorStateERj = 0x0000000000206f8c + __sdk_start;
_ZN2nn6socket8resolver10serializer13DNSSerializer12InternalNtohERKt = 0x00000000000a98ac + __sdk_start;
_ZNK2nn7account33ExternalNetworkServiceAccountInfo26GetNetworkServiceAccountIdEPNS0_23NetworkServiceAccountIdE = 0x00000000000b7500 + __sdk_start;
_ZN2nn2sf4cmif6client34CmifDomainProxyClientCoreProcessorINS0_4hipc6client38Hipc2ClientSessionManagedProxyKindBaseINS5_18Hipc2ProxyKindBaseILNS4_6detail11MessageTypeE4EEEEENS1_6detail14CoreMethodInfoINSt3__15tupleIJNSC_18OutRawArgumentInfoILm4ELm4ELl0EEENSC_21OutObjectArgumentInfoILi0ELi0EEENSC_17InRawArgumentInfoILm1ELm1ELl0EEEEEELm1ELm4ELb0EEESM_E21ProcessWithOutObjectsEPNS2_23CmifDomainClientMessageISB_E15ProxyBaseObjectENS2_24OutRawClientArgumentTypeILm4ELm4EEENS2_27OutObjectClientArgumentTypeENS2_23InRawClientArgumentTypeILm1ELm1EvEEjPNS0_13SharedPointerINS0_14IServiceObjectEEE = 0x0000000000126148 + __sdk_start;
_ZN2nn5audio20SetSplitterMixVolumeEPNS0_12SplitterTypeEiPNS0_12FinalMixTypeEfii = 0x00000000001788f4 + __sdk_start;
_ZNSt3__18ios_base4InitD2Ev = 0x0000000000312134 + __sdk_start;
_ZTSN2nn2sf4hipc6server17IHipcObjectDomainE = 0x0000000000743a10 + __sdk_start;
nnmem_nlib_strto_int32 = 0x00000000000773b0 + __sdk_start;
_ZN2nn6crypto6detail11XtsModeImplINS1_19XtsModeAes128HelperEE8FinalizeEPvm = 0x000000000000818c + __sdk_start;
nnsslConnectionSetServerCertBuffer = 0x000000000016a3d4 + __sdk_start;
_ZN2nn2sf4cmif6client6detail13CmifProxyImplINS_3hid16IHidSystemServerENS0_4hipc6client18Hipc2ProxyKindBaseILNS7_6detail11MessageTypeE4EEENS0_25StatelessAllocationPolicyINS0_22ExpHeapStaticAllocatorILm16384ENS5_6detail15HidSystemServerEEEEES6_E38_nn_sf_sync_EnableUsbFullKeyControllerEb = 0x000000000021ca38 + __sdk_start;
_ZN2nn2lm6detail24LogPacketTransmitterBaseC2EPvmPFbPKhmEhhmbb = 0x0000000000129b88 + __sdk_start;
__unordtf2 = 0x000000000037c6c0 + __sdk_start;
_ZTIN2nn7account49ExternalNetworkServiceAccountIntroducingProcedureE = 0x00000000008d4170 + __sdk_start;
_ZN2nn2fs6detail12FileAccessor7GetSizeEPl = 0x000000000004b72c + __sdk_start;
_ZN2nn8irsensor6detail31CreateIrSensorSystemServerProxyEPNS_2sf13SharedPointerINS0_21IIrSensorSystemServerEEE = 0x0000000000222e30 + __sdk_start;
_ZN2nn5audio6server12SplitterInfo6UpdateEPKNS0_12SplitterInfo11InParameterE = 0x0000000000191670 + __sdk_start;
_ZN2nn7account13ProfileEditorC1EOS1_ = 0x00000000000ba148 + __sdk_start;
_ZN2nn8irsensor6detail19CheckInternalStatusERKNS0_14IrCameraHandleE = 0x000000000021e08c + __sdk_start;
_ZTSN2nn2sf6detail38ObjectImplFactoryWithStatefulAllocatorINS0_4cmif6client16CmifProxyFactoryINS_5prepo6detail3ipc13IPrepoServiceENS4_15CmifDomainProxyINS0_4hipc6client38Hipc2ClientSessionManagedProxyKindBaseINSC_18Hipc2ProxyKindBaseILNSB_6detail11MessageTypeE4EEEEEEENS0_30MemoryResourceAllocationPolicyEE13ServiceObjectESK_E6ObjectE = 0x000000000076e7d0 + __sdk_start;
_ZTSN2nn4nifm6detail12IScanRequestE = 0x000000000076c210 + __sdk_start;
_ZN2nn2sf4cmif6client6detail13CmifProxyImplINS_2am7service18ICommonStateGetterENS2_15CmifDomainProxyINS0_4hipc6client38Hipc2ClientSessionManagedProxyKindBaseINSA_18Hipc2ProxyKindBaseILNS9_6detail11MessageTypeE4EEEEEEENS0_30MemoryResourceAllocationPolicyES7_E28_nn_sf_sync_ReleaseSleepLockEv = 0x00000000000bdf0c + __sdk_start;
__subvti3 = 0x0000000000383bfc + __sdk_start;
_ZNSt3__16__sortIRNS_6__lessIiiEEPiEEvT0_S5_T_ = 0x00000000002fd058 + __sdk_start;
_ZN2nn2fs6detail18IsEnabledAccessLogEj = 0x0000000000045180 + __sdk_start;
_ZN2nn7account6detail18OAuthProcedureBaseC1Ev = 0x00000000000aa7e8 + __sdk_start;
_ZTVN10__cxxabiv116__enum_type_infoE = 0x0000000000908780 + __sdk_start;
_ZN2nn3ldn20CreateNetworkPrivateERKNS0_13NetworkConfigERKNS0_14SecurityConfigERKNS0_17SecurityParameterERKNS0_10UserConfigEiPKNS0_12AddressEntryE = 0x0000000000231e68 + __sdk_start;
_ZN7android21SurfaceComposerClient14setContentTypeERKNS_2spINS_7IBinderEEEi = 0x00000000002a79d8 + __sdk_start;
_ZN2nn2fs24HierarchicalRomFileTable17FindNextDirectoryEPcPNS1_12FindPositionEm = 0x00000000000474c8 + __sdk_start;
_ZN2nn2vi6buffer11BufferQueue26GetRequiredMemoryAlignmentERKNS1_10BufferInfoE = 0x00000000001c0470 + __sdk_start;
_ZTVN2nn3ssl6detail18ISslServiceFactoryE = 0x00000000008e00f8 + __sdk_start;
_ZN2nn3mii6detail12StoreDataRaw12SetGlassTypeEi = 0x00000000001a8680 + __sdk_start;
_ZThn32_N2nn2sf4cmif6client6detail13CmifProxyImplINS_5prepo6detail3ipc13IPrepoServiceENS2_15CmifDomainProxyINS0_4hipc6client38Hipc2ClientSessionManagedProxyKindBaseINSB_18Hipc2ProxyKindBaseILNSA_6detail11MessageTypeE4EEEEEEENS0_30MemoryResourceAllocationPolicyES8_E17GetCmifBaseObjectEv = 0x0000000000159760 + __sdk_start;
_ZTINSt3__115time_put_bynameIwNS_19ostreambuf_iteratorIwNS_11char_traitsIwEEEEEE = 0x0000000000906530 + __sdk_start;
_ZN2nn3hid20GetTouchScreenStatesILm1EEEiPNS0_16TouchScreenStateIXT_EEEi = 0x0000000000215a70 + __sdk_start;
_ZNSt3__119__shared_weak_count10__add_weakEv = 0x000000000033d700 + __sdk_start;
_ZN2nn2sf4cmif6client6detail13CmifProxyImplINS_8settings21ISystemSettingsServerENS0_4hipc6client18Hipc2ProxyKindBaseILNS7_6detail11MessageTypeE4EEENS0_25StatelessAllocationPolicyINS0_22ExpHeapStaticAllocatorILm16384ES6_EEEES6_E29_nn_sf_sync_SetLockScreenFlagEb = 0x0000000000164a3c + __sdk_start;
_ZN2nn3mii11StartAppletEPNS0_12AppletOutputERKNS0_11AppletInputE = 0x00000000001b32fc + __sdk_start;
_ZNK2nn5codec30HardwareOpusMultiStreamDecoder19GetTotalStreamCountEv = 0x000000000010c924 + __sdk_start;
_ZN2nn2sf4cmif6client6detail13CmifProxyImplINS_8irsensor15IIrSensorServerENS0_4hipc6client18Hipc2ProxyKindBaseILNS7_6detail11MessageTypeE4EEENS0_25StatelessAllocationPolicyINS0_22ExpHeapStaticAllocatorILm16384ENS5_6detail14IrSensorServerEEEEES6_E34_nn_sf_sync_RunTeraPluginProcessorENS_6applet20AppletResourceUserIdENS5_14IrCameraHandleENS5_31PackedTeraPluginProcessorConfigE = 0x00000000002224d8 + __sdk_start;
_ZN2nn2fs6detail18IsEnabledAccessLogEv = 0x000000000004523c + __sdk_start;
_ZTIN2nn5codec12IOpusDecoderE = 0x00000000008daca8 + __sdk_start;
_ZNKSt3__112ctype_bynameIwE10do_tolowerEw = 0x0000000000333b2c + __sdk_start;
_ZN2nn3mii6detail15DefaultMiiTableE = 0x00000000007817f4 + __sdk_start;
_ZN2nn3hid15KeyCodeComposer14RemoveKeyCodesEPti = 0x0000000000212d0c + __sdk_start;
_ZN2nn4util8Color4u813ConstantBlackE = 0x0000000000739e10 + __sdk_start;
_ZN2nn8irsensor6detail25CreateIrSensorServerProxyEPNS_2sf13SharedPointerINS0_15IIrSensorServerEEE = 0x00000000002221b0 + __sdk_start;
_ZN2nn8settings6detail20GetXpadGenericPadMapEPNS0_22BasicXpadGenericPadMapEi = 0x0000000000167bfc + __sdk_start;
_ZTVNSt3__18numpunctIcEE = 0x00000000009052d8 + __sdk_start;
_ZTSNSt3__19__num_putIcEE = 0x00000000007b4620 + __sdk_start;
_ZN2nn3hid6system19GetAnalogStickStateEPNS0_16AnalogStickStateENS1_11UniquePadIdENS1_19AnalogStickPositionE = 0x0000000000210a44 + __sdk_start;
_ZN2nn3mii6detail24LoadLittleEndianNicknameEPNS0_8NicknameEPKti = 0x00000000001a6dec + __sdk_start;
_ZN2nn2sf4cmif6client6detail13CmifProxyImplINS_7account19IAccountServiceBaseENS2_15CmifDomainProxyINS0_4hipc6client38Hipc2ClientSessionManagedProxyKindBaseINS9_18Hipc2ProxyKindBaseILNS8_6detail11MessageTypeE4EEEEEEENS0_25StatelessAllocationPolicyINS0_22ExpHeapStaticAllocatorILm2048ENS5_6detail12ObjectHolder24ObjectHolderAllocatorTagEEEEENS5_31IAccountServiceForAdministratorEE17GetCmifBaseObjectEv = 0x00000000000b283c + __sdk_start;
_ZN2nn2sf4hipc31InitializeHipcServiceResolutionEv = 0x000000000009926c + __sdk_start;
_ZNK2nn3mii6detail11CoreDataRaw9GetGenderEv = 0x00000000001a43f4 + __sdk_start;
_ZNK2nn7account25CachedNintendoAccountInfo11GetBirthdayEPm = 0x00000000000b70e0 + __sdk_start;
_ZNSt3__115basic_streambufIwNS_11char_traitsIwEEEC1ERKS3_ = 0x0000000000307fd4 + __sdk_start;
_ZNSt3__18ios_base7showposE = 0x00000000007b2ab8 + __sdk_start;
_ZN2nn2sf4cmif6client6detail13CmifProxyImplINS_2am7service25IProcessWindingControllerENS2_15CmifDomainProxyINS0_4hipc6client38Hipc2ClientSessionManagedProxyKindBaseINSA_18Hipc2ProxyKindBaseILNS9_6detail11MessageTypeE4EEEEEEENS0_30MemoryResourceAllocationPolicyES7_E46_nn_sf_sync_ReserveToStartAndWaitAndUnwindThisENS0_13SharedPointerINS6_22ILibraryAppletAccessorEEE = 0x00000000000c10d4 + __sdk_start;
_ZNK2nn5audio6server10MixContext7GetInfoEi = 0x0000000000190168 + __sdk_start;
_ZN2nn6crypto6detail19CbcModeAes128Helper13DecryptBlocksEPvS3_PKviPKNS0_12AesDecryptorILm16EEE = 0x0000000000005a3c + __sdk_start;
_ZN2nn2sf4cmif6client6detail13CmifProxyImplINS_7account31IAccountServiceForSystemServiceENS2_15CmifDomainProxyINS0_4hipc6client38Hipc2ClientSessionManagedProxyKindBaseINS9_18Hipc2ProxyKindBaseILNS8_6detail11MessageTypeE4EEEEEEENS0_25StatelessAllocationPolicyINS0_22ExpHeapStaticAllocatorILm2048ENS5_6detail12ObjectHolder24ObjectHolderAllocatorTagEEEEES6_E49_nn_sf_sync_GetBaasAccountManagerForSystemServiceENS0_3OutINS0_13SharedPointerINS5_4baas24IManagerForSystemServiceEEEvEERKNS5_3UidE = 0x00000000000b03cc + __sdk_start;
_ZTSN2nn5codec12IOpusEncoderE = 0x0000000000761280 + __sdk_start;
FSS_font_metrics = 0x00000000001c9cd8 + __sdk_start;
nvgr_get_extformat = 0x0000000000266fd8 + __sdk_start;
_ZNK2nn3mii6detail16Ver3StoreDataRaw9GetBeardYEv = 0x00000000001abcc0 + __sdk_start;
_ZN2nn5image6detail4jpeg23jinit_c_prep_controllerEPNS2_20jpeg_compress_structEb = 0x0000000000017564 + __sdk_start;
_ZNK2nn2sf4hipc6detail25HipcMessageBufferAccessor10GetReceiveEi = 0x00000000000949f0 + __sdk_start;
_ZN2nn2fs6detail29DirectoryServiceObjectAdapter6DoReadEPlPNS0_14DirectoryEntryEl = 0x000000000005c2d4 + __sdk_start;
_ZN2nn7friends12SetAllocatorEPFPvmEPFvS1_mE = 0x00000000001118f4 + __sdk_start;
_ZN2nn6crypto6detail11XtsModeImplINS1_19XtsModeAes128HelperEE6UpdateEPvmPKvm = 0x0000000000007ca8 + __sdk_start;
_ZN2nn6crypto6detail7AesImplILm16EE10InitializeEPKvmb = 0x0000000000005094 + __sdk_start;
_ZTSNSt3__118__time_get_storageIcEE = 0x00000000007b4840 + __sdk_start;
_ZN2nn3web15ShowNewsPageArg16SetLeftStickModeENS0_16WebLeftStickModeE = 0x0000000000238e94 + __sdk_start;
_ZNK2nn3mii6detail16Ver3StoreDataRaw12GetReserved2Ev = 0x00000000001b0884 + __sdk_start;
nnmem_nlib_mutex_trylock = 0x000000000007a700 + __sdk_start;
_ZN2nn3aoc10InitializeEv = 0x0000000000172108 + __sdk_start;
_ZN2nn3ldn8MakeSsidEPKc = 0x0000000000232858 + __sdk_start;
_ZN7android7BBinder13unlinkToDeathERKNS_2wpINS_7IBinder14DeathRecipientEEEPvjPS4_ = 0x0000000000276040 + __sdk_start;
_ZN2nn3mii6detail16Ver3StoreDataRaw9SetHeightEi = 0x00000000001aeb2c + __sdk_start;
unquant_coarse_energy = 0x00000000000e2914 + __sdk_start;
_ZN2nn3hid6detail30MakeConsoleSixAxisSensorHandleEhi = 0x00000000001fe348 + __sdk_start;
nnosStartOneShotTimerEvent = 0x000000000008a0ac + __sdk_start;
__crypt_md5 = 0x000000000039bb48 + __sdk_start;
_ZN2nn3nfc6client22RequiredMcuVersionDataE = 0x000000000076586c + __sdk_start;
__addvdi3 = 0x000000000037e3f0 + __sdk_start;
__floatuntidf = 0x0000000000381b08 + __sdk_start;
_ZN2nn2sf4cmif6client34CmifDomainProxyClientCoreProcessorINS0_4hipc6client38Hipc2ClientSessionManagedProxyKindBaseINS5_18Hipc2ProxyKindBaseILNS4_6detail11MessageTypeE4EEEEENS1_6detail14CoreMethodInfoINSt3__15tupleIJNSC_18OutRawArgumentInfoILm88ELm4ELl0EEENSC_17InRawArgumentInfoILm88ELm4ELl0EEENSI_ILm4ELm4ELl88EEEEEELm92ELm88ELb0EEESL_E7ProcessEPNS2_23CmifDomainClientMessageISB_E15ProxyBaseObjectENS2_24OutRawClientArgumentTypeILm88ELm4EEENS2_23InRawClientArgumentTypeILm88ELm4EvEENSU_ILm4ELm4EvEEj = 0x00000000001b20e4 + __sdk_start;
asinf = 0x00000000003a3d44 + __sdk_start;
asinh = 0x00000000003a3ec4 + __sdk_start;
_ZN2nn5audio24GetI3dl2ReverbReverbGainEPKNS0_15I3dl2ReverbTypeE = 0x0000000000176018 + __sdk_start;
_ZN2nn3svc7aarch644lp6417ReadWriteRegisterEPjmjj = 0x00000000000a9ebc + __sdk_start;
_ZN2nn2sf4cmif6client6detail13CmifProxyImplINS_2am7service22ILibraryAppletAccessorENS2_15CmifDomainProxyINS0_4hipc6client38Hipc2ClientSessionManagedProxyKindBaseINSA_18Hipc2ProxyKindBaseILNS9_6detail11MessageTypeE4EEEEEEENS0_30MemoryResourceAllocationPolicyES7_E42_nn_sf_sync_GetIndirectLayerConsumerHandleENS0_3OutImvEENS_6applet20AppletResourceUserIdE = 0x00000000000c1744 + __sdk_start;
_ZN2nn4nifm24EnumerateNetworkProfilesEPNS0_23NetworkProfileBasicInfoEPiih = 0x000000000014966c + __sdk_start;
fsg_RunFontProgram = 0x00000000001e3c0c + __sdk_start;
_ZN2nn2sf4cmif6client6detail13CmifProxyImplINS_2am7service26ILibraryAppletSelfAccessorENS2_15CmifDomainProxyINS0_4hipc6client38Hipc2ClientSessionManagedProxyKindBaseINSA_18Hipc2ProxyKindBaseILNS9_6detail11MessageTypeE4EEEEEEENS0_30MemoryResourceAllocationPolicyES7_E12GetProxyInfoEv = 0x00000000000c3c9c + __sdk_start;
asinl = 0x00000000003a40e0 + __sdk_start;
pow10 = 0x00000000003a6d20 + __sdk_start;
multimedia_Realloc = 0x0000000000245a14 + __sdk_start;
_ZN2nn5audio6server30CommandProcessingTimeEstimator8EstimateERKNS0_13ReverbCommandE = 0x000000000018d198 + __sdk_start;
nvdcEventModeChange = 0x000000000023aa74 + __sdk_start;
_ZN2nn3mem17StandardAllocatorC2EPvmb = 0x0000000000082f2c + __sdk_start;
_ZN2nn4htcs6detail4recvENS_2sf13SharedPointerINS_3tma7ISocketEEEPvmiRi = 0x0000000000127094 + __sdk_start;
_ZN2nn2fs15UnmountHostRootEv = 0x000000000005f374 + __sdk_start;
_ZN2nn3hid6detail24GetNpadCommunicationModeEPNS0_21NpadCommunicationModeE = 0x0000000000202e98 + __sdk_start;
_ZN2nn2sf4cmif6client6detail13CmifProxyImplINS_8irsensor15IIrSensorServerENS0_4hipc6client18Hipc2ProxyKindBaseILNS7_6detail11MessageTypeE4EEENS0_25StatelessAllocationPolicyINS0_22ExpHeapStaticAllocatorILm16384ENS5_6detail14IrSensorServerEEEEES6_E30_nn_sf_sync_StopImageProcessorENS_6applet20AppletResourceUserIdENS5_14IrCameraHandleE = 0x0000000000222418 + __sdk_start;
towctrans = 0x00000000003a0ad0 + __sdk_start;
_ZN2nn2os6detail26ThreadManagerImplByHorizon12CreateThreadEPNS0_10ThreadTypeEPFvS4_Ei = 0x000000000008e754 + __sdk_start;
_ZTSN2nn2sf4cmif6client6detail9CmifProxyINS_7account4baas22IManagerForApplicationENS2_15CmifDomainProxyINS0_4hipc6client38Hipc2ClientSessionManagedProxyKindBaseINSA_18Hipc2ProxyKindBaseILNS9_6detail11MessageTypeE4EEEEEEENS0_25StatelessAllocationPolicyINS0_22ExpHeapStaticAllocatorILm2048ENS5_6detail12ObjectHolder24ObjectHolderAllocatorTagEEEEEvEE = 0x0000000000747cd0 + __sdk_start;
nnutilZlib_inflate_copyright = 0x0000000000737c1a + __sdk_start;
_ZN2nn8settings6detail23GetNotificationSettingsEPNS0_6system20NotificationSettingsE = 0x000000000015fdc4 + __sdk_start;
_ZN2nn3hid20GetTouchScreenStatesILm11EEEiPNS0_16TouchScreenStateIXT_EEEi = 0x0000000000215e30 + __sdk_start;
_ZTv0_n24_NSt3__113basic_istreamIwNS_11char_traitsIwEEED0Ev = 0x000000000030ae68 + __sdk_start;
_ZN2nn3hid6detail23MergeSingleJoyAsDualJoyERKjS3_ = 0x00000000002036e0 + __sdk_start;
_ZTSN2nn2sf22UnmanagedServiceObjectINS0_4hipc6detail12IHipcManagerENS2_6server34HipcServerSessionManagerWithDomain15HipcManagerImplEEE = 0x0000000000743b20 + __sdk_start;
_ZN2nn3hid15VibrationPlayer4StopEv = 0x0000000000217d3c + __sdk_start;
_ZN2nn2vi6buffer11BufferQueue13SetScanBufferEiPvm = 0x00000000001c05b8 + __sdk_start;
_ZN2nn5swkbd6detail18InlineKeyboardImpl16SetKeytopBgAlphaEf = 0x00000000001b6084 + __sdk_start;
_ZN2nn2sf4cmif6client34CmifDomainProxyClientCoreProcessorINS0_4hipc6client38Hipc2ClientSessionManagedProxyKindBaseINS5_18Hipc2ProxyKindBaseILNS4_6detail11MessageTypeE4EEEEENS1_6detail14CoreMethodInfoINSt3__15tupleIJNSC_18OutRawArgumentInfoILm4ELm4ELl0EEENSG_ILm4ELm4ELl4EEENSC_17InRawArgumentInfoILm4ELm4ELl0EEENSJ_ILm8ELm8ELl8EEEEEELm16ELm8ELb0EEESM_E7ProcessEPNS2_23CmifDomainClientMessageISB_E15ProxyBaseObjectENS2_24OutRawClientArgumentTypeILm4ELm4EEESU_NS2_23InRawClientArgumentTypeILm4ELm4EvEENSV_ILm8ELm8EvEEj = 0x00000000000a4594 + __sdk_start;
_ZN2nn3nsd6detail3ipc20GetNasServiceSettingEPNS0_17NasServiceSettingERKNS0_14NasServiceNameE = 0x000000000014c120 + __sdk_start;
_ZN2nn3nfp8BreakTagERKNS0_12DeviceHandleENS0_9BreakTypeE = 0x000000000012df3c + __sdk_start;
nvdcEventFds = 0x000000000023a998 + __sdk_start;
_ZN2nn2sf4cmif6client34CmifDomainProxyClientCoreProcessorINS0_4hipc6client38Hipc2ClientSessionManagedProxyKindBaseINS5_18Hipc2ProxyKindBaseILNS4_6detail11MessageTypeE4EEEEENS1_6detail14CoreMethodInfoINSt3__15tupleIJNSC_18OutRawArgumentInfoILm8ELm8ELl0EEENSC_17InRawArgumentInfoILm8ELm8ELl8EEENSC_18BufferArgumentInfoILi0ELi70ELm0EEENSI_ILm8ELm8ELl16EEENSI_ILm4ELm4ELl0EEEEEELm24ELm8ELb0EEESO_E7ProcessEPNS2_23CmifDomainClientMessageISB_E15ProxyBaseObjectENS2_24OutRawClientArgumentTypeILm8ELm8EEENS2_23InRawClientArgumentTypeILm8ELm8EvEENS2_24BufferClientArgumentTypeESY_NSX_ILm4ELm4EvEEj = 0x0000000000055038 + __sdk_start;
_ZNSt3__115basic_streambufIwNS_11char_traitsIwEEE8pubimbueERKNS_6localeE = 0x0000000000307724 + __sdk_start;
_ZN7android7RefBaseC1Ev = 0x00000000002ae70c + __sdk_start;
_ZZN2nn2sf40SimpleAllInOneHipcSubDomainClientManagerILm41EE27InitializeShimLibraryHolderINS_3fgm2sf8ISessionEEENS_6ResultEPNS0_23ShimLibraryObjectHolderIT_EEPKcPNS_14MemoryResourceEENUlPvE_8__invokeESG_ = 0x00000000002f307c + __sdk_start;
_ZN2nn2sf4cmif6client34CmifDomainProxyClientCoreProcessorINS0_4hipc6client38Hipc2ClientSessionManagedProxyKindBaseINS5_18Hipc2ProxyKindBaseILNS4_6detail11MessageTypeE4EEEEENS1_6detail14CoreMethodInfoINSt3__15tupleIJNSC_18OutRawArgumentInfoILm36ELm1ELl0EEEEEELm0ELm36ELb0EEESI_E7ProcessEPNS2_23CmifDomainClientMessageISB_E15ProxyBaseObjectENS2_24OutRawClientArgumentTypeILm36ELm1EEEj = 0x0000000000170988 + __sdk_start;
opus_multistream_surround_encoder_create = 0x000000000010a9b4 + __sdk_start;
_ZTIN2nn3ngc15ProfanityFilterE = 0x00000000008ddb50 + __sdk_start;
srand48 = 0x00000000003b0fa4 + __sdk_start;
__isdigit_l = 0x000000000039ff10 + __sdk_start;
_ZN2nn5codec19HardwareOpusDecoderC1Ei = 0x000000000010c1dc + __sdk_start;
NvUHashClear = 0x000000000023ed20 + __sdk_start;
nnmem_nlib_strto_int64 = 0x0000000000077488 + __sdk_start;
fegetenv = 0x00000000003866bc + __sdk_start;
vprintf = 0x00000000003bcce0 + __sdk_start;
_ZN2nn3apm19InitializeForSystemEv = 0x00000000000c7508 + __sdk_start;
_ZN2nn2os6detail36InternalCriticalSectionImplByHorizon5LeaveEv = 0x000000000008fd50 + __sdk_start;
_ZN2nn3mii6detail16Ver3StoreDataRaw12SetBeardTypeEi = 0x00000000001aed3c + __sdk_start;
_ZTSN2nn2sf4cmif6client6detail13CmifProxyImplINS_7account4baas12IManagerBaseENS2_15CmifDomainProxyINS0_4hipc6client38Hipc2ClientSessionManagedProxyKindBaseINSA_18Hipc2ProxyKindBaseILNS9_6detail11MessageTypeE4EEEEEEENS0_25StatelessAllocationPolicyINS0_22ExpHeapStaticAllocatorILm2048ENS5_6detail12ObjectHolder24ObjectHolderAllocatorTagEEEEENS6_14IAdministratorEEE = 0x000000000074ca60 + __sdk_start;
_ZTSPa = 0x00000000007b74d8 + __sdk_start;
_ZN2nn3nfp6client20DestroyUserInterfaceEv = 0x00000000001333c8 + __sdk_start;
_ZTSPb = 0x00000000007b74a8 + __sdk_start;
_ZN2nn2fs6detail12FileAccessorC1EONSt3__110unique_ptrINS0_3fsa5IFileENS3_14default_deleteIS6_EEEERNS1_18FileSystemAccessorEi = 0x000000000004b44c + __sdk_start;
_ZN2nn6socket8resolver10serializer13DNSSerializer6SizeOfIcEEmPKT_ = 0x00000000000a86f4 + __sdk_start;
_ZTIN2nn3hid6detail8RingLifoINS0_16NpadJoyDualStateELi16ENS1_13AtomicStorageIS3_EEEE = 0x00000000008e6188 + __sdk_start;
_ZTSPc = 0x00000000007b74c0 + __sdk_start;
_ZTSN2nn2sf4cmif6client6detail9CmifProxyINS_8irsensor15IIrSensorServerENS0_4hipc6client18Hipc2ProxyKindBaseILNS7_6detail11MessageTypeE4EEENS0_25StatelessAllocationPolicyINS0_22ExpHeapStaticAllocatorILm16384ENS5_6detail14IrSensorServerEEEEEvEE = 0x0000000000798920 + __sdk_start;
_ZN2nn3nfp14StartDetectionERKNS0_12DeviceHandleE = 0x000000000012f484 + __sdk_start;
_ZTSPd = 0x00000000007b7578 + __sdk_start;
setkey = 0x000000000039fc28 + __sdk_start;
_ZN2nn2sf4cmif6client34CmifDomainProxyClientCoreProcessorINS0_4hipc6client38Hipc2ClientSessionManagedProxyKindBaseINS5_18Hipc2ProxyKindBaseILNS4_6detail11MessageTypeE4EEEEENS1_6detail14CoreMethodInfoINSt3__15tupleIJNSC_17InRawArgumentInfoILm8ELm8ELl0EEENSC_18BufferArgumentInfoILi0ELi33ELm0EEEEEELm8ELm0ELb0EEESK_E7ProcessEPNS2_23CmifDomainClientMessageISB_E15ProxyBaseObjectENS2_23InRawClientArgumentTypeILm8ELm8EvEENS2_24BufferClientArgumentTypeEj = 0x00000000000c1b8c + __sdk_start;
_ZN2nn3hid6detail23GetSixAxisSensorHandlesEPNS0_19SixAxisSensorHandleES3_NS0_9JoyXpadIdE = 0x00000000002090b4 + __sdk_start;
_ZTSPe = 0x00000000007b7584 + __sdk_start;
_ZTSPf = 0x00000000007b756c + __sdk_start;
_ZTSPg = 0x00000000007b7590 + __sdk_start;
_ZN7android7RefBase12weakref_type7decWeakEPKv = 0x00000000002ae374 + __sdk_start;
_ZN2nn4nifm17NetworkConnection26HandleNetworkRequestResultEv = 0x000000000014a128 + __sdk_start;
_ZTSPh = 0x00000000007b74cc + __sdk_start;
_ZTSN2nn7account6detail24SimpleOAuthProcedureBaseE = 0x0000000000746b30 + __sdk_start;
_ZTSPi = 0x00000000007b74fc + __sdk_start;
_ZTSPj = 0x00000000007b7508 + __sdk_start;
_ZN2nn3mii6detail16Ver3StoreDataRaw11SetAuthorIdERKNS1_12Ver3AuthorIdE = 0x00000000001aef88 + __sdk_start;
_ZTSPl = 0x00000000007b7514 + __sdk_start;
_ZN2nn2ro10LoadModuleEPNS0_6ModuleEPKvPvmi = 0x00000000000907e4 + __sdk_start;
_ZTSPm = 0x00000000007b7520 + __sdk_start;
_ZTSPn = 0x00000000007b7544 + __sdk_start;
_ZTSPo = 0x00000000007b7550 + __sdk_start;
_ZN2nn6socket9InetHtonsEt = 0x000000000009a630 + __sdk_start;
_ZN2nn4util8Color4u813ConstantGreenE = 0x0000000000739e20 + __sdk_start;
nvdcQueryDisplays = 0x000000000023a4a8 + __sdk_start;
NvOsGetConfigU32 = 0x000000000023e6d4 + __sdk_start;
_ZN2nn3hid3tmp40GetConsoleSixAxisSensorCalibrationValuesEPNS1_37ConsoleSixAxisSensorCalibrationValuesERKNS0_26ConsoleSixAxisSensorHandleE = 0x0000000000211050 + __sdk_start;
_ZNSt14overflow_errorD1Ev = 0x0000000000377694 + __sdk_start;
_ZNSt3__127__num_get_unsigned_integralIyEET_PKcS3_Rji = 0x000000000033d230 + __sdk_start;
nnmem_nlib_error_string = 0x000000000006ba2c + __sdk_start;
__floatundixf = 0x0000000000381a24 + __sdk_start;
_ZTSPs = 0x00000000007b74e4 + __sdk_start;
_ZN2nn2sf4impl6detail22ServiceObjectImplBase211ReleaseImplEv = 0x0000000000098cc4 + __sdk_start;
nnosClearInterruptEvent = 0x000000000008a198 + __sdk_start;
_ZTSPt = 0x00000000007b74f0 + __sdk_start;
_ZN2nn3svc7aarch644lp6414GetProcessInfoEPlNS0_6HandleENS0_15ProcessInfoTypeE = 0x00000000000aa1dc + __sdk_start;
__cxa_get_globals_fast = 0x000000000037516c + __sdk_start;
_ZN2nn6socket6detail6CancelEi = 0x00000000000a9bbc + __sdk_start;
_ZN2nn6socket6detail18ShutdownAllSocketsEb = 0x000000000009cc80 + __sdk_start;
_ZTSPv = 0x00000000007b748c + __sdk_start;
_ZTSPw = 0x00000000007b74b4 + __sdk_start;
nnmem_nlib_compiler_version = 0x000000000006aaa8 + __sdk_start;
__strdup = 0x00000000003bf9e8 + __sdk_start;
_ZTSPx = 0x00000000007b752c + __sdk_start;
_ZN2nn2sf4cmif6client6detail13CmifProxyImplINS_4pctl6detail3ipc23IParentalControlServiceENS2_15CmifDomainProxyINS0_4hipc6client38Hipc2ClientSessionManagedProxyKindBaseINSB_18Hipc2ProxyKindBaseILNSA_6detail11MessageTypeE4EEEEEEENS0_30MemoryResourceAllocationPolicyES8_E36_nn_sf_sync_ConfirmSnsPostPermissionEv = 0x0000000000152bec + __sdk_start;
nnmem_nlib_rwlock_rdunlock = 0x000000000006b2c4 + __sdk_start;
_ZTSPy = 0x00000000007b7538 + __sdk_start;
_ZN2nn3ngc7wcsncmpEPKDsS2_m = 0x0000000000137b04 + __sdk_start;
_ZNSt3__110istrstreamD2Ev = 0x0000000000348014 + __sdk_start;
_ZN2nn2sf4cmif6client6detail13CmifProxyImplINS_2am7service18IDisplayControllerENS2_15CmifDomainProxyINS0_4hipc6client38Hipc2ClientSessionManagedProxyKindBaseINSA_18Hipc2ProxyKindBaseILNS9_6detail11MessageTypeE4EEEEEEENS0_30MemoryResourceAllocationPolicyES7_E30_nn_sf_sync_ClearCaptureBufferEibj = 0x00000000000bfc38 + __sdk_start;
_ZTCN7android17BnSurfaceComposerE0_NS_10IInterfaceE = 0x00000000008fcd30 + __sdk_start;
_ZN2nn5image6detail4jpeg14jpeg_idct_14x7EPNS2_22jpeg_decompress_structEPNS2_19jpeg_component_infoEPsPPhi = 0x000000000002777c + __sdk_start;
_ZN2nn4util16BinaryFileHeader14SetAddressSizeEv = 0x000000000003a2fc + __sdk_start;
_ZN2nn8settings6system23GetDataDeletionSettingsEPNS1_20DataDeletionSettingsE = 0x000000000015afa0 + __sdk_start;
atexit = 0x0000000000386ecc + __sdk_start;
_ZN2nn5album22SaveAndShareScreenshotEPNS0_7ShareIdEPKvmNS0_9ImageSizeENS0_17AlbumReportOptionERKNS_7account3UidE = 0x000000000022f9a8 + __sdk_start;
_ZNK2nn3mii6detail12StoreDataRaw8GetNoseYEv = 0x00000000001a8110 + __sdk_start;
_ZTSN2nn3nfp6detail12IUserManagerE = 0x0000000000769d50 + __sdk_start;
_ZNK2nn6result6detail19ResultAutoConvertercvT_INS_5codec10OpusResultEEEv = 0x000000000010c420 + __sdk_start;
_ZN2nn2sf4cmif6client34CmifDomainProxyClientCoreProcessorINS0_4hipc6client38Hipc2ClientSessionManagedProxyKindBaseINS5_18Hipc2ProxyKindBaseILNS4_6detail11MessageTypeE4EEEEENS1_6detail14CoreMethodInfoINSt3__15tupleIJNSC_17InRawArgumentInfoILm8ELm8ELl0EEENSC_18BufferArgumentInfoILi0ELi34ELm0EEEEEELm8ELm0ELb0EEESK_E7ProcessEPNS2_23CmifDomainClientMessageISB_E15ProxyBaseObjectENS2_23InRawClientArgumentTypeILm8ELm8EvEENS2_24BufferClientArgumentTypeEj = 0x00000000000c1d58 + __sdk_start;
_ZTIN2nn2sf6detail38ObjectImplFactoryWithStatefulAllocatorINS0_4cmif6client16CmifProxyFactoryINS_6capsrv2sf29IScreenShotApplicationServiceENS0_4hipc6client18Hipc2ProxyKindBaseILNS9_6detail11MessageTypeE4EEENS0_30MemoryResourceAllocationPolicyEE13ServiceObjectESF_E6ObjectE = 0x00000000008e88d0 + __sdk_start;
_ZN2nn4lmem6detail12InitHeapHeadEPNS1_8HeapHeadEjPvS4_i = 0x0000000000069514 + __sdk_start;
_ZNKSt3__120__codecvt_utf8_utf16IwE13do_max_lengthEv = 0x00000000003376cc + __sdk_start;
_ZN2nn2sf4hipc6client24Hipc2ClientCoreProcessorILNS1_6detail11MessageTypeE4ENS0_4cmif6detail14CoreMethodInfoINSt3__15tupleIJNS7_17InRawArgumentInfoILm8ELm8ELl8EEENSB_ILm4ELm4ELl0EEENSB_ILm4ELm4ELl4EEEEEELm16ELm0ELb0EEESF_E7ProcessEPNS2_26Hipc2ClientProxyBaseObjectENS6_6client23InRawClientArgumentTypeILm8ELm8EvEENSL_ILm4ELm4EvEESN_j = 0x00000000001b9d0c + __sdk_start;
nnmem_nlib_mutex_recursive_init = 0x000000000007a5f4 + __sdk_start;
rmdir = 0x000000000038acc8 + __sdk_start;
_ZN2nn4pctl29LeaveRestrictedSystemSettingsEv = 0x00000000001502d4 + __sdk_start;
_ZTVNSt3__115time_put_bynameIcNS_19ostreambuf_iteratorIcNS_11char_traitsIcEEEEEE = 0x0000000000904938 + __sdk_start;
_ZN2nn5audio6server9VoiceInfo36UpdateParametersForCommandGenerationEPPNS0_10VoiceStateE = 0x0000000000192384 + __sdk_start;
NvRmGpuRegOpsSessionGetTimeoutMode = 0x0000000000267f4c + __sdk_start;
readdir64_r = 0x0000000000386d14 + __sdk_start;
_ZN2nn3mii6detail23RandomMiiHairColorTableE = 0x0000000000789750 + __sdk_start;
_ZTIN2nn2sf4cmif6client16CmifProxyFactoryINS_7account3nas40IOAuthProcedureForNintendoAccountLinkageENS2_15CmifDomainProxyINS0_4hipc6client38Hipc2ClientSessionManagedProxyKindBaseINS9_18Hipc2ProxyKindBaseILNS8_6detail11MessageTypeE4EEEEEEENS0_25StatelessAllocationPolicyINS0_22ExpHeapStaticAllocatorILm2048ENS4_6detail12ObjectHolder24ObjectHolderAllocatorTagEEEEEE13ServiceObjectE = 0x00000000008d3190 + __sdk_start;
_ZN2nn3ldn14MakeSubnetMaskEhhhh = 0x0000000000232790 + __sdk_start;
_ZN2nn3hid6detail18SharedMemoryHolderC2Ev = 0x0000000000208ed0 + __sdk_start;
_ZN2nn5swkbd6detail18InlineKeyboardImpl18CalcChangedString_ENS_6applet13StorageHandleEm = 0x00000000001b67d4 + __sdk_start;
_ZN7android7String85setToEPKDsm = 0x00000000002b032c + __sdk_start;
funlockfile = 0x0000000000388774 + __sdk_start;
_ZTIN2nn7account31IAccountServiceForAdministratorE = 0x00000000008d2970 + __sdk_start;
_ZTSN2nn2sf4cmif6client16CmifProxyFactoryINS_3fgm2sf8ISessionENS2_15CmifDomainProxyINS0_4hipc6client38Hipc2ClientSessionManagedProxyKindBaseINS9_18Hipc2ProxyKindBaseILNS8_6detail11MessageTypeE4EEEEEEENS0_30MemoryResourceAllocationPolicyEE13ServiceObjectE = 0x00000000007af2c0 + __sdk_start;
_fini = 0x0000000000000160 + __sdk_start;
_ZN2nn5audio6server14EffectInfoBase19ParameterBufferSizeE = 0x000000000077be08 + __sdk_start;
silk_Transition_LP_A_Q28 = 0x000000000075f760 + __sdk_start;
_ZN2nn8irsensor6detail16FinalizeIrCameraERKNS0_14IrCameraHandleE = 0x000000000021de6c + __sdk_start;
_ZNKSt3__18time_getIcNS_19istreambuf_iteratorIcNS_11char_traitsIcEEEEE14do_get_weekdayES4_S4_RNS_8ios_baseERjP2tm = 0x000000000031ebc4 + __sdk_start;
_ZN2nn5audio6server6detail24GetActiveAudioDeviceNameEPNS0_15AudioDeviceNameE = 0x0000000000193db0 + __sdk_start;
_ZN2nn2sf4cmif6client6detail13CmifProxyImplINS_4nifm6detail12IScanRequestENS2_15CmifDomainProxyINS0_4hipc6client38Hipc2ClientSessionManagedProxyKindBaseINSA_18Hipc2ProxyKindBaseILNS9_6detail11MessageTypeE4EEEEEEENS0_25StatelessAllocationPolicyINS0_22ExpHeapStaticAllocatorILm16384ENS6_21ServiceProviderClient30CreateNifmUserServiceObjectTagEEEEES7_E24_nn_sf_sync_IsProcessingENS0_3OutIbvEE = 0x00000000001459f0 + __sdk_start;
_ZNK2nn3mii6detail16Ver3StoreDataRaw12GetRoomIndexEv = 0x00000000001aa58c + __sdk_start;
_ZN2nn4nifm6detail37ConvertNetworkProfileDataToNifmFromSfEPNS0_18NetworkProfileDataERKNS1_2sf18NetworkProfileDataE = 0x000000000014aa58 + __sdk_start;
_ZN7android4Rect8offsetToEii = 0x00000000002ab7d8 + __sdk_start;
iswalpha_l = 0x00000000003a00e0 + __sdk_start;
_ZN2nn2sf4hipc6client24Hipc2ClientCoreProcessorILNS1_6detail11MessageTypeE4ENS0_4cmif6detail14CoreMethodInfoINSt3__15tupleIJNS7_18OutRawArgumentInfoILm16ELm4ELl0EEENS7_17InRawArgumentInfoILm8ELm8ELl0EEEEEELm8ELm16ELb0EEESF_E7ProcessEPNS2_26Hipc2ClientProxyBaseObjectENS6_6client24OutRawClientArgumentTypeILm16ELm4EEENSK_23InRawClientArgumentTypeILm8ELm8EvEEj = 0x00000000001ba680 + __sdk_start;
_IO_putc_unlocked = 0x00000000003bb8ac + __sdk_start;
_ZTVN2nn3ssl6detail10SslApiBaseE = 0x00000000008e0088 + __sdk_start;
_ZTINSt3__15ctypeIcEE = 0x0000000000906000 + __sdk_start;
_ZNSt3__115__thread_struct27__make_ready_at_thread_exitEPNS_17__assoc_sub_stateE = 0x00000000003492e0 + __sdk_start;
_ZN2nn3svc7aarch644lp6418ContinueDebugEventENS0_6HandleEjPKmi = 0x00000000000a9ff4 + __sdk_start;
_ZNK2nn3mii6detail11CharInfoRaw6VerifyEv = 0x00000000001a2150 + __sdk_start;
_ZN22nerd_gillette_internal5otete11ImageCodec213DecodeInPlaceItNS0_14InputBitStreamEZNS1_13DecodeInPlaceItEEbRKNS_15StaticImageViewIT_EERS3_fEUliiE_EEbS9_RT0_RKT1_f = 0x000000000022872c + __sdk_start;
_ZTVN2nn5audio6server22CircularBufferSinkInfoE = 0x00000000008e39c8 + __sdk_start;
systemTime = 0x00000000002b214c + __sdk_start;
_ZNSt3__120__get_collation_nameEPKc = 0x000000000033e51c + __sdk_start;
_ZN2nn5audio6server11InfoUpdater11UpdateMixesERNS1_10MixContextEiRKNS1_13EffectContextERKNS1_15SplitterContextE = 0x000000000018db3c + __sdk_start;
fopen = 0x00000000003885c4 + __sdk_start;
nnutilZlib_inflateResetKeep = 0x00000000000354ac + __sdk_start;
_ZN2nn5image6detail13SetJpegHeaderEPNS1_8JpegInfoEttNS0_17JpegSamplingRatioE = 0x000000000002cf74 + __sdk_start;
_ZN2nn2sf4hipc6client24Hipc2ClientCoreProcessorILNS1_6detail11MessageTypeE4ENS0_4cmif6detail14CoreMethodInfoINSt3__15tupleIJNS7_18BufferArgumentInfoILi0ELi6ELm0EEENS7_18OutRawArgumentInfoILm4ELm4ELl0EEEEEELm0ELm4ELb0EEESF_E7ProcessEPNS2_26Hipc2ClientProxyBaseObjectENS6_6client24BufferClientArgumentTypeENSK_24OutRawClientArgumentTypeILm4ELm4EEEj = 0x000000000017f0a0 + __sdk_start;
_ZTVN2nn2sf6detail39ObjectImplFactoryWithStatelessAllocatorINS0_4cmif6client16CmifProxyFactoryINS_4nifm6detail15INetworkProfileENS4_15CmifDomainProxyINS0_4hipc6client38Hipc2ClientSessionManagedProxyKindBaseINSB_18Hipc2ProxyKindBaseILNSA_6detail11MessageTypeE4EEEEEEENS0_25StatelessAllocationPolicyINS0_22ExpHeapStaticAllocatorILm16384ENS7_21ServiceProviderClient30CreateNifmUserServiceObjectTagEEEEEE13ServiceObjectESO_E6ObjectE = 0x00000000008de478 + __sdk_start;
_ZN2nn2sf4cmif6client34CmifDomainProxyClientCoreProcessorINS0_4hipc6client38Hipc2ClientSessionManagedProxyKindBaseINS5_18Hipc2ProxyKindBaseILNS4_6detail11MessageTypeE4EEEEENS1_6detail14CoreMethodInfoINSt3__15tupleIJNSC_18OutRawArgumentInfoILm4ELm4ELl0EEENSG_ILm4ELm4ELl4EEENSC_17InRawArgumentInfoILm16ELm8ELl0EEEEEELm16ELm8ELb0EEESL_E7ProcessEPNS2_23CmifDomainClientMessageISB_E15ProxyBaseObjectENS2_24OutRawClientArgumentTypeILm4ELm4EEEST_NS2_23InRawClientArgumentTypeILm16ELm8EvEEj = 0x000000000011ca38 + __sdk_start;
_ZTIN2nn2sf4cmif6client6detail9CmifProxyINS_7friends6detail3ipc20INotificationServiceENS2_15CmifDomainProxyINS0_4hipc6client38Hipc2ClientSessionManagedProxyKindBaseINSB_18Hipc2ProxyKindBaseILNSA_6detail11MessageTypeE4EEEEEEENS0_30MemoryResourceAllocationPolicyEvEE = 0x00000000008dbda0 + __sdk_start;
_ZNSt3__16__sortIRNS_6__lessIllEEPlEEvT0_S5_T_ = 0x00000000002fe348 + __sdk_start;
_ZNKSt3__112basic_stringIcNS_11char_traitsIcEENS_9allocatorIcEEE7compareEmmRKS5_mm = 0x0000000000341344 + __sdk_start;
_ZTSN2nn2sf4cmif6client6detail9CmifProxyINS_7account3nas21IAuthorizationRequestENS2_15CmifDomainProxyINS0_4hipc6client38Hipc2ClientSessionManagedProxyKindBaseINSA_18Hipc2ProxyKindBaseILNS9_6detail11MessageTypeE4EEEEEEENS0_25StatelessAllocationPolicyINS0_22ExpHeapStaticAllocatorILm2048ENS5_6detail12ObjectHolder24ObjectHolderAllocatorTagEEEEEvEE = 0x0000000000748a90 + __sdk_start;
nndetailDiagVLogImpl = 0x0000000000043888 + __sdk_start;
_ZNK2nn2sf13SharedPointerINS_6socket2sf7IClientEE19FunctionForBoolTypeEv = 0x000000000009e3a8 + __sdk_start;
_ZN22nerd_gillette_internal17OnAssertionFailedEPbPKciS2_S2_z = 0x0000000000221b54 + __sdk_start;
_ZN2nn2sf4hipc6client34HipcSimpleClientSessionManagerBase4Impl18InitializeByHandleINS_7friends6detail3ipc15IServiceCreatorENS0_30MemoryResourceAllocationPolicyEEENS_6ResultEPNS0_13SharedPointerIT_EEPNT0_9AllocatorENS_3svc6HandleE = 0x0000000000119a54 + __sdk_start;
_ZN2nn7nlibsdk4heap14TlsHeapCentral21CacheSmallMemoryList_EPNS1_12TlsHeapCacheEPhmPPvim = 0x0000000000080354 + __sdk_start;
nvcecGetConnectionStatus = 0x0000000000239a1c + __sdk_start;
_ZN2nn5audio15PerformanceInfo10GetDetailsEPi = 0x0000000000177bc8 + __sdk_start;
_ZTVNSt3__19money_putIcNS_19ostreambuf_iteratorIcNS_11char_traitsIcEEEEEE = 0x0000000000904d88 + __sdk_start;
_ZTVNSt3__17codecvtIDsc11__mbstate_tEE = 0x00000000009055d8 + __sdk_start;
_ZN2nn2oe20SetFocusHandlingModeENS0_17FocusHandlingModeE = 0x000000000014eb40 + __sdk_start;
_ZTINSt3__117moneypunct_bynameIcLb1EEE = 0x0000000000906680 + __sdk_start;
_ZTSNSt3__110moneypunctIcLb0EEE = 0x00000000007b4a50 + __sdk_start;
_ZNK2nn5audio6server11AddressInfo8IsMappedEv = 0x000000000018fbcc + __sdk_start;
_ZN2nn2am24GetGlobalStateControllerEv = 0x00000000000ba67c + __sdk_start;
_ZN2nn3hid10GetKeyCodeEPtiNS_4util10BitFlagSetILi32ENS0_16KeyboardModifierEEENS2_7BitPackIjNS0_14KeyboardLayoutEEE = 0x0000000000211ef4 + __sdk_start;
_ZN2nn5prepo12ClearStorageEv = 0x0000000000157594 + __sdk_start;
opus_fft_c = 0x00000000000df69c + __sdk_start;
_ZN2nn3hid6detail22GetNpadControllerColorEPNS0_19NpadControllerColorES3_RKj = 0x000000000020390c + __sdk_start;
_ZN2nn2sf6detail38ObjectImplFactoryWithStatefulAllocatorINS0_4cmif6client16CmifProxyFactoryINS_2am7service8IStorageENS4_15CmifDomainProxyINS0_4hipc6client38Hipc2ClientSessionManagedProxyKindBaseINSB_18Hipc2ProxyKindBaseILNSA_6detail11MessageTypeE4EEEEEEENS0_30MemoryResourceAllocationPolicyEE13ServiceObjectESJ_E6Object7ReleaseEv = 0x00000000000c1830 + __sdk_start;
_ZNK2nn2lm6detail15LogPacketHeader11GetThreadIdEv = 0x00000000001294ec + __sdk_start;
_ZN2nn3nfp6client22RequiredMcuVersionDataE = 0x0000000000767d80 + __sdk_start;
silk_Resampler_2_3_COEFS = 0x000000000075eac2 + __sdk_start;
_ZTSN2nn2sf4cmif6client6detail9CmifProxyINS_7account31IAccountServiceForSystemServiceENS2_15CmifDomainProxyINS0_4hipc6client38Hipc2ClientSessionManagedProxyKindBaseINS9_18Hipc2ProxyKindBaseILNS8_6detail11MessageTypeE4EEEEEEENS0_25StatelessAllocationPolicyINS0_22ExpHeapStaticAllocatorILm2048ENS5_6detail12ObjectHolder24ObjectHolderAllocatorTagEEEEEvEE = 0x0000000000749760 + __sdk_start;
_ZN2nn2sf4cmif6client6detail13CmifProxyImplINS_4pctl6detail3ipc23IParentalControlServiceENS2_15CmifDomainProxyINS0_4hipc6client38Hipc2ClientSessionManagedProxyKindBaseINSB_18Hipc2ProxyKindBaseILNSA_6detail11MessageTypeE4EEEEEEENS0_30MemoryResourceAllocationPolicyES8_E30_nn_sf_sync_UnlinkPairingAsyncENS0_3OutINS6_9AsyncDataEvEENSL_INS0_12NativeHandleEvEEb = 0x0000000000153414 + __sdk_start;
_ZN2nn3fgm8Debugger10InitializeEPvmNS_2os14EventClearModeE = 0x00000000002f3120 + __sdk_start;
_ZN2nn2sf4cmif6client6detail13CmifProxyImplINS_3hid16IHidSystemServerENS0_4hipc6client18Hipc2ProxyKindBaseILNS7_6detail11MessageTypeE4EEENS0_25StatelessAllocationPolicyINS0_22ExpHeapStaticAllocatorILm16384ENS5_6detail15HidSystemServerEEEEES6_E31_nn_sf_sync_StartFirmwareUpdateENS0_3OutINS5_6system26FirmwareUpdateDeviceHandleEvEENSL_11UniquePadIdE = 0x000000000021cb60 + __sdk_start;
_ZN2nn2sf4hipc6client24Hipc2ClientCoreProcessorILNS1_6detail11MessageTypeE4ENS0_4cmif6detail14CoreMethodInfoINSt3__15tupleIJNS7_18BufferArgumentInfoILi0ELi34ELm0EEENSB_ILi1ELi9ELm0EEEEEELm0ELm0ELb0EEESE_E7ProcessEPNS2_26Hipc2ClientProxyBaseObjectENS6_6client24BufferClientArgumentTypeESK_j = 0x00000000002f5f5c + __sdk_start;
_ZN2nn2vi6detail18SystemServiceProxyD1Ev = 0x00000000001bf2fc + __sdk_start;
_ZN2nn3ngc6detail11BitVector32D1Ev = 0x000000000013eb58 + __sdk_start;
fseeko = 0x00000000003bab50 + __sdk_start;
_ZN2nn8settings7factory21GetAccelerometerScaleEPNS1_18AccelerometerScaleE = 0x000000000015bbf0 + __sdk_start;
__towctrans_l = 0x00000000003a0b3c + __sdk_start;
_ZNKSt3__15ctypeIwE8do_widenEc = 0x0000000000332724 + __sdk_start;
_ZN2nn2fs20CreateDeviceSaveDataENS_3ncm13ApplicationIdEmllj = 0x0000000000063570 + __sdk_start;
_ZN2nn3mii6detail11CoreDataRaw8SetNoseYEi = 0x00000000001a565c + __sdk_start;
_ZN2nn2sf4cmif6client6detail13CmifProxyImplINS_4pctl6detail3ipc23IParentalControlServiceENS2_15CmifDomainProxyINS0_4hipc6client38Hipc2ClientSessionManagedProxyKindBaseINSB_18Hipc2ProxyKindBaseILNSA_6detail11MessageTypeE4EEEEEEENS0_30MemoryResourceAllocationPolicyES8_E26_nn_sf_sync_StartPlayTimerEv = 0x00000000001530ec + __sdk_start;
_ZN2nn3mii6detail11CoreDataRaw13SetGlassColorEi = 0x00000000001a59b8 + __sdk_start;
nnosAcquireSemaphore = 0x000000000008a088 + __sdk_start;
_ZNK2nn3ngc6detail9SbvSelect6SelectERKNS1_3SetEj = 0x000000000013fb80 + __sdk_start;
_ZTVN2nn3hid6detail12KeyboardLifoE = 0x00000000008e6028 + __sdk_start;
nnutilZlib_deflateParams = 0x0000000000031138 + __sdk_start;
_ZN2nn4edid6detail21IsContinuousFrequencyEh = 0x00000000000405cc + __sdk_start;
_ZThn32_N2nn2sf4cmif6client6detail13CmifProxyImplINS_7account3nas21IAuthorizationRequestENS2_15CmifDomainProxyINS0_4hipc6client38Hipc2ClientSessionManagedProxyKindBaseINSA_18Hipc2ProxyKindBaseILNS9_6detail11MessageTypeE4EEEEEEENS0_25StatelessAllocationPolicyINS0_22ExpHeapStaticAllocatorILm2048ENS5_6detail12ObjectHolder24ObjectHolderAllocatorTagEEEEES7_E17GetCmifBaseObjectEv = 0x00000000000af420 + __sdk_start;
_ZN2nn4util10BitFlagSetILi256ENS_3hid11KeyboardKeyEE4FlagILi62EE4MaskE = 0x0000000000790258 + __sdk_start;
silk_delta_gain_iCDF = 0x000000000075f600 + __sdk_start;
_ZN2nn2sf4cmif6client6detail13CmifProxyImplINS_7account4baas28IFloatingRegistrationRequestENS2_15CmifDomainProxyINS0_4hipc6client38Hipc2ClientSessionManagedProxyKindBaseINSA_18Hipc2ProxyKindBaseILNS9_6detail11MessageTypeE4EEEEEEENS0_25StatelessAllocationPolicyINS0_22ExpHeapStaticAllocatorILm2048ENS5_6detail12ObjectHolder24ObjectHolderAllocatorTagEEEEES7_E42_nn_sf_sync_SetSystemProgramIdentificationERKNS5_27SystemProgramIdentificationEm = 0x00000000000b32dc + __sdk_start;
_ZN2nn7account6detail12ObjectHolderD2Ev = 0x00000000000ab330 + __sdk_start;
_ZN2nn7account49ExternalNetworkServiceAccountIntroducingProcedureC2Ev = 0x00000000000b9d00 + __sdk_start;
_ZN2nn2vi10GetServiceEv = 0x00000000001b7298 + __sdk_start;
_ZN2nn4util6detail37ConvertToExponentStyleStringWithPointEPcmdi = 0x000000000003fb5c + __sdk_start;
_ZN2nn3svc7aarch644lp6417GetThreadCoreMaskEPiPmNS0_6HandleE = 0x00000000000a9cb4 + __sdk_start;
_ZN2nn5audio17MemoryPoolManager7ReleaseEPNS0_14MemoryPoolInfoE = 0x00000000001774f8 + __sdk_start;
_ZN2nn7account6detail24SimpleOAuthProcedureBaseC2Ev = 0x00000000000aac84 + __sdk_start;
_ZN2nn6socket8resolver13GetHostByAddrEPKvjj = 0x00000000000a5b14 + __sdk_start;
_ZN2nn3hid6detail8RingLifoINS0_14BasicXpadStateELi16ENS1_13AtomicStorageIS3_EEED2Ev = 0x0000000000208b2c + __sdk_start;
_ZN2nn2os16SignalTimerEventEPNS0_14TimerEventTypeE = 0x00000000000872f0 + __sdk_start;
_ZNK2nn3mii6detail12StoreDataRaw27IsValidWithoutEmptyNicknameEv = 0x00000000001a79b8 + __sdk_start;
isblank = 0x000000000039fea0 + __sdk_start;
_ZN2nn2sf13SharedPointerINS_5visrv2sf22IManagerDisplayServiceEED2Ev = 0x00000000001b7280 + __sdk_start;
_ZTSNSt3__112codecvt_baseE = 0x00000000007b3fd0 + __sdk_start;
NvRmStreamSetFenceFd = 0x0000000000254034 + __sdk_start;
_ZN2nn8settings5fwdbg29CreateSettingsItemKeyIteratorEPKc = 0x000000000015c614 + __sdk_start;
_ZN2nn2sf4cmif6client6detail13CmifProxyImplINS_7friends6detail3ipc20INotificationServiceENS2_15CmifDomainProxyINS0_4hipc6client38Hipc2ClientSessionManagedProxyKindBaseINSB_18Hipc2ProxyKindBaseILNSA_6detail11MessageTypeE4EEEEEEENS0_30MemoryResourceAllocationPolicyES8_E17_nn_sf_sync_ClearEv = 0x000000000011ed24 + __sdk_start;
_ZN2nn4util10BitFlagSetILi256ENS_3hid11KeyboardKeyEE4FlagILi228EE4MaskE = 0x0000000000790b18 + __sdk_start;
_ZN2nn2sf4cmif6client6detail13CmifProxyImplINS_7friends6detail3ipc14IFriendServiceENS2_15CmifDomainProxyINS0_4hipc6client38Hipc2ClientSessionManagedProxyKindBaseINSB_18Hipc2ProxyKindBaseILNSA_6detail11MessageTypeE4EEEEEEENS0_30MemoryResourceAllocationPolicyES8_E28_nn_sf_sync_UpdateFriendInfoERKNS0_8OutArrayINS6_10FriendImplEEERKNS_7account3UidERKNS0_7InArrayINSQ_23NetworkServiceAccountIdEEEm = 0x0000000000119f00 + __sdk_start;
_ZNK2nn3mii13AppletManager13IsInitializedEv = 0x00000000001b3284 + __sdk_start;
_ZN2nn8settings6detail31SetConsoleInformationUploadFlagEb = 0x000000000015fc74 + __sdk_start;
_ZN2nn5audio27GetAuxI3dl2ReverbParametersEPKNS0_18AuxI3dl2ReverbTypeE = 0x00000000001769ec + __sdk_start;
__cxa_allocate_exception = 0x0000000000377a68 + __sdk_start;
_ZN2nn4util8Vector4f12ConstantZeroE = 0x000000000073a820 + __sdk_start;
_ZN2nn3err19ApplicationErrorArgC1EjPKcS3_RKNS_8settings12LanguageCodeE = 0x000000000010f91c + __sdk_start;
_ZN2nn7account31NintendoAccountLinkageProcedureaSEOS1_ = 0x00000000000b9a8c + __sdk_start;
_ZN2nn5audio14MemoryPoolInfoD1Ev = 0x00000000001770ec + __sdk_start;
_ZN2nn4util16BinaryFileHeader14FindFirstBlockEi = 0x000000000003a41c + __sdk_start;
nnmem_nlib_thread_priority_min = 0x000000000007af90 + __sdk_start;
_ZNK2nn3mii21ParamCharInfoAccessor11GetEyebrowYEv = 0x00000000001a1af8 + __sdk_start;
_ZNSt3__115basic_streambufIwNS_11char_traitsIwEEE5gbumpEi = 0x0000000000308134 + __sdk_start;
_IO_putc = 0x00000000003bb78c + __sdk_start;
_ZN2nn2sf4cmif6client6detail13CmifProxyImplINS_7account4baas12IManagerBaseENS2_15CmifDomainProxyINS0_4hipc6client38Hipc2ClientSessionManagedProxyKindBaseINSA_18Hipc2ProxyKindBaseILNS9_6detail11MessageTypeE4EEEEEEENS0_25StatelessAllocationPolicyINS0_22ExpHeapStaticAllocatorILm2048ENS5_6detail12ObjectHolder24ObjectHolderAllocatorTagEEEEENS6_14IAdministratorEE35_nn_sf_sync_EnsureIdTokenCacheAsyncENS0_3OutINS0_13SharedPointerINSK_13IAsyncContextEEEvEE = 0x00000000000b36f8 + __sdk_start;
_ZN7android12ConsumerBase15onLastStrongRefEPKv = 0x0000000000293da8 + __sdk_start;
_ZN2nn3web36ShowOfflineHtmlPageArgWithPlayReportC2EPKc = 0x0000000000235e5c + __sdk_start;
_ZTIN2nn3apm18IManagerPrivilegedE = 0x00000000008d9570 + __sdk_start;
_ZN2nn2sf4cmif6client6detail13CmifProxyImplINS_4pctl6detail3ipc23IParentalControlServiceENS2_15CmifDomainProxyINS0_4hipc6client38Hipc2ClientSessionManagedProxyKindBaseINSB_18Hipc2ProxyKindBaseILNSA_6detail11MessageTypeE4EEEEEEENS0_30MemoryResourceAllocationPolicyES8_E30_nn_sf_sync_ClearUnlinkedEventEv = 0x000000000015322c + __sdk_start;
_ZN2nn4nifm6detail13RequestClient14SetSustainableEb = 0x0000000000144260 + __sdk_start;
nndetailDiagLogImplForC = 0x00000000000439fc + __sdk_start;
_ZTSNSt3__18ios_baseE = 0x00000000007b2b20 + __sdk_start;
_ZTIN2nn2sf4cmif6client6detail13CmifProxyImplINS_2am7service15IAppletAccessorENS2_15CmifDomainProxyINS0_4hipc6client38Hipc2ClientSessionManagedProxyKindBaseINSA_18Hipc2ProxyKindBaseILNS9_6detail11MessageTypeE4EEEEEEENS0_30MemoryResourceAllocationPolicyES7_EE = 0x00000000008d7540 + __sdk_start;
_ZN2nn2sm10InitializeEv = 0x0000000000099414 + __sdk_start;
_ZTINSt3__114__codecvt_utf8IDsEE = 0x0000000000905a40 + __sdk_start;
_ZN2nn3nsd19GetNasRequestFqdnExEPNS0_4FqdnE = 0x000000000014b8b4 + __sdk_start;
_ZN2nn3hid21GetSixAxisSensorStateEPNS0_18SixAxisSensorStateERKNS0_19SixAxisSensorHandleE = 0x000000000021522c + __sdk_start;
_ZN2nn8settings6system17GetLockScreenFlagEv = 0x000000000015ca50 + __sdk_start;
_ZN2nn7friends17NotificationQueueC2Ev = 0x0000000000116d54 + __sdk_start;
pitch_search = 0x00000000000e0d84 + __sdk_start;
_ZN2nn4pctl16GetPinCodeLengthEv = 0x000000000014fac8 + __sdk_start;
_ZN2nn2sf4cmif6client34CmifDomainProxyClientCoreProcessorINS0_4hipc6client38Hipc2ClientSessionManagedProxyKindBaseINS5_18Hipc2ProxyKindBaseILNS4_6detail11MessageTypeE4EEEEENS1_6detail14CoreMethodInfoINSt3__15tupleIJNSC_18OutRawArgumentInfoILm4ELm4ELl0EEENSC_18BufferArgumentInfoILi0ELi6ELm0EEENSC_17InRawArgumentInfoILm16ELm8ELl0EEEEEELm16ELm4ELb0EEESM_E7ProcessEPNS2_23CmifDomainClientMessageISB_E15ProxyBaseObjectENS2_24OutRawClientArgumentTypeILm4ELm4EEENS2_24BufferClientArgumentTypeENS2_23InRawClientArgumentTypeILm16ELm8EvEEj = 0x00000000000b6ae8 + __sdk_start;
_ZTIN2nn2sf4cmif6client6detail13CmifProxyImplIN3nns9hosbinder16IHOSBinderDriverENS0_4hipc6client18Hipc2ProxyKindBaseILNS8_6detail11MessageTypeE4EEENS0_30MemoryResourceAllocationPolicyES7_EE = 0x00000000008e4810 + __sdk_start;
_ZN2nn3ldn17ClearAcceptFilterEv = 0x0000000000232088 + __sdk_start;
_ZNK2nn3hid15VibrationTarget22GetVibrationDeviceInfoEPNS0_19VibrationDeviceInfoE = 0x0000000000218310 + __sdk_start;
_ZN2nn2sf4cmif6client6detail13CmifProxyImplINS_8settings21ISystemSettingsServerENS0_4hipc6client18Hipc2ProxyKindBaseILNS7_6detail11MessageTypeE4EEENS0_25StatelessAllocationPolicyINS0_22ExpHeapStaticAllocatorILm16384ES6_EEEES6_E30_nn_sf_sync_GetUsb30EnableFlagENS0_3OutIbvEE = 0x0000000000165200 + __sdk_start;
_ZN2nn5swkbd6detail18InlineKeyboardImpl6AppearERKNS0_9AppearArgE = 0x00000000001b5dac + __sdk_start;
_ZTIN2nn2sf4cmif6client6detail13CmifProxyImplINS_2am7service16IStorageAccessorENS2_15CmifDomainProxyINS0_4hipc6client38Hipc2ClientSessionManagedProxyKindBaseINSA_18Hipc2ProxyKindBaseILNS9_6detail11MessageTypeE4EEEEEEENS0_30MemoryResourceAllocationPolicyES7_EE = 0x00000000008d7b40 + __sdk_start;
_ZN2nn4diag6detail23ResetDefalutLogObserverEv = 0x0000000000043bf8 + __sdk_start;
_ZN2nn5audio6server23CircularBufferSinkState7CleanUpEv = 0x0000000000191198 + __sdk_start;
tgammaf = 0x00000000003ad0f4 + __sdk_start;
_ZN2nn8settings6detail24GetPtmFuelGaugeParameterEPNS0_6system21PtmFuelGaugeParameterE = 0x00000000001602d0 + __sdk_start;
_ZN2nn5codec30HardwareOpusMultiStreamDecoder8FinalizeEv = 0x000000000010c8d4 + __sdk_start;
_ZN2nn4util6detail16AtanCoefficientsE = 0x000000000073882c + __sdk_start;
_ZN2nn4lmem15CreateFrameHeapEPvmiPNS0_6detail8HeapHeadE = 0x0000000000068e38 + __sdk_start;
NvRmSurfaceComputeMD5 = 0x000000000024f020 + __sdk_start;
_ZNSt3__18valarrayImEC1Em = 0x0000000000349838 + __sdk_start;
_ZN2nn7friends6detail4util10Utf8Stream8GetCountEv = 0x000000000011136c + __sdk_start;
tgammal = 0x0000000000391c18 + __sdk_start;
_ZN2nn2sf4cmif6client34CmifDomainProxyClientCoreProcessorINS0_4hipc6client38Hipc2ClientSessionManagedProxyKindBaseINS5_18Hipc2ProxyKindBaseILNS4_6detail11MessageTypeE4EEEEENS1_6detail14CoreMethodInfoINSt3__15tupleIJNSC_18OutRawArgumentInfoILm16ELm8ELl0EEENSC_17InRawArgumentInfoILm1ELm1ELl0EEEEEELm1ELm16ELb0EEESK_E7ProcessEPNS2_23CmifDomainClientMessageISB_E15ProxyBaseObjectENS2_24OutRawClientArgumentTypeILm16ELm8EEENS2_23InRawClientArgumentTypeILm1ELm1EvEEj = 0x00000000000ae6d0 + __sdk_start;
NvRmGpuDeviceZbcGetActiveSlotMask = 0x00000000002678f8 + __sdk_start;
silk_LTP_vq_sizes = 0x000000000075eefc + __sdk_start;
nearbyintf = 0x00000000003aade4 + __sdk_start;
_ZN2nn5prepo6detail7msgpack11WriteFixMapEPNS2_17OutputStreamParamEh = 0x0000000000155ec8 + __sdk_start;
_ZTv0_n24_N7android11IMemoryHeapD1Ev = 0x0000000000279824 + __sdk_start;
_ZTIN2nn2sf4cmif6client6detail9CmifProxyINS_5visrv2sf18ISystemRootServiceENS0_4hipc6client18Hipc2ProxyKindBaseILNS8_6detail11MessageTypeE4EEENS0_30MemoryResourceAllocationPolicyEvEE = 0x00000000008e4de0 + __sdk_start;
_ZN22nerd_gillette_internal5otete11ImageCodec213DecodeInPlaceIhNS0_14InputBitStreamEZNS1_13DecodeInPlaceIhEEbRKNS_15StaticImageViewIT_EERS3_fEUliiE_EEbS9_RT0_RKT1_f = 0x0000000000228fe0 + __sdk_start;
_ZN2nn3ssl7Context9SetOptionENS1_13ContextOptionEi = 0x000000000016819c + __sdk_start;
_ZN2nn7account28NetworkServiceAccountManager44EnsureNetworkServiceAccountIdTokenCacheAsyncEPNS0_12AsyncContextE = 0x00000000000b822c + __sdk_start;
nearbyintl = 0x00000000003aae1c + __sdk_start;
_ZTINSt3__117moneypunct_bynameIwLb1EEE = 0x00000000009066c0 + __sdk_start;
_ZTSNSt3__110moneypunctIwLb0EEE = 0x00000000007b4ab0 + __sdk_start;
_ZTSN2nn5audio6detail15IAudioInManagerE = 0x0000000000776000 + __sdk_start;
_ZN2nn2os15WaitSystemEventEPNS0_15SystemEventTypeE = 0x00000000000878ac + __sdk_start;
sync_dup = 0x00000000002a8fe4 + __sdk_start;
_ZN7android7String85clearEv = 0x00000000002b010c + __sdk_start;
_ZN2nn4bcat22DeliveryCacheDirectoryD1Ev = 0x00000000000cc9cc + __sdk_start;
FsLttComponent_init = 0x00000000001eb388 + __sdk_start;
_ZTSN2nn2sf4cmif6client16CmifProxyFactoryINS_5visrv2sf22IManagerDisplayServiceENS0_4hipc6client18Hipc2ProxyKindBaseILNS7_6detail11MessageTypeE4EEENS0_30MemoryResourceAllocationPolicyEE13ServiceObjectE = 0x000000000078cdb0 + __sdk_start;
_ZN2nn2ro6detail4BindEPNS1_8RoModuleEj = 0x000000000009155c + __sdk_start;
_ZThn8_N2nn2sf4cmif6server23CmifServerDomainManager6Domain9GetObjectENS1_18CmifDomainObjectIdE = 0x0000000000093738 + __sdk_start;
_ZN2nn8irsensor6detail25GetIrCameraInternalStatusEPNS0_22IrCameraInternalStatusEPbRKNS0_14IrCameraHandleE = 0x000000000021dfb0 + __sdk_start;
nnmem_nlib_virtual_alloc = 0x0000000000079f34 + __sdk_start;
__uflow = 0x00000000003bd6ac + __sdk_start;
_ZN2nn7friends6detail20AsyncContextInternal11IsCompletedEv = 0x00000000001192a4 + __sdk_start;
_ZN2nn7nlibsdk4heap18NotNMallocPtrErrorEPKv = 0x0000000000081b48 + __sdk_start;
_ZNKSt3__110moneypunctIwLb1EE16do_decimal_pointEv = 0x0000000000324bb8 + __sdk_start;
_ZTSN2nn2sf6detail39ObjectImplFactoryWithStatelessAllocatorINS0_4cmif6client16CmifProxyFactoryINS_7account6detail9INotifierENS4_15CmifDomainProxyINS0_4hipc6client38Hipc2ClientSessionManagedProxyKindBaseINSB_18Hipc2ProxyKindBaseILNSA_6detail11MessageTypeE4EEEEEEENS0_25StatelessAllocationPolicyINS0_22ExpHeapStaticAllocatorILm2048ENS7_12ObjectHolder24ObjectHolderAllocatorTagEEEEEE13ServiceObjectESO_E6ObjectE = 0x0000000000749be0 + __sdk_start;
_ZN2nn2sf4hipc21GetMessageBufferOnTlsEv = 0x0000000000098db0 + __sdk_start;
_ZNSt3__113random_deviceC2ERKNS_12basic_stringIcNS_11char_traitsIcEENS_9allocatorIcEEEE = 0x000000000033e378 + __sdk_start;
_ZTSNSt3__114codecvt_bynameIDic11__mbstate_tEE = 0x00000000007b4ea0 + __sdk_start;
_ZN2nn3ngc6detail12SwapEndian32EPjm = 0x0000000000143880 + __sdk_start;
_ZN2nn3mem19NumberLineAllocator8FinalizeEv = 0x000000000008393c + __sdk_start;
_ZN2nn7nlibsdk4heap14TlsHeapCentral10AllocPagesEm = 0x000000000007daa8 + __sdk_start;
_ZTIN2nn7account31NintendoAccountLinkageProcedureE = 0x00000000008d4110 + __sdk_start;
frexpf = 0x00000000003a8740 + __sdk_start;
_ZN2nn2sf4cmif6client6detail13CmifProxyImplINS_4nifm6detail15IGeneralServiceENS2_15CmifDomainProxyINS0_4hipc6client38Hipc2ClientSessionManagedProxyKindBaseINSA_18Hipc2ProxyKindBaseILNS9_6detail11MessageTypeE4EEEEEEENS0_25StatelessAllocationPolicyINS0_22ExpHeapStaticAllocatorILm16384ENS6_21ServiceProviderClient30CreateNifmUserServiceObjectTagEEEEES7_E12GetProxyInfoEv = 0x00000000001450b4 + __sdk_start;
silk_max_pulses_table = 0x000000000075f7f9 + __sdk_start;
_ZN2nn3ngc6detail9SparseSet5BuildEv = 0x00000000001415ec + __sdk_start;
_ZN2nn3htc18GetBridgeIpAddressEPcm = 0x0000000000066d04 + __sdk_start;
_ZNSt3__17codecvtIwc11__mbstate_tEC1Em = 0x0000000000333e34 + __sdk_start;
_ZN2nn3hid15VibrationTargetC2Ev = 0x00000000002180b0 + __sdk_start;
cabs = 0x0000000000398098 + __sdk_start;
_ZN2nn2sf4cmif6client6detail13CmifProxyImplINS_7account4baas14IAdministratorENS2_15CmifDomainProxyINS0_4hipc6client38Hipc2ClientSessionManagedProxyKindBaseINSA_18Hipc2ProxyKindBaseILNS9_6detail11MessageTypeE4EEEEEEENS0_25StatelessAllocationPolicyINS0_22ExpHeapStaticAllocatorILm2048ENS5_6detail12ObjectHolder24ObjectHolderAllocatorTagEEEEES7_E24_nn_sf_sync_IsRegisteredENS0_3OutIbvEE = 0x00000000000b3a0c + __sdk_start;
frexpl = 0x00000000003a87b4 + __sdk_start;
_ZN2nn2sf4cmif6client6detail13CmifProxyImplINS_3pcv6detail11IPcvServiceENS0_4hipc6client18Hipc2ProxyKindBaseILNS8_6detail11MessageTypeE4EEENS0_30MemoryResourceAllocationPolicyES7_E12GetProxyInfoEv = 0x00000000002f78b0 + __sdk_start;
__nnmusl_force_add = 0x0000000000391c54 + __sdk_start;
_ZN2nn3aoc16ListAddOnContentEPiiiNS_13ApplicationIdE = 0x00000000001721d4 + __sdk_start;
_ZN2nn2sf4cmif6client32GetClientProcessorWithObjectBaseINS2_15CmifDomainProxyINS0_4hipc6client38Hipc2ClientSessionManagedProxyKindBaseINS6_18Hipc2ProxyKindBaseILNS5_6detail11MessageTypeE4EEEEEEEE14ObjectAssignerINS0_30MemoryResourceAllocationPolicyENS_14MemoryResourceEE14AllocateObjectINS_2am7service21ILibraryAppletCreatorEEEvi = 0x00000000000c23a8 + __sdk_start;
_ZNK2nn3ngc6detail15CompressedArrayixEm = 0x00000000001427c4 + __sdk_start;
_ZNK2nn3mii21ParamCharInfoAccessor12GetNoseScaleEv = 0x00000000001a1b08 + __sdk_start;
_ZN2nn7account42NintendoAccountAuthorizationRequestContext10GetIdTokenEPmPcm = 0x00000000000b972c + __sdk_start;
_ZTVN2nn2sf6detail39ObjectImplFactoryWithStatelessAllocatorINS0_4cmif6client16CmifProxyFactoryINS_8settings22IFactorySettingsServerENS0_4hipc6client18Hipc2ProxyKindBaseILNS8_6detail11MessageTypeE4EEENS0_25StatelessAllocationPolicyINS0_22ExpHeapStaticAllocatorILm16384ES7_EEEEE13ServiceObjectESH_E6ObjectE = 0x00000000008df528 + __sdk_start;
_ZN2nn2sf4cmif6client6detail13CmifProxyImplINS_5visrv2sf21ISystemDisplayServiceENS0_4hipc6client18Hipc2ProxyKindBaseILNS8_6detail11MessageTypeE4EEENS0_30MemoryResourceAllocationPolicyES7_E29_nn_sf_sync_GetDisplayCmuModeENS0_3OutIjvEEm = 0x00000000001b99c8 + __sdk_start;
_ZN2nn5audio6common13NodeIdManager16GetInvalidNodeIdEv = 0x000000000017a7e8 + __sdk_start;
_ZN2nn2sf6detail38ObjectImplFactoryWithStatefulAllocatorINS0_4cmif6client16CmifProxyFactoryINS_7friends6detail3ipc20INotificationServiceENS4_15CmifDomainProxyINS0_4hipc6client38Hipc2ClientSessionManagedProxyKindBaseINSC_18Hipc2ProxyKindBaseILNSB_6detail11MessageTypeE4EEEEEEENS0_30MemoryResourceAllocationPolicyEE13ServiceObjectESK_E6Object12AddReferenceEv = 0x000000000011ec9c + __sdk_start;
_ZN2nn2sf4cmif6client6detail13CmifProxyImplINS_3apm14ISystemManagerENS0_4hipc6client18Hipc2ProxyKindBaseILNS7_6detail11MessageTypeE4EEENS0_30MemoryResourceAllocationPolicyES6_E31_nn_sf_sync_GetPerformanceEventENS0_3OutINS0_12NativeHandleEvEENS5_11EventTargetE = 0x00000000000c8698 + __sdk_start;
_ZN2nn5image11ExifBuilder14SetOrientationENS0_15ExifOrientationE = 0x000000000002eb70 + __sdk_start;
_ZN2nn2sf4cmif6client6detail13CmifProxyImplINS_3hid15IHidDebugServerENS0_4hipc6client18Hipc2ProxyKindBaseILNS7_6detail11MessageTypeE4EEENS0_25StatelessAllocationPolicyINS0_22ExpHeapStaticAllocatorILm16384ENS5_6detail14HidDebugServerEEEEES6_E41_nn_sf_sync_GetDestinationFirmwareVersionENS0_3OutINS5_6system15FirmwareVersionEvEEjNS_4util10BitFlagSetILi32ENSL_10DeviceTypeEEE = 0x0000000000218f8c + __sdk_start;
_ZNSt3__19strstreamD2Ev = 0x000000000034830c + __sdk_start;
_ZN22nerd_gillette_internal5otete7jaimev123DecodeFullSilhouetteROKERNS_30ContiguousStorageContainerBaseINS_15NumericalVectorIfLm2EEELb1EEERNS0_14InputBitStreamERKNS1_23FullSilhouetteCodecDataEPFS4_NS3_IsLm2EEEE = 0x000000000022ce78 + __sdk_start;
_ZN2nn5audio6server13CommandBufferC2EPvmmRKNS1_14MemoryPoolInfoERNS1_30CommandProcessingTimeEstimatorE = 0x0000000000189624 + __sdk_start;
_ZN2nn2la32NifmToWifiWebAuthArgumentsWriterD2Ev = 0x00000000001a13b4 + __sdk_start;
_ZN2nn3mii6detail29RandomMiiFacelineWrinkleTableE = 0x00000000007875f0 + __sdk_start;
_ZNKSt3__112ctype_bynameIwE5do_isEPKwS3_Pt = 0x00000000003334b0 + __sdk_start;
_ZTIN2nn2sf6detail38ObjectImplFactoryWithStatefulAllocatorINS0_4cmif6client16CmifProxyFactoryINS_2am7service19IOverlayAppletProxyENS4_15CmifDomainProxyINS0_4hipc6client38Hipc2ClientSessionManagedProxyKindBaseINSB_18Hipc2ProxyKindBaseILNSA_6detail11MessageTypeE4EEEEEEENS0_30MemoryResourceAllocationPolicyEE13ServiceObjectESJ_E6ObjectE = 0x00000000008d8850 + __sdk_start;
_ZN2nn5audio37CreateAudioInManagerForDebuggerByHipcEv = 0x000000000017ec94 + __sdk_start;
NvWsiGetFormatInfo = 0x0000000000273398 + __sdk_start;
_ZN2nn2os6detail26MultiWaitHolderOfSemaphore20RemoveFromObjectListEv = 0x000000000008c348 + __sdk_start;
_ZN2nn3err18ErrorResultVariantC1ERKNS0_9ErrorCodeE = 0x000000000010fc94 + __sdk_start;
_ZNK7android16SortedVectorImpl7orderOfEPKv = 0x00000000002b407c + __sdk_start;
_ZN2nn2la21CommonArgumentsWriterD1Ev = 0x00000000001a1040 + __sdk_start;
_ZTVN2nn2sf6detail38ObjectImplFactoryWithStatefulAllocatorINS0_4cmif6client16CmifProxyFactoryINS_2am7service22ILibraryAppletAccessorENS4_15CmifDomainProxyINS0_4hipc6client38Hipc2ClientSessionManagedProxyKindBaseINSB_18Hipc2ProxyKindBaseILNSA_6detail11MessageTypeE4EEEEEEENS0_30MemoryResourceAllocationPolicyEE13ServiceObjectESJ_E6ObjectE = 0x00000000008d7778 + __sdk_start;
_ZN2nn2pl9EndVrModeEv = 0x00000000001b4488 + __sdk_start;
init_caps = 0x00000000000d3b8c + __sdk_start;
silk_fit_LTP = 0x00000000000f8910 + __sdk_start;
_ZN2nn3mii6detail14GetCommonColorENS0_11CommonColorENS0_9GammaTypeE = 0x00000000001a2ddc + __sdk_start;
_ZN2nn5image11JpegDecoderC1Ev = 0x000000000002dde8 + __sdk_start;
_ZN2nn2fs3fsa8RegisterEPKcONSt3__110unique_ptrINS1_11IFileSystemENS4_14default_deleteIS6_EEEE = 0x000000000004ce1c + __sdk_start;
_ZN2nn2os27InitializeConditionVariableEPNS0_21ConditionVariableTypeE = 0x00000000000863c0 + __sdk_start;
_ZN2nn5audio16SetReverbEnabledEPNS0_10ReverbTypeEb = 0x0000000000175b74 + __sdk_start;
_ZNKSt3__115__codecvt_utf16IDiLb0EE9do_lengthER11__mbstate_tPKcS5_m = 0x0000000000336bf8 + __sdk_start;
_ZN2nn5audio17ReadAuxSendBufferEPNS0_7AuxTypeEPii = 0x000000000017536c + __sdk_start;
_ZN2nn8settings6system30GetExternalSteadyClockSourceIdEPNS_4util4UuidE = 0x000000000015ac04 + __sdk_start;
_ZN2nn5audio6server24AudioRendererManagerImplD2Ev = 0x0000000000188c80 + __sdk_start;
_ZN2nn2la31NifmToNetConnectArgumentsWriterC2ENS_6ResultERKNS_4util4UuidE = 0x00000000001a11d0 + __sdk_start;
_ZNSt3__15ctypeIwE2idE = 0x0000000000a0a188 + __sdk_start;
_ZN2nn2sf4cmif6server6detail34CmifProcessFunctionTableGetterImplINS0_4hipc6detail12IHipcManagerEE29Process_CopyFromCurrentDomainEPPNS1_13CmifOutHeaderEPS7_PNS2_17CmifServerMessageEONS0_6detail14PointerAndSizeE = 0x0000000000098684 + __sdk_start;
_ZTIN2nn3nfp6detail12IUserManagerE = 0x00000000008dd7f0 + __sdk_start;
_ZTIN2nn2sf4cmif6client16CmifProxyFactoryINS_2am7service13ILockAccessorENS2_15CmifDomainProxyINS0_4hipc6client38Hipc2ClientSessionManagedProxyKindBaseINS9_18Hipc2ProxyKindBaseILNS8_6detail11MessageTypeE4EEEEEEENS0_30MemoryResourceAllocationPolicyEE13ServiceObjectE = 0x00000000008d6920 + __sdk_start;
pthread_setspecific = 0x000000000038a160 + __sdk_start;
_ZTINSt3__113basic_istreamIcNS_11char_traitsIcEEEE = 0x0000000000904040 + __sdk_start;
_ZNSt3__18ios_base3octE = 0x00000000007b2aa4 + __sdk_start;
silk_resampler_down2_3 = 0x00000000000f2b44 + __sdk_start;
_ZN2nn2sf4hipc6client24Hipc2ClientCoreProcessorILNS1_6detail11MessageTypeE4ENS0_4cmif6detail14CoreMethodInfoINSt3__15tupleIJNS7_18OutRawArgumentInfoILm4ELm4ELl0EEENS7_17InRawArgumentInfoILm8ELm4ELl0EEEEEELm8ELm4ELb0EEESF_E7ProcessEPNS2_26Hipc2ClientProxyBaseObjectENS6_6client24OutRawClientArgumentTypeILm4ELm4EEENSK_23InRawClientArgumentTypeILm8ELm4EvEEj = 0x000000000010e888 + __sdk_start;
_ZNKSt3__17num_getIcNS_19istreambuf_iteratorIcNS_11char_traitsIcEEEEE23__do_get_floating_pointIeEES4_S4_S4_RNS_8ios_baseERjRT_ = 0x0000000000315520 + __sdk_start;
_ZN2nn3mii6detail12StoreDataRaw15SetEyebrowColorEi = 0x00000000001a8634 + __sdk_start;
_ZN2nn2vi28GetDisplayVsyncEventForDebugEPNS_2os15SystemEventTypeEPNS0_7DisplayE = 0x00000000001bcc70 + __sdk_start;
_ZN2nn2os6detail36MultiWaitHolderOfMessageQueueNotFull15AddToObjectListEv = 0x000000000008c660 + __sdk_start;
NvRmFenceWait = 0x000000000025576c + __sdk_start;
_ZN2nn2fs6detail8IdString8ToStringINS0_11ContentTypeEEEPKcT_ = 0x00000000000458fc + __sdk_start;
_ZTIN2nn2sf6detail39ObjectImplFactoryWithStatelessAllocatorINS0_4cmif6client16CmifProxyFactoryINS_7account4baas28IFloatingRegistrationRequestENS4_15CmifDomainProxyINS0_4hipc6client38Hipc2ClientSessionManagedProxyKindBaseINSB_18Hipc2ProxyKindBaseILNSA_6detail11MessageTypeE4EEEEEEENS0_25StatelessAllocationPolicyINS0_22ExpHeapStaticAllocatorILm2048ENS6_6detail12ObjectHolder24ObjectHolderAllocatorTagEEEEEE13ServiceObjectESP_E6ObjectE = 0x00000000008d2da0 + __sdk_start;
_ZN2nn5audio23StopFinalOutputRecorderEPNS0_19FinalOutputRecorderE = 0x0000000000186e48 + __sdk_start;
_ZN2nn2fs10SubStorageD0Ev = 0x000000000004833c + __sdk_start;
_ZNSt3__17codecvtIDic11__mbstate_tED2Ev = 0x0000000000312764 + __sdk_start;
_ZN2nn4pctl18PairingAccountInfoD1Ev = 0x0000000000151378 + __sdk_start;
_ZN7android17HOSServiceManager18removeServiceProxyERKNS_7String8E = 0x0000000000284694 + __sdk_start;
_ZNKSt3__114__codecvt_utf8IDiE6do_outER11__mbstate_tPKDiS5_RS5_PcS7_RS7_ = 0x0000000000335e60 + __sdk_start;
_ZN7android16SortedVectorImplD0Ev = 0x00000000002b3fb8 + __sdk_start;
nninitInitializeSdkModule = 0x0000000000068624 + __sdk_start;
_ZN2nn5swkbd6detail18InlineKeyboardImplD2Ev = 0x00000000001b59b8 + __sdk_start;
_ZN2nn5audio17MemoryPoolManagerC2EPNS0_14MemoryPoolInfoEi = 0x00000000001773f8 + __sdk_start;
_ZNK2nn3mii6detail11CoreDataRaw16GetFacelineColorEv = 0x00000000001a4534 + __sdk_start;
_ZN2nn5audio27GetAudioInBufferDataPointerEPKNS0_13AudioInBufferE = 0x0000000000186148 + __sdk_start;
check_scale = 0x00000000001f77b8 + __sdk_start;
_ZN2nn4lmem6detail15CreateFrameHeapEPvmi = 0x000000000006a270 + __sdk_start;
_ZN2nn2os11SetHostArgcEi = 0x0000000000086228 + __sdk_start;
_ZN2nn8settings6system44SetUserSystemClockAutomaticCorrectionEnabledEb = 0x000000000015af14 + __sdk_start;
__powixf2 = 0x0000000000383a78 + __sdk_start;
_ZNK7android6Parcel24readParcelFileDescriptorERi = 0x0000000000281904 + __sdk_start;
llabs = 0x00000000003bdb70 + __sdk_start;
_ZN2nn2sf4hipc6client24Hipc2ClientCoreProcessorILNS1_6detail11MessageTypeE4ENS0_4cmif6detail14CoreMethodInfoINSt3__15tupleIJNS7_17InRawArgumentInfoILm8ELm4ELl0EEENSB_ILm4ELm4ELl8EEEEEELm12ELm0ELb0EEESE_E7ProcessEPNS2_26Hipc2ClientProxyBaseObjectENS6_6client23InRawClientArgumentTypeILm8ELm4EvEENSK_ILm4ELm4EvEEj = 0x00000000001663b4 + __sdk_start;
_ZN2nn2sf4cmif6client6detail13CmifProxyImplINS_7account7profile8IProfileENS2_15CmifDomainProxyINS0_4hipc6client38Hipc2ClientSessionManagedProxyKindBaseINSA_18Hipc2ProxyKindBaseILNS9_6detail11MessageTypeE4EEEEEEENS0_25StatelessAllocationPolicyINS0_22ExpHeapStaticAllocatorILm2048ENS5_6detail12ObjectHolder24ObjectHolderAllocatorTagEEEEENS6_14IProfileEditorEE15_nn_sf_sync_GetENS0_3OutINS6_11ProfileBaseEvEENSR_INS6_8UserDataEvEE = 0x00000000000b2aec + __sdk_start;
extract_outline = 0x00000000001ecd0c + __sdk_start;
_ZN2nn7nlibsdk4heap12TlsHeapCache14FreeFunc_Mode0INSt3__117integral_constantIbLb1EEEEEiPS2_Pv = 0x000000000007c804 + __sdk_start;
_ZNSt3__120__threads_data_queue12release_nodeEPNS_21__horizon_thread_dataE = 0x0000000000306a80 + __sdk_start;
silk_CNG_Reset = 0x00000000000e5d78 + __sdk_start;
_ZNK2nn3mii6detail12StoreDataRaw16GetFacelineColorEv = 0x00000000001a80b8 + __sdk_start;
_ZNK7android6Region5beginEv = 0x00000000002ac004 + __sdk_start;
_ZN2nn2fs10SubStorage7SetSizeEl = 0x00000000000484b8 + __sdk_start;
_ZN2nn4nifm24GetCurrentNetworkProfileEPNS0_18NetworkProfileDataE = 0x000000000014945c + __sdk_start;
_ZN2nn4pctl20CancelNetworkRequestEv = 0x0000000000151300 + __sdk_start;
_ZN2nn2sf4cmif6client34CmifDomainProxyClientCoreProcessorINS0_4hipc6client38Hipc2ClientSessionManagedProxyKindBaseINS5_18Hipc2ProxyKindBaseILNS4_6detail11MessageTypeE4EEEEENS1_6detail14CoreMethodInfoINSt3__15tupleIJNSC_17InRawArgumentInfoILm56ELm8ELl0EEENSC_18BufferArgumentInfoILi0ELi25ELm128EEENSI_ILi1ELi5ELm0EEEEEELm56ELm0ELb0EEESL_E7ProcessEPNS2_23CmifDomainClientMessageISB_E15ProxyBaseObjectENS2_23InRawClientArgumentTypeILm56ELm8EvEENS2_24BufferClientArgumentTypeESU_j = 0x00000000000b2db4 + __sdk_start;
_ZN2nn2sf4hipc6client24Hipc2ClientCoreProcessorILNS1_6detail11MessageTypeE4ENS0_4cmif6detail14CoreMethodInfoINSt3__15tupleIJNS7_17InRawArgumentInfoILm8ELm8ELl24EEENSB_ILm4ELm4ELl0EEENSB_ILm16ELm4ELl4EEEEEELm32ELm0ELb1EEESF_E7ProcessEPNS2_26Hipc2ClientProxyBaseObjectENS6_6client23InRawClientArgumentTypeILm8ELm8EvEENSL_ILm4ELm4EvEENSL_ILm16ELm4EvEEj = 0x000000000021b848 + __sdk_start;
_ZTSSt9bad_alloc = 0x00000000007b7258 + __sdk_start;
_ZN2nn2sf4cmif6client6detail13CmifProxyImplINS_2am7service18IAppletProxyCommonENS2_15CmifDomainProxyINS0_4hipc6client38Hipc2ClientSessionManagedProxyKindBaseINSA_18Hipc2ProxyKindBaseILNS9_6detail11MessageTypeE4EEEEEEENS0_30MemoryResourceAllocationPolicyENS6_17IApplicationProxyEE29_nn_sf_sync_GetDebugFunctionsENS0_3OutINS0_13SharedPointerINS6_15IDebugFunctionsEEEvEE = 0x00000000000c5358 + __sdk_start;
_ZNSt3__113basic_istreamIwNS_11char_traitsIwEEE4peekEv = 0x000000000030ccf4 + __sdk_start;
_ZN2nn8settings6detail16CopySettingsNameEPNS0_12SettingsNameEPKc = 0x0000000000160650 + __sdk_start;
_ZNSt3__115numpunct_bynameIcED1Ev = 0x0000000000337a0c + __sdk_start;
_ZN2nn5audio13EffectManager6RemoveEPNS0_10EffectInfoEPNS0_7MixInfoE = 0x0000000000176cec + __sdk_start;
_ZN2nn5prepo10PlayReportC1EPKc = 0x000000000015798c + __sdk_start;
_ZN2nn3hid6system35ResetSixAxisSensorCalibrationValuesERKNS1_25UniqueSixAxisSensorHandleE = 0x00000000002167e0 + __sdk_start;
_ZN2nn2sf4cmif6client6detail13CmifProxyImplINS_5visrv2sf22IManagerDisplayServiceENS0_4hipc6client18Hipc2ProxyKindBaseILNS8_6detail11MessageTypeE4EEENS0_30MemoryResourceAllocationPolicyES7_E27_nn_sf_sync_AddToLayerStackEmj = 0x00000000001bac14 + __sdk_start;
nnosInitializeMutex = 0x000000000008a0cc + __sdk_start;
eMeans = 0x000000000075e790 + __sdk_start;
_ZN2nn5audio3dsp16ApplyUniformGainEPiPKiii = 0x000000000019bd1c + __sdk_start;
__udivmodsi4 = 0x00000000003842c4 + __sdk_start;
_ZN2nn7account6detail18OAuthProcedureBase4SwapERS2_ = 0x00000000000aa92c + __sdk_start;
_ZTSN2nn5audio6server10EffectInfoILNS0_10EffectTypeE1ENS0_20BufferMixerParameterEEE = 0x000000000077bc80 + __sdk_start;
_ZNK2nn3mii6detail16Ver3StoreDataRaw13GetBeardScaleEv = 0x00000000001abc3c + __sdk_start;
_ZTSN2nn2sf4cmif6client6detail13CmifProxyImplINS_7account6detail13IAsyncContextENS2_15CmifDomainProxyINS0_4hipc6client38Hipc2ClientSessionManagedProxyKindBaseINSA_18Hipc2ProxyKindBaseILNS9_6detail11MessageTypeE4EEEEEEENS0_30MemoryResourceAllocationPolicyES7_EE = 0x000000000074f0f0 + __sdk_start;
_ZN7android10HeapObjectdlEPv = 0x00000000002ae824 + __sdk_start;
_ZN2nn2vi6detail22ServiceReferenceHolder21GetIndirectLayerTableEPPNS1_18IndirectLayerTableE = 0x00000000001bf0ac + __sdk_start;
__ashldi3 = 0x000000000037e520 + __sdk_start;
_ZN2nn3hid14KeyboardLayout6GermanE = 0x0000000000790bbc + __sdk_start;
_ZN7android12ConsumerBaseD2Ev = 0x0000000000293acc + __sdk_start;
nnmem_nlib_wcsnlen = 0x000000000006e3a0 + __sdk_start;
_ZN2nn3hid6detail19GetTouchScreenStateILm14EEENS_6ResultEPNS0_16TouchScreenStateIXT_EEE = 0x000000000020ae04 + __sdk_start;
silk_NLSF_unpack = 0x00000000000e8604 + __sdk_start;
_ZTSN2nn8irsensor15IIrSensorServerE = 0x0000000000798b10 + __sdk_start;
quant_all_bands = 0x00000000000d0d80 + __sdk_start;
_ZN2nn2sf13SharedPointerINS_2ro6detail12IRoInterfaceEED2Ev = 0x0000000000090d24 + __sdk_start;
_ZTSN2nn2am7service21ILibraryAppletCreatorE = 0x0000000000754c00 + __sdk_start;
fflush_unlocked = 0x00000000003b9e28 + __sdk_start;
nnosGetCurrentProcessorNumber = 0x000000000008a068 + __sdk_start;
_ZTSN2nn2sf4cmif6client6detail13CmifProxyImplINS_7account29IAccountServiceForApplicationENS2_15CmifDomainProxyINS0_4hipc6client38Hipc2ClientSessionManagedProxyKindBaseINS9_18Hipc2ProxyKindBaseILNS8_6detail11MessageTypeE4EEEEEEENS0_25StatelessAllocationPolicyINS0_22ExpHeapStaticAllocatorILm2048ENS5_6detail12ObjectHolder24ObjectHolderAllocatorTagEEEEES6_EE = 0x0000000000746ff0 + __sdk_start;
memalign = 0x00000000003c4898 + __sdk_start;
_ZN2nn3hid5debug27UnsetKeyboardAutoPilotStateEv = 0x0000000000211e68 + __sdk_start;
_ZN7android10VectorImpl5clearEv = 0x00000000002b3d0c + __sdk_start;
hdestroy_r = 0x00000000003b8f40 + __sdk_start;
_ZN2nn2sf4hipc6client28Hipc2ClientCoreProcessorImpl19GetOutNativeHandlesEPNS1_6detail17HipcMessageReaderEiiPNS0_12NativeHandleEPKi = 0x000000000005a7a4 + __sdk_start;
_ZTSN2nn2sf4cmif6client16CmifProxyFactoryINS_7account3nas40IOAuthProcedureForNintendoAccountLinkageENS2_15CmifDomainProxyINS0_4hipc6client38Hipc2ClientSessionManagedProxyKindBaseINS9_18Hipc2ProxyKindBaseILNS8_6detail11MessageTypeE4EEEEEEENS0_25StatelessAllocationPolicyINS0_22ExpHeapStaticAllocatorILm2048ENS4_6detail12ObjectHolder24ObjectHolderAllocatorTagEEEEEE13ServiceObjectE = 0x000000000074cdc0 + __sdk_start;
_ZN2nn3nfp13StartRestorerEPNS0_7TagInfoEPNS0_12DeviceHandleERKNS0_24AmiiboSettingsStartParamE = 0x000000000012f188 + __sdk_start;
_ZN2nn2sf4cmif6client6detail13CmifProxyImplINS_2am7service18IAppletProxyCommonENS2_15CmifDomainProxyINS0_4hipc6client38Hipc2ClientSessionManagedProxyKindBaseINSA_18Hipc2ProxyKindBaseILNS9_6detail11MessageTypeE4EEEEEEENS0_30MemoryResourceAllocationPolicyENS6_17IApplicationProxyEE17GetCmifBaseObjectEv = 0x00000000000c55a8 + __sdk_start;
_ZN2nn2vi23GetDisplayContrastRatioEPfPKNS0_7DisplayE = 0x00000000001b6fb0 + __sdk_start;
_ZN2nn5audio6common30DumpCommandStructSizeAndAlignsEv = 0x0000000000193de0 + __sdk_start;
_ZTSN2nn2sf4cmif6client16CmifProxyFactoryINS_4pctl6detail3ipc23IParentalControlServiceENS2_15CmifDomainProxyINS0_4hipc6client38Hipc2ClientSessionManagedProxyKindBaseINSA_18Hipc2ProxyKindBaseILNS9_6detail11MessageTypeE4EEEEEEENS0_30MemoryResourceAllocationPolicyEE13ServiceObjectE = 0x000000000076e150 + __sdk_start;
_ZN2nn2sf4cmif6client6detail13CmifProxyImplINS_8irsensor15IIrSensorServerENS0_4hipc6client18Hipc2ProxyKindBaseILNS7_6detail11MessageTypeE4EEENS0_25StatelessAllocationPolicyINS0_22ExpHeapStaticAllocatorILm16384ENS5_6detail14IrSensorServerEEEEES6_E33_nn_sf_sync_GetNpadIrCameraHandleENS0_3OutINS5_14IrCameraHandleEvEEj = 0x00000000002224fc + __sdk_start;
_ZTSNSt3__110ctype_baseE = 0x00000000007b3f80 + __sdk_start;
nnsocketFinalize = 0x000000000009a83c + __sdk_start;
_ZN2nn7account24GetProfileUpdateNotifierEPNS0_8NotifierE = 0x00000000000ac488 + __sdk_start;
_ZN2nn2sf4cmif6client6detail13CmifProxyImplINS_3hid16IHidSystemServerENS0_4hipc6client18Hipc2ProxyKindBaseILNS7_6detail11MessageTypeE4EEENS0_25StatelessAllocationPolicyINS0_22ExpHeapStaticAllocatorILm16384ENS5_6detail15HidSystemServerEEEEES6_E44_nn_sf_sync_EnableAssigningSingleOnSlSrPressENS_6applet20AppletResourceUserIdE = 0x000000000021c42c + __sdk_start;
_ZN2nn6socket8resolver10serializer19FreeHostentContentsER7hostent = 0x00000000000a8b64 + __sdk_start;
_ZN2nn2sf4cmif6client34CmifDomainProxyClientCoreProcessorINS0_4hipc6client38Hipc2ClientSessionManagedProxyKindBaseINS5_18Hipc2ProxyKindBaseILNS4_6detail11MessageTypeE4EEEEENS1_6detail14CoreMethodInfoINSt3__15tupleIJNSC_18OutRawArgumentInfoILm4ELm4ELl0EEENSG_ILm4ELm4ELl4EEENSC_17InRawArgumentInfoILm66ELm2ELl0EEEEEELm66ELm8ELb0EEESL_E7ProcessEPNS2_23CmifDomainClientMessageISB_E15ProxyBaseObjectENS2_24OutRawClientArgumentTypeILm4ELm4EEEST_NS2_23InRawClientArgumentTypeILm66ELm2EvEEj = 0x0000000000124d98 + __sdk_start;
_ZTIN2nn5prepo6detail3ipc13IPrepoServiceE = 0x00000000008df370 + __sdk_start;
_ZNK2nn5audio6server10PoolMapper3MapEjNS0_7CpuAddrEm = 0x000000000018f8fc + __sdk_start;
pthread_once = 0x000000000038a088 + __sdk_start;
silk_encode_indices = 0x00000000000f1118 + __sdk_start;
_ZN2nn5audio3dsp7MailBox4OpenEib = 0x0000000000196578 + __sdk_start;
_ZTSN2nn2sf4cmif6client6detail13CmifProxyImplINS_2am7service21IStackableAppletProxyENS2_15CmifDomainProxyINS0_4hipc6client38Hipc2ClientSessionManagedProxyKindBaseINSA_18Hipc2ProxyKindBaseILNS9_6detail11MessageTypeE4EEEEEEENS0_30MemoryResourceAllocationPolicyENS6_18ISystemAppletProxyEEE = 0x000000000074fd10 + __sdk_start;
_ZN2nn4nifm33StartHandlingNetworkRequestResultERKNS_6applet19LibraryAppletHandleEPv = 0x0000000000148eac + __sdk_start;
silk_stereo_decode_mid_only = 0x00000000000f4fb0 + __sdk_start;
_ZTIN2nn3nfc6detail7ISystemE = 0x00000000008dc9a0 + __sdk_start;
_ZNSt3__118__time_get_storageIwEC1ERKNS_12basic_stringIcNS_11char_traitsIcEENS_9allocatorIcEEEE = 0x0000000000323108 + __sdk_start;
_ZN2nn5audio30UnregisterAppletResourceUserIdENS_6applet20AppletResourceUserIdE = 0x000000000017d9c0 + __sdk_start;
mbsnrtowcs = 0x00000000003b0438 + __sdk_start;
nvdcQueryDisplayEdid = 0x000000000023a620 + __sdk_start;
_ZN2nn5audio20GetSplitterMixVolumeEPKNS0_12SplitterTypeEiPKNS0_7MixInfoEii = 0x0000000000178948 + __sdk_start;
_ZTSN2nn5visrv2sf22IManagerDisplayServiceE = 0x000000000078d000 + __sdk_start;
_ZN2nn2sf4cmif6client6detail13CmifProxyImplINS_7friends6detail3ipc14IFriendServiceENS2_15CmifDomainProxyINS0_4hipc6client38Hipc2ClientSessionManagedProxyKindBaseINSB_18Hipc2ProxyKindBaseILNSA_6detail11MessageTypeE4EEEEEEENS0_30MemoryResourceAllocationPolicyES8_E61_nn_sf_sync_SendFriendRequestWithExternalApplicationCatalogIdERKNS_7account3UidENSL_23NetworkServiceAccountIdEiRKNS5_28ExternalApplicationCatalogIdERKNS5_15InAppScreenNameESV_ = 0x000000000011a798 + __sdk_start;
_ZN2nn5swkbd6detail18InlineKeyboardImpl13CalcMovedTab_ENS_6applet13StorageHandleEm = 0x00000000001b68e4 + __sdk_start;
__nnmusl_init_dso = 0x00000000003c5060 + __sdk_start;
_ZTSN2nn5visrv2sf18ISystemRootServiceE = 0x000000000078d430 + __sdk_start;
_ZN2nn2sf4cmif6client6detail13CmifProxyImplINS_2am7service15IAppletAccessorENS2_15CmifDomainProxyINS0_4hipc6client38Hipc2ClientSessionManagedProxyKindBaseINSA_18Hipc2ProxyKindBaseILNS9_6detail11MessageTypeE4EEEEEEENS0_30MemoryResourceAllocationPolicyES7_E12GetProxyInfoEv = 0x00000000000c0b88 + __sdk_start;
_ZN2nn6socket6detail15DuplicateSocketEim = 0x000000000009e0c0 + __sdk_start;
_ZN2nn4bcat27UnmountDeliveryCacheStorageEv = 0x00000000000cbc70 + __sdk_start;
_ZN2nn6socket9InetNtohsEt = 0x000000000009a638 + __sdk_start;
fstat = 0x00000000003881e4 + __sdk_start;
_ZN2nn2sf13SharedPointerINS_7timesrv6detail7service14IStaticServiceEED2Ev = 0x000000000016d23c + __sdk_start;
_ZN2nn3hid29SetNpadHandheldActivationModeENS0_26NpadHandheldActivationModeE = 0x00000000002144e0 + __sdk_start;
_ZN2nn5swkbd14InlineKeyboard25GetRequiredWorkBufferSizeEv = 0x00000000001b5518 + __sdk_start;
_ZNSt3__112basic_stringIcNS_11char_traitsIcEENS_9allocatorIcEEE7replaceEmmPKc = 0x0000000000340a20 + __sdk_start;
NvOsFopen = 0x000000000023e578 + __sdk_start;
_ZN2nn3nfp10InitializeEv = 0x000000000012e4e0 + __sdk_start;
silk_shell_code_table0 = 0x000000000075f977 + __sdk_start;
_ZNSt3__115__thread_structD1Ev = 0x0000000000349254 + __sdk_start;
silk_shell_code_table1 = 0x000000000075fa0f + __sdk_start;
_ZN2nn5audio8SinkInfo13InputCountMaxE = 0x000000000077422c + __sdk_start;
silk_shell_code_table2 = 0x000000000075faa7 + __sdk_start;
_ZN2nn2sf4hipc6client24Hipc2ClientCoreProcessorILNS1_6detail11MessageTypeE4ENS0_4cmif6detail14CoreMethodInfoINSt3__15tupleIJNS7_17InRawArgumentInfoILm8ELm8ELl8EEENSB_ILm4ELm4ELl0EEENSB_ILm24ELm8ELl16EEENS7_20InHandleArgumentInfoILi0ELi1EEENSB_ILm8ELm8ELl40EEEEEELm48ELm0ELb1EEESI_E7ProcessEPNS2_26Hipc2ClientProxyBaseObjectENS6_6client23InRawClientArgumentTypeILm8ELm8EvEENSO_ILm4ELm4EvEENSO_ILm24ELm8EvEENSN_26InHandleClientArgumentTypeESP_j = 0x0000000000222800 + __sdk_start;
silk_shell_code_table3 = 0x000000000075fb3f + __sdk_start;
_ZN2nn2sf4cmif6client6detail13CmifProxyImplINS_3ssl2sf14ISslConnectionENS2_15CmifDomainProxyINS0_4hipc6client38Hipc2ClientSessionManagedProxyKindBaseINSA_18Hipc2ProxyKindBaseILNS9_6detail11MessageTypeE4EEEEEEENS0_24StatefulAllocationPolicyINS0_16ExpHeapAllocatorEEES7_E31_nn_sf_sync_GetSocketDescriptorENS0_3OutIivEE = 0x000000000016b928 + __sdk_start;
_ZTIN2nn2am7service24IApplicationProxyServiceE = 0x00000000008d8e00 + __sdk_start;
_ZN2nn5audio16DelayLineNextOutEPNS0_11FXDelayLineE = 0x000000000017b074 + __sdk_start;
_ZN7android6Parcel13continueWriteEm = 0x000000000027ea80 + __sdk_start;
_ZTIN2nn2sf4cmif6client6detail9CmifProxyINS_8settings15ISettingsServerENS0_4hipc6client18Hipc2ProxyKindBaseILNS7_6detail11MessageTypeE4EEENS0_25StatelessAllocationPolicyINS0_22ExpHeapStaticAllocatorILm16384ES6_EEEEvEE = 0x00000000008dfae0 + __sdk_start;
ftrylockfile = 0x0000000000388738 + __sdk_start;
_ZN2nn2fs24HierarchicalRomFileTable8FindOpenEPNS1_12FindPositionERKNS1_8EntryKeyE = 0x00000000000472d4 + __sdk_start;
NvRmGpuRegOpsSessionSetHwpmContextSwitchMode = 0x0000000000267f34 + __sdk_start;
_ZTIN2nn2sf4cmif6client6detail9CmifProxyINS_7timesrv6detail7service12ISteadyClockENS2_15CmifDomainProxyINS0_4hipc6client38Hipc2ClientSessionManagedProxyKindBaseINSB_18Hipc2ProxyKindBaseILNSA_6detail11MessageTypeE4EEEEEEENS0_25StatelessAllocationPolicyINS0_22ExpHeapStaticAllocatorILm16384ENS_4time6detail7service21ServiceProviderClient30CreateTimeUserServiceObjectTagEEEEEvEE = 0x00000000008e0a40 + __sdk_start;
_ZNSt3__116__narrow_to_utf8ILm16EED0Ev = 0x000000000033792c + __sdk_start;
__udivmoddi4 = 0x0000000000384050 + __sdk_start;
_ZN2nn8irsensor6detail13StatusManager22GetIrSensorAruidStatusEPNS_4util10BitFlagSetILi32ENS1_16AppletStatusFlagEEERKNS_6applet20AppletResourceUserIdE = 0x000000000021fba0 + __sdk_start;
_ZN2nn3i2c7ReceiveEPvRKNS0_10I2cSessionEmNS0_17TransactionOptionE = 0x00000000002f51f8 + __sdk_start;
_ZTVN10__cxxabiv117__class_type_infoE = 0x00000000009087d8 + __sdk_start;
_ZN2nn8settings6detail32CreateFactorySettingsServerProxyEPNS_2sf13SharedPointerINS0_22IFactorySettingsServerEEE = 0x0000000000162024 + __sdk_start;
_ZN2nn2sf4hipc6client24Hipc2ClientCoreProcessorILNS1_6detail11MessageTypeE4ENS0_4cmif6detail14CoreMethodInfoINSt3__15tupleIJNS7_18BufferArgumentInfoILi0ELi10ELm0EEENSB_ILi1ELi10ELm0EEENS7_18OutRawArgumentInfoILm4ELm4ELl0EEENS7_17InRawArgumentInfoILm4ELm4ELl0EEENSG_ILm4ELm4ELl4EEEEEELm8ELm4ELb0EEESJ_E7ProcessEPNS2_26Hipc2ClientProxyBaseObjectENS6_6client24BufferClientArgumentTypeESP_NSO_24OutRawClientArgumentTypeILm4ELm4EEENSO_23InRawClientArgumentTypeILm4ELm4EvEEST_j = 0x00000000002f835c + __sdk_start;
_ZN2nn2sf4cmif6client6detail13CmifProxyImplINS_7account6detail9INotifierENS2_15CmifDomainProxyINS0_4hipc6client38Hipc2ClientSessionManagedProxyKindBaseINSA_18Hipc2ProxyKindBaseILNS9_6detail11MessageTypeE4EEEEEEENS0_25StatelessAllocationPolicyINS0_22ExpHeapStaticAllocatorILm2048ENS6_12ObjectHolder24ObjectHolderAllocatorTagEEEEES7_E17GetCmifBaseObjectEv = 0x00000000000b07e0 + __sdk_start;
_ZN2nn7account49ExternalNetworkServiceAccountIntroducingProcedureaSEOS1_ = 0x00000000000b9da0 + __sdk_start;
_ZN2nn2sf4cmif6client6detail13CmifProxyImplINS_2am7service15IAppletAccessorENS2_15CmifDomainProxyINS0_4hipc6client38Hipc2ClientSessionManagedProxyKindBaseINSA_18Hipc2ProxyKindBaseILNS9_6detail11MessageTypeE4EEEEEEENS0_30MemoryResourceAllocationPolicyENS6_20IApplicationAccessorEE17_nn_sf_sync_StartEv = 0x00000000000c0830 + __sdk_start;
nnosInitialize = 0x000000000008f89c + __sdk_start;
_ZTCNSt3__114basic_iostreamIcNS_11char_traitsIcEEEE0_NS_13basic_istreamIcS2_EE = 0x0000000000904100 + __sdk_start;
__floatscanl = 0x000000000038ace4 + __sdk_start;
_ZN2nn3ssl6detail10SslApiBaseC1Ev = 0x000000000016a878 + __sdk_start;
_ZN2nn5audio29GetSplitterSourceChannelCountEPKNS0_12SplitterTypeE = 0x0000000000178684 + __sdk_start;
_ZNSt3__117__assoc_sub_state9__executeEv = 0x00000000003056e0 + __sdk_start;
strerror_l = 0x00000000003a1428 + __sdk_start;
_ZN2nn2sf6detail38ObjectImplFactoryWithStatefulAllocatorINS0_4cmif6client16CmifProxyFactoryINS_5visrv2sf19IManagerRootServiceENS0_4hipc6client18Hipc2ProxyKindBaseILNS9_6detail11MessageTypeE4EEENS0_30MemoryResourceAllocationPolicyEE13ServiceObjectESF_E6Object12AddReferenceEv = 0x00000000001b8214 + __sdk_start;
_ZN2nn3hid5debug18GetFirmwareVersionEPNS0_6system15FirmwareVersionEjNS_4util10BitFlagSetILi32ENS2_10DeviceTypeEEE = 0x00000000002112c0 + __sdk_start;
_ZN2nn8settings6detail38CreateFirmwareDebugSettingsServerProxyEPNS_2sf13SharedPointerINS0_28IFirmwareDebugSettingsServerEEE = 0x000000000016350c + __sdk_start;
_ZN2nn2fs8IStorage12OperateRangeENS1_11OperationIdEll = 0x0000000000049a7c + __sdk_start;
_ZN2nn2sf4cmif6client34CmifDomainProxyClientCoreProcessorINS0_4hipc6client38Hipc2ClientSessionManagedProxyKindBaseINS5_18Hipc2ProxyKindBaseILNS4_6detail11MessageTypeE4EEEEENS1_6detail14CoreMethodInfoINSt3__15tupleIJNSC_18OutRawArgumentInfoILm16ELm8ELl0EEENSC_17InRawArgumentInfoILm16ELm8ELl0EEEEEELm16ELm16ELb0EEESK_E7ProcessEPNS2_23CmifDomainClientMessageISB_E15ProxyBaseObjectENS2_24OutRawClientArgumentTypeILm16ELm8EEENS2_23InRawClientArgumentTypeILm16ELm8EvEEj = 0x000000000011d504 + __sdk_start;
_ZN2nn3mii6detail11UtilityImpl9GetRandomEi = 0x00000000001a8860 + __sdk_start;
_ZSt17__throw_bad_allocv = 0x000000000033e31c + __sdk_start;
strerror_r = 0x00000000003bfa38 + __sdk_start;
nnsslInitializeWithConcurrencyLimit = 0x000000000016a1fc + __sdk_start;
_ZTSN2nn2sf4cmif6client6detail13CmifProxyImplINS_2am7service21IStackableAppletProxyENS2_15CmifDomainProxyINS0_4hipc6client38Hipc2ClientSessionManagedProxyKindBaseINSA_18Hipc2ProxyKindBaseILNS9_6detail11MessageTypeE4EEEEEEENS0_30MemoryResourceAllocationPolicyENS6_17IApplicationProxyEEE = 0x0000000000757620 + __sdk_start;
_ZNK2nn3mii6detail12StoreDataRaw12GetBeardTypeEv = 0x00000000001a812c + __sdk_start;
_ZN2nn2sf4cmif6client34CmifDomainProxyClientCoreProcessorINS0_4hipc6client38Hipc2ClientSessionManagedProxyKindBaseINS5_18Hipc2ProxyKindBaseILNS4_6detail11MessageTypeE4EEEEENS1_6detail14CoreMethodInfoINSt3__15tupleIJNSC_21OutObjectArgumentInfoILi0ELi0EEENSC_20InHandleArgumentInfoILi0ELi1EEENSC_17InRawArgumentInfoILm4ELm4ELl0EEEEEELm4ELm0ELb0EEESM_E21ProcessWithOutObjectsEPNS2_23CmifDomainClientMessageISB_E15ProxyBaseObjectENS2_27OutObjectClientArgumentTypeENS2_26InHandleClientArgumentTypeENS2_23InRawClientArgumentTypeILm4ELm4EvEEjPNS0_13SharedPointerINS0_14IServiceObjectEEE = 0x00000000000afa50 + __sdk_start;
_ZN2nn3hid16GetGestureStatesEPNS0_12GestureStateEi = 0x0000000000211444 + __sdk_start;
modify_scale = 0x00000000001f7dd4 + __sdk_start;
_ZN2nn3ngc6wcslenEPKDs = 0x0000000000137ad8 + __sdk_start;
_ZNSt3__115basic_streambufIcNS_11char_traitsIcEEE5sputcEc = 0x0000000000307944 + __sdk_start;
_ZNSt3__18ios_base10floatfieldE = 0x00000000007b2ad0 + __sdk_start;
_ZNSt3__18ios_base7unitbufE = 0x00000000007b2ac0 + __sdk_start;
_ZTIN2nn2sf4cmif6client6detail13CmifProxyImplINS_4bcat6detail3ipc25IDeliveryCacheFileServiceENS2_15CmifDomainProxyINS0_4hipc6client38Hipc2ClientSessionManagedProxyKindBaseINSB_18Hipc2ProxyKindBaseILNSA_6detail11MessageTypeE4EEEEEEENS0_30MemoryResourceAllocationPolicyES8_EE = 0x00000000008da640 + __sdk_start;
_ZN2nn5audio6server11InfoUpdaterC2EmmmmjRNS1_12BehaviorInfoE = 0x000000000018d250 + __sdk_start;
_ZN7android22IGraphicBufferConsumer10BufferItemC1Ev = 0x0000000000287234 + __sdk_start;
isalpha_l = 0x000000000039fe80 + __sdk_start;
nnsocketGetHostByName = 0x000000000009a870 + __sdk_start;
NvUAlloc0 = 0x0000000000240480 + __sdk_start;
_ZNSt3__112basic_stringIwNS_11char_traitsIwEENS_9allocatorIwEEE6assignEPKwm = 0x000000000034196c + __sdk_start;
_ZN2nn5audio6server23SplitterDestinationData6UpdateEPKNS0_23SplitterDestinationData11InParameterE = 0x0000000000191424 + __sdk_start;
_ZN2nn7nlibsdk4heap10CachedHeap12FreeWithSizeEPvm = 0x0000000000082c40 + __sdk_start;
_ZTIN2nn2sf6detail39ObjectImplFactoryWithStatelessAllocatorINS0_4cmif6client16CmifProxyFactoryINS_7account7profile8IProfileENS4_15CmifDomainProxyINS0_4hipc6client38Hipc2ClientSessionManagedProxyKindBaseINSB_18Hipc2ProxyKindBaseILNSA_6detail11MessageTypeE4EEEEEEENS0_25StatelessAllocationPolicyINS0_22ExpHeapStaticAllocatorILm2048ENS6_6detail12ObjectHolder24ObjectHolderAllocatorTagEEEEEE13ServiceObjectESP_E6ObjectE = 0x00000000008d1cf0 + __sdk_start;
wcpcpy = 0x00000000003c0858 + __sdk_start;
_ZNK2nn5audio6server15SplitterContext12GetDataCountEv = 0x00000000001917b4 + __sdk_start;
_ZN2nn3ngc15ProfanityFilter28MaskProfanityWordsInTextImplEPiPcS3_PaiPmS5_ = 0x0000000000135a60 + __sdk_start;
_ZTSN2nn2sf6detail38ObjectImplFactoryWithStatefulAllocatorINS0_4cmif6client16CmifProxyFactoryINS_2am7service30IAllSystemAppletProxiesServiceENS4_15CmifDomainProxyINS0_4hipc6client38Hipc2ClientSessionManagedProxyKindBaseINSB_18Hipc2ProxyKindBaseILNSA_6detail11MessageTypeE4EEEEEEENS0_30MemoryResourceAllocationPolicyEE13ServiceObjectESJ_E6ObjectE = 0x000000000074f3c0 + __sdk_start;
_ZN2nn3nfp13StartRestorerEPNS0_12DeviceHandleERKNS0_24AmiiboSettingsStartParamERKNS0_7TagInfoE = 0x000000000012db94 + __sdk_start;
_ZTIN2nn2sf6detail38ObjectImplFactoryWithStatefulAllocatorINS0_4cmif6client16CmifProxyFactoryINS_3pcv17IImmediateManagerENS0_4hipc6client18Hipc2ProxyKindBaseILNS8_6detail11MessageTypeE4EEENS0_30MemoryResourceAllocationPolicyEE13ServiceObjectESE_E6ObjectE = 0x00000000009034e0 + __sdk_start;
_ZN2nn3ssl6detail10SslApiBase10InitializeEv = 0x000000000016a8a0 + __sdk_start;
_ZTIN2nn2sf4cmif6client16CmifProxyFactoryINS_2am7service17IApplicationProxyENS2_15CmifDomainProxyINS0_4hipc6client38Hipc2ClientSessionManagedProxyKindBaseINS9_18Hipc2ProxyKindBaseILNS8_6detail11MessageTypeE4EEEEEEENS0_30MemoryResourceAllocationPolicyEE13ServiceObjectE = 0x00000000008d8b60 + __sdk_start;
_ZN2nn6applet16UnpopToInChannelENS0_23LibraryAppletSelfHandleENS0_13StorageHandleE = 0x00000000000ca39c + __sdk_start;
_ZN2nn2sf4cmif6client6detail13CmifProxyImplINS_3hid16IHidSystemServerENS0_4hipc6client18Hipc2ProxyKindBaseILNS7_6detail11MessageTypeE4EEENS0_25StatelessAllocationPolicyINS0_22ExpHeapStaticAllocatorILm16384ENS5_6detail15HidSystemServerEEEEES6_E42_nn_sf_sync_UnregisterAppletResourceUserIdENS_6applet20AppletResourceUserIdE = 0x000000000021c598 + __sdk_start;
_ZN7android10BufferItemC1Ev = 0x000000000028b238 + __sdk_start;
_ZNK2nn7friends13FriendRequest10GetMiiNameEv = 0x0000000000116c78 + __sdk_start;
srand = 0x00000000003b0ee8 + __sdk_start;
_ZN2nn6applet35OverrideAutoSleepTimeAndDimmingTimeEiiii = 0x00000000000cb7e0 + __sdk_start;
_ZTSN2nn2sf6detail38ObjectImplFactoryWithStatefulAllocatorINS0_4cmif6client16CmifProxyFactoryINS_2am7service26ILibraryAppletSelfAccessorENS4_15CmifDomainProxyINS0_4hipc6client38Hipc2ClientSessionManagedProxyKindBaseINSB_18Hipc2ProxyKindBaseILNSA_6detail11MessageTypeE4EEEEEEENS0_30MemoryResourceAllocationPolicyEE13ServiceObjectESJ_E6ObjectE = 0x00000000007560f0 + __sdk_start;
_ZN2nn5audio18ApplyUniformVolumeEPsPKsfi = 0x000000000017b658 + __sdk_start;
_ZN2nn2fs13MemoryStorage5WriteElPKvm = 0x000000000004aea8 + __sdk_start;
_ZN2nn3mii6detail16Ver3StoreDataRaw12SetFaceColorEi = 0x00000000001aeb6c + __sdk_start;
_ZN2nn4util15RelocationTable10UnrelocateEv = 0x000000000003a798 + __sdk_start;
_ZNSt3__18ios_base3decE = 0x00000000007b2a90 + __sdk_start;
_ZN2nn2sf4cmif6client6detail13CmifProxyImplINS_4bcat6detail3ipc15IServiceCreatorENS2_15CmifDomainProxyINS0_4hipc6client38Hipc2ClientSessionManagedProxyKindBaseINSB_18Hipc2ProxyKindBaseILNSA_6detail11MessageTypeE4EEEEEEENS0_30MemoryResourceAllocationPolicyES8_E12GetProxyInfoEv = 0x00000000000ce67c + __sdk_start;
_ZTSN2nn3ssl2sf14ISslConnectionE = 0x0000000000771550 + __sdk_start;
nnosSignalEvent = 0x000000000008a178 + __sdk_start;
_ZTSN2nn2sf4cmif6client6detail13CmifProxyImplINS_4nifm6detail12IScanRequestENS2_15CmifDomainProxyINS0_4hipc6client38Hipc2ClientSessionManagedProxyKindBaseINSA_18Hipc2ProxyKindBaseILNS9_6detail11MessageTypeE4EEEEEEENS0_25StatelessAllocationPolicyINS0_22ExpHeapStaticAllocatorILm16384ENS6_21ServiceProviderClient30CreateNifmUserServiceObjectTagEEEEES7_EE = 0x000000000076c0b0 + __sdk_start;
_ZN2nn2fs9FlushFileENS0_10FileHandleE = 0x000000000004d5bc + __sdk_start;
_ZN2nn7friends6detail16PresenceAccessor9SearchKeyEPKcS4_m = 0x0000000000110d44 + __sdk_start;
_ZN2nn4bcat6detail25DeliveryCacheProgressImpl20SetWholeDownloadSizeEl = 0x00000000000cba4c + __sdk_start;
_ZTSN2nn3hid6detail7SessionE = 0x000000000078ebb0 + __sdk_start;
nnsocketGetHostByNameWithoutNsdResolveCancel = 0x000000000009a87c + __sdk_start;
_ZN2nn5audio6server24AudioRendererManagerImpl17OpenAudioRendererENS_2sf3OutINS3_13SharedPointerINS0_6detail14IAudioRendererEEEvEERKNS6_30AudioRendererParameterInternalENS3_12NativeHandleESD_mNS_6applet20AppletResourceUserIdE = 0x0000000000188cd0 + __sdk_start;
_ZNKSt3__17num_getIwNS_19istreambuf_iteratorIwNS_11char_traitsIwEEEEE17__do_get_unsignedIyEES4_S4_S4_RNS_8ios_baseERjRT_ = 0x000000000031808c + __sdk_start;
NvRmGpuNvgpuGetGpuCtrlFd = 0x000000000026ba0c + __sdk_start;
_ZN2nn2fs24HierarchicalRomFileTable28DirectoryCountSystemReservedE = 0x000000000073b878 + __sdk_start;
_ZTSSt16nested_exception = 0x00000000007b2640 + __sdk_start;
_ZTIN2nn2sf4cmif6client6detail9CmifProxyINS_2am7service17IApplicationProxyENS2_15CmifDomainProxyINS0_4hipc6client38Hipc2ClientSessionManagedProxyKindBaseINSA_18Hipc2ProxyKindBaseILNS9_6detail11MessageTypeE4EEEEEEENS0_30MemoryResourceAllocationPolicyEvEE = 0x00000000008d8b40 + __sdk_start;
_ZNK7android22IGraphicBufferConsumer10BufferItem7flattenERPvRmRPiS4_ = 0x000000000028737c + __sdk_start;
_ZTSN2nn2sf4cmif6client6detail13CmifProxyImplINS_3ssl2sf11ISslServiceENS2_15CmifDomainProxyINS0_4hipc6client38Hipc2ClientSessionManagedProxyKindBaseINSA_18Hipc2ProxyKindBaseILNS9_6detail11MessageTypeE4EEEEEEENS0_24StatefulAllocationPolicyINS0_16ExpHeapAllocatorEEES7_EE = 0x0000000000770ac0 + __sdk_start;
lgammaf_r = 0x00000000003a8da4 + __sdk_start;
_ZN2nn2sf4cmif6client6detail13CmifProxyImplINS_8settings22IFactorySettingsServerENS0_4hipc6client18Hipc2ProxyKindBaseILNS7_6detail11MessageTypeE4EEENS0_25StatelessAllocationPolicyINS0_22ExpHeapStaticAllocatorILm16384ES6_EEEES6_E31_nn_sf_sync_GetEticketDeviceKeyENS0_3OutINS5_7factory16Rsa2048DeviceKeyEvEE = 0x00000000001624d0 + __sdk_start;
_ZThn32_N2nn2sf4cmif6client6detail13CmifProxyImplINS_7account4http15IOAuthProcedureENS2_15CmifDomainProxyINS0_4hipc6client38Hipc2ClientSessionManagedProxyKindBaseINSA_18Hipc2ProxyKindBaseILNS9_6detail11MessageTypeE4EEEEEEENS0_25StatelessAllocationPolicyINS0_22ExpHeapStaticAllocatorILm2048ENS5_6detail12ObjectHolder24ObjectHolderAllocatorTagEEEEES7_E17GetCmifBaseObjectEv = 0x00000000000b5354 + __sdk_start;
_ZN2nn8settings6detail29CreateSettingsItemKeyIteratorEPNS0_5fwdbg23SettingsItemKeyIteratorEPKc = 0x0000000000160944 + __sdk_start;
_ZNK2nn3mii6detail16Ver3StoreDataRaw11GetEyeScaleEv = 0x00000000001ab060 + __sdk_start;
_ZNK2nn4bcat21DeliveryCacheProgress18GetCurrentFileNameEv = 0x00000000000cd510 + __sdk_start;
_ZTSN2nn2sf4cmif6client6detail9CmifProxyINS_3hid26IActiveVibrationDeviceListENS0_4hipc6client18Hipc2ProxyKindBaseILNS7_6detail11MessageTypeE4EEENS0_25StatelessAllocationPolicyINS0_22ExpHeapStaticAllocatorILm16384ENS5_6detail9HidServerEEEEEvEE = 0x00000000007978c0 + __sdk_start;
_ZN2nn2sf4cmif6client6detail13CmifProxyImplINS_8settings21ISystemSettingsServerENS0_4hipc6client18Hipc2ProxyKindBaseILNS7_6detail11MessageTypeE4EEENS0_25StatelessAllocationPolicyINS0_22ExpHeapStaticAllocatorILm16384ES6_EEEES6_E25_nn_sf_sync_GetLdnChannelENS0_3OutIivEE = 0x00000000001653f4 + __sdk_start;
_ZN2nn8irsensor6detail13StatusManager22AllocateTeraPluginLifoERKNS0_14IrCameraHandleE = 0x000000000021feb8 + __sdk_start;
_ZTVN2nn2sf6detail38ObjectImplFactoryWithStatefulAllocatorINS0_4cmif6client16CmifProxyFactoryINS_2am7service30IAllSystemAppletProxiesServiceENS4_15CmifDomainProxyINS0_4hipc6client38Hipc2ClientSessionManagedProxyKindBaseINSB_18Hipc2ProxyKindBaseILNSA_6detail11MessageTypeE4EEEEEEENS0_30MemoryResourceAllocationPolicyEE13ServiceObjectESJ_E6ObjectE = 0x00000000008d62c0 + __sdk_start;
strftime = 0x000000000038abe0 + __sdk_start;
_ZTSN2nn2sf6detail39ObjectImplFactoryWithStatelessAllocatorINS0_4cmif6client16CmifProxyFactoryINS_7timesrv6detail7service12ISystemClockENS4_15CmifDomainProxyINS0_4hipc6client38Hipc2ClientSessionManagedProxyKindBaseINSC_18Hipc2ProxyKindBaseILNSB_6detail11MessageTypeE4EEEEEEENS0_25StatelessAllocationPolicyINS0_22ExpHeapStaticAllocatorILm16384ENS_4time6detail7service21ServiceProviderClient30CreateTimeUserServiceObjectTagEEEEEE13ServiceObjectESS_E6ObjectE = 0x0000000000771e50 + __sdk_start;
nndetailDiagAbortFormatImpl = 0x00000000000432e4 + __sdk_start;
_ZTSN2nn2sf4cmif6client6detail13CmifProxyImplINS_7timesrv6detail7service12ISystemClockENS2_15CmifDomainProxyINS0_4hipc6client38Hipc2ClientSessionManagedProxyKindBaseINSB_18Hipc2ProxyKindBaseILNSA_6detail11MessageTypeE4EEEEEEENS0_25StatelessAllocationPolicyINS0_22ExpHeapStaticAllocatorILm16384ENS_4time6detail7service21ServiceProviderClient30CreateTimeUserServiceObjectTagEEEEES8_EE = 0x0000000000772330 + __sdk_start;
_ZN2nn3ngc6detail3Bp_C1EPNS1_16WorkBufAllocatorE = 0x000000000013ab1c + __sdk_start;
_ZNSt3__127__num_get_unsigned_integralItEET_PKcS3_Rji = 0x000000000033cef0 + __sdk_start;
_ZN2nn2sf4cmif6client34CmifDomainProxyClientCoreProcessorINS0_4hipc6client38Hipc2ClientSessionManagedProxyKindBaseINS5_18Hipc2ProxyKindBaseILNS4_6detail11MessageTypeE4EEEEENS1_6detail14CoreMethodInfoINSt3__15tupleIJNSC_17InRawArgumentInfoILm16ELm8ELl0EEENSG_ILm8ELm8ELl16EEEEEELm24ELm0ELb0EEESJ_E7ProcessEPNS2_23CmifDomainClientMessageISB_E15ProxyBaseObjectENS2_23InRawClientArgumentTypeILm16ELm8EvEENSQ_ILm8ELm8EvEEj = 0x00000000000b16bc + __sdk_start;
_ZTIN2nn2sf4cmif6client16CmifProxyFactoryINS_2am7service17IOverlayFunctionsENS2_15CmifDomainProxyINS0_4hipc6client38Hipc2ClientSessionManagedProxyKindBaseINS9_18Hipc2ProxyKindBaseILNS8_6detail11MessageTypeE4EEEEEEENS0_30MemoryResourceAllocationPolicyEE13ServiceObjectE = 0x00000000008d89a0 + __sdk_start;
_ZNSt3__113basic_ostreamIcNS_11char_traitsIcEEElsEPKv = 0x000000000030ee1c + __sdk_start;
_ZN7android7RefBase20onIncStrongAttemptedEjPKv = 0x00000000002ae858 + __sdk_start;
_ZN2nn2sf4hipc6client24Hipc2ClientCoreProcessorILNS1_6detail11MessageTypeE4ENS0_4cmif6detail14CoreMethodInfoINSt3__15tupleIJNS7_18BufferArgumentInfoILi0ELi25ELm72EEENSB_ILi1ELi25ELm72EEEEEELm0ELm0ELb0EEESE_E7ProcessEPNS2_26Hipc2ClientProxyBaseObjectENS6_6client24BufferClientArgumentTypeESK_j = 0x0000000000163a28 + __sdk_start;
_ZNK2nn2sf4cmif6server22CmifDomainServerObject23CmifDomainServerMessage18GetInNativeHandlesEPNS0_12NativeHandleE = 0x0000000000097e54 + __sdk_start;
NvRmChannelSetModuleClockRate = 0x0000000000255c30 + __sdk_start;
_ZN2nn4lmem6detail12CheckExpHeapEPNS1_8HeapHeadEj = 0x0000000000069cd0 + __sdk_start;
_ZN2nn2sf4hipc6client24Hipc2ClientCoreProcessorILNS1_6detail11MessageTypeE4ENS0_4cmif6detail14CoreMethodInfoINSt3__15tupleIJNS7_17InRawArgumentInfoILm8ELm4ELl0EEEEEELm8ELm0ELb0EEESD_E7ProcessEPNS2_26Hipc2ClientProxyBaseObjectENS6_6client23InRawClientArgumentTypeILm8ELm4EvEEj = 0x0000000000166f7c + __sdk_start;
_ZNK2nn4util6detail16IntrusiveDicImpl8FindIterEv = 0x000000000003baa0 + __sdk_start;
__floatuntisf = 0x0000000000381c70 + __sdk_start;
_ZN2nn5image6detail4jpeg15jpeg_idct_13x13EPNS2_22jpeg_decompress_structEPNS2_19jpeg_component_infoEPsPPhi = 0x0000000000025c78 + __sdk_start;
_ZN2nn4util10BitFlagSetILi256ENS_3hid11KeyboardKeyEE4FlagILi51EE4MaskE = 0x00000000007900f8 + __sdk_start;
strndup = 0x0000000000397944 + __sdk_start;
_ZN2nn7account31NintendoAccountLinkageProcedureC2Ev = 0x00000000000b99fc + __sdk_start;
_ZNSt3__112strstreambufC2EPclS1_ = 0x0000000000347790 + __sdk_start;
_ZN2nn3hid6detail20GetTouchScreenStatesILm10EEENS_6ResultEPiPNS0_16TouchScreenStateIXT_EEEi = 0x000000000020b970 + __sdk_start;
_ZN2nn2sf4impl6detail17ImplTemplateBaseTINS_5audio6detail21IAudioRendererManagerES6_NS0_6detail27UnmanagedEmplacedImplHolderINS4_6server24AudioRendererManagerImplEEESB_S6_ED2Ev = 0x0000000000193e78 + __sdk_start;
_ZTSNSt3__115messages_bynameIcEE = 0x00000000007b4dd0 + __sdk_start;
_ZN2nn3svc7aarch644lp6419GetDebugThreadParamEPmPjNS0_6HandleEmNS0_16DebugThreadParamE = 0x00000000000aa06c + __sdk_start;
_ZN2nn3hid5debug28SetTouchScreenAutoPilotStateILm3EEEvRKNS1_25TouchScreenAutoPilotStateIXT_EEE = 0x0000000000216180 + __sdk_start;
_ZNSt3__17codecvtIDsc11__mbstate_tED0Ev = 0x0000000000334838 + __sdk_start;
_ZN2nn3mii6detail25CalculateSizeAndAlignment7AddSizeEm = 0x00000000001a20d4 + __sdk_start;
scalbln = 0x00000000003abf60 + __sdk_start;
_ZN2nn3mii6detail11CoreDataRaw7SetEyeYEi = 0x00000000001a5390 + __sdk_start;
_ZN2nn8settings6detail29GetDeviceTimeZoneLocationNameEPNS_4time12LocationNameE = 0x0000000000161748 + __sdk_start;
_ZN2nn8settings6system13SetColorSetIdEi = 0x000000000015cb3c + __sdk_start;
_ZN2nn3mii6detail12StoreDataRaw13SetGlassColorEi = 0x00000000001a8684 + __sdk_start;
_ZN2nn2sf22ExpHeapStaticAllocatorILm16384ENS_8irsensor6detail20IrSensorSystemServerEE8_globalsE = 0x00000000009c5470 + __sdk_start;
_ZN2nn8irsensor6detail20InternalErrorHandlerD1Ev = 0x00000000002203cc + __sdk_start;
_ZN2nn2sf4cmif6client34CmifDomainProxyClientCoreProcessorINS0_4hipc6client38Hipc2ClientSessionManagedProxyKindBaseINS5_18Hipc2ProxyKindBaseILNS4_6detail11MessageTypeE4EEEEENS1_6detail14CoreMethodInfoINSt3__15tupleIJNSC_18BufferArgumentInfoILi0ELi6ELm0EEENSC_17InRawArgumentInfoILm8ELm4ELl0EEENSG_ILi1ELi5ELm0EEEEEELm8ELm0ELb0EEESL_E7ProcessEPNS2_23CmifDomainClientMessageISB_E15ProxyBaseObjectENS2_24BufferClientArgumentTypeENS2_23InRawClientArgumentTypeILm8ELm4EvEESS_j = 0x000000000012cd4c + __sdk_start;
_ZN2nn4nifm6detail34ConvertAccessPointDataToSfFromNifmEPNS1_2sf15AccessPointDataERKNS0_15AccessPointDataE = 0x000000000014ab4c + __sdk_start;
_ZN2nn2sf4cmif6client6detail13CmifProxyImplINS_3hid15IHidDebugServerENS0_4hipc6client18Hipc2ProxyKindBaseILNS7_6detail11MessageTypeE4EEENS0_25StatelessAllocationPolicyINS0_22ExpHeapStaticAllocatorILm16384ENS5_6detail14HidDebugServerEEEEES6_E32_nn_sf_sync_DeactivateHomeButtonEv = 0x0000000000218ce4 + __sdk_start;
_ZN2nn4diag6detail16GetBacktraceImplEPmimm = 0x000000000004435c + __sdk_start;
_ZN2nn3hid6detail10GetXpadIdsEPiPNS0_9JoyXpadIdEi = 0x00000000002003a8 + __sdk_start;
_ZN2nn4nifm7Request6SubmitEv = 0x000000000014a04c + __sdk_start;
_ZN2nn3hid5debug21FinalizeCaptureButtonEv = 0x0000000000210dd0 + __sdk_start;
_ZN2nn2os20GetCurrentCoreNumberEv = 0x0000000000089234 + __sdk_start;
_ZN2nn2oe35BeginBlockingHomeButtonShortPressedEv = 0x000000000014de90 + __sdk_start;
_ZN2nn2sf4cmif6client6detail13CmifProxyImplINS_2am7service20IApplicationAccessorENS2_15CmifDomainProxyINS0_4hipc6client38Hipc2ClientSessionManagedProxyKindBaseINSA_18Hipc2ProxyKindBaseILNS9_6detail11MessageTypeE4EEEEEEENS0_30MemoryResourceAllocationPolicyES7_E40_nn_sf_sync_GetApplicationLaunchPropertyERKNS0_9OutBufferE = 0x00000000000c0a3c + __sdk_start;
_ZN2nn4nifm6detail6Base6416FromBase64StringEPmPvmPKcmNS2_4ModeE = 0x000000000014a52c + __sdk_start;
_ZN2nn2sf4cmif6client6detail13CmifProxyImplINS_7account3nas40IOAuthProcedureForNintendoAccountLinkageENS2_15CmifDomainProxyINS0_4hipc6client38Hipc2ClientSessionManagedProxyKindBaseINSA_18Hipc2ProxyKindBaseILNS9_6detail11MessageTypeE4EEEEEEENS0_25StatelessAllocationPolicyINS0_22ExpHeapStaticAllocatorILm2048ENS5_6detail12ObjectHolder24ObjectHolderAllocatorTagEEEEES7_E43_nn_sf_sync_IsNetworkServiceAccountReplacedENS0_3OutIbvEE = 0x00000000000b44d8 + __sdk_start;
_ZN2nn2sf4cmif6client6detail13CmifProxyImplINS_3hid15IHidDebugServerENS0_4hipc6client18Hipc2ProxyKindBaseILNS7_6detail11MessageTypeE4EEENS0_25StatelessAllocationPolicyINS0_22ExpHeapStaticAllocatorILm16384ENS5_6detail14HidDebugServerEEEEES6_E42_nn_sf_sync_UnsetSleepButtonAutoPilotStateEv = 0x0000000000218d84 + __sdk_start;
_ZNSt9type_infoD1Ev = 0x00000000003779d0 + __sdk_start;
_ZN2nn2sf4hipc6client24Hipc2ClientCoreProcessorILNS1_6detail11MessageTypeE4ENS0_4cmif6detail14CoreMethodInfoINSt3__15tupleIJNS7_18OutRawArgumentInfoILm4ELm4ELl0EEENS7_21OutHandleArgumentInfoILi0ELi1EEENS7_18BufferArgumentInfoILi0ELi33ELm0EEENS7_17InRawArgumentInfoILm4ELm4ELl0EEEEEELm4ELm4ELb0EEESJ_E7ProcessEPNS2_26Hipc2ClientProxyBaseObjectENS6_6client24OutRawClientArgumentTypeILm4ELm4EEENSO_27OutHandleClientArgumentTypeENSO_24BufferClientArgumentTypeENSO_23InRawClientArgumentTypeILm4ELm4EvEEj = 0x00000000001232c8 + __sdk_start;
_ZTVN2nn7account6detail24SimpleOAuthProcedureBaseE = 0x00000000008d1948 + __sdk_start;
_ZN2nn2sf4cmif6client6detail13CmifProxyImplINS_2am7service21IApplicationFunctionsENS2_15CmifDomainProxyINS0_4hipc6client38Hipc2ClientSessionManagedProxyKindBaseINSA_18Hipc2ProxyKindBaseILNS9_6detail11MessageTypeE4EEEEEEENS0_30MemoryResourceAllocationPolicyES7_E53_nn_sf_sync_CreateApplicationAndPushAndRequestToStartENS_3ncm13ApplicationIdENS0_13SharedPointerINS6_8IStorageEEE = 0x00000000000c576c + __sdk_start;
_ZN2nn2sf4cmif6client34CmifDomainProxyClientCoreProcessorINS0_4hipc6client38Hipc2ClientSessionManagedProxyKindBaseINS5_18Hipc2ProxyKindBaseILNS4_6detail11MessageTypeE4EEEEENS1_6detail14CoreMethodInfoINSt3__15tupleIJNSC_17InRawArgumentInfoILm16ELm8ELl0EEEEEELm16ELm0ELb0EEESI_E7ProcessEPNS2_23CmifDomainClientMessageISB_E15ProxyBaseObjectENS2_23InRawClientArgumentTypeILm16ELm8EvEEj = 0x00000000000af908 + __sdk_start;
_ZN2nn7account38ExternalNetworkServiceAccountRegistrar13RegisterAsyncEPNS0_3UidEPNS0_12AsyncContextE = 0x00000000000b7610 + __sdk_start;
_ZN2nn2oe22GetNotificationMessageEv = 0x000000000014ec80 + __sdk_start;
_Znam = 0x000000000033e2d0 + __sdk_start;
_ZNKSt3__110moneypunctIwLb0EE13do_neg_formatEv = 0x0000000000324b84 + __sdk_start;
_ZN2nn4edid6detail17VideoBlockVisitorEPKhmNS0_6cea8618BlockTagEPv = 0x0000000000041178 + __sdk_start;
_ZN2nn4nifm6detail13RequestClient20SetRequirementPresetENS0_17RequirementPresetE = 0x00000000001440ec + __sdk_start;
_ZN2nn3mii6detail24NfpStoreDataExtentionRaw12SetGlassTypeEi = 0x00000000001a68e4 + __sdk_start;
_ZN7android8String16D2Ev = 0x00000000002af118 + __sdk_start;
_ZN2nn5swkbd6detail18InlineKeyboardImpl26SetMovedCursorCallbackUtf8EPFvPKNS0_18MovedCursorArgUtf8EE = 0x00000000001b6ce0 + __sdk_start;
_ZN2nn2sf4cmif6client6detail13CmifProxyImplINS_3hid16IHidSystemServerENS0_4hipc6client18Hipc2ProxyKindBaseILNS7_6detail11MessageTypeE4EEENS0_25StatelessAllocationPolicyINS0_22ExpHeapStaticAllocatorILm16384ENS5_6detail15HidSystemServerEEEEES6_E40_nn_sf_sync_AcquireHomeButtonEventHandleENS0_3OutINS0_12NativeHandleEvEENS_6applet20AppletResourceUserIdE = 0x000000000021c244 + __sdk_start;
_ZN2nn5swkbd18MakePresetUserNameEPNS0_14KeyboardConfigE = 0x00000000001b462c + __sdk_start;
nnutilZlib__length_code = 0x0000000000737f46 + __sdk_start;
_ZN2nn4util17BinaryBlockHeader13FindNextBlockEi = 0x000000000003a490 + __sdk_start;
_Z20hosSetupSystemEventsP10EventAsyncPP13NvOsThreadRecPKci = 0x000000000024a748 + __sdk_start;
__rem_pio2f = 0x00000000003adc50 + __sdk_start;
NvRmSurfaceRead = 0x000000000024bb30 + __sdk_start;
_ZNSt3__18ios_base5truncE = 0x00000000007b2af8 + __sdk_start;
_ZN2nn2vi21CreateBlockingServiceEv = 0x00000000001b7328 + __sdk_start;
_ZN2nn2os17TryWaitTimerEventEPNS0_14TimerEventTypeE = 0x00000000000875d0 + __sdk_start;
_ZNKSt3__114__codecvt_utf8IDiE11do_encodingEv = 0x0000000000335f3c + __sdk_start;
NvDdkVicConfigureTargetSurface = 0x0000000000264290 + __sdk_start;
__rem_pio2l = 0x00000000003add34 + __sdk_start;
fputwc_unlocked = 0x00000000003ba6d8 + __sdk_start;
pthread_attr_getscope = 0x0000000000389f9c + __sdk_start;
_ZN2nn5swkbd25SetRightOptionalSymbolKeyEPNS0_14KeyboardConfigEDs = 0x00000000001b4e30 + __sdk_start;
_ZN2nn2sf4cmif6client34CmifDomainProxyClientCoreProcessorINS0_4hipc6client38Hipc2ClientSessionManagedProxyKindBaseINS5_18Hipc2ProxyKindBaseILNS4_6detail11MessageTypeE4EEEEENS1_6detail14CoreMethodInfoINSt3__15tupleIJNSC_20InHandleArgumentInfoILi0ELi1EEENSC_17InRawArgumentInfoILm8ELm8ELl0EEEEEELm8ELm0ELb0EEESK_E7ProcessEPNS2_23CmifDomainClientMessageISB_E15ProxyBaseObjectENS2_26InHandleClientArgumentTypeENS2_23InRawClientArgumentTypeILm8ELm8EvEEj = 0x00000000000c6484 + __sdk_start;
_ZNK2nn7account38ExternalNetworkServiceAccountRegistrar11GetNicknameEPNS0_8NicknameE = 0x00000000000b7730 + __sdk_start;
_ZNK2nn3ngc6detail9SparseSet5Rank1Em = 0x0000000000141ea0 + __sdk_start;
_ZN2nn8irsensor24GetMomentProcessorStatesEPNS0_20MomentProcessorStateEPiiRKNS0_14IrCameraHandleE = 0x0000000000221544 + __sdk_start;
_ZN2nn2sf4cmif6client6detail13CmifProxyImplINS_3hid16IHidSystemServerENS0_4hipc6client18Hipc2ProxyKindBaseILNS7_6detail11MessageTypeE4EEENS0_25StatelessAllocationPolicyINS0_22ExpHeapStaticAllocatorILm16384ENS5_6detail15HidSystemServerEEEEES6_E45_nn_sf_sync_StartAnalogStickManualCalibrationENS5_6system11UniquePadIdEl = 0x000000000021c998 + __sdk_start;
_ZN2nn2sf24SetCurrentMemoryResourceEPNS_14MemoryResourceE = 0x0000000000092bdc + __sdk_start;
__nnmusl_MutexInit = 0x00000000003c453c + __sdk_start;
scalbnf = 0x00000000003ac048 + __sdk_start;
_ZN2nn2sf13SharedPointerINS_3pwm8IManagerEED2Ev = 0x00000000002f8b30 + __sdk_start;
cos = 0x00000000003a5a44 + __sdk_start;
nnsslConnectionGetConnectionId = 0x000000000016a6ac + __sdk_start;
nnmem_nlib_semaphore_post = 0x000000000007aa6c + __sdk_start;
_ZN2nn2sf4cmif6client34CmifDomainProxyClientCoreProcessorINS0_4hipc6client38Hipc2ClientSessionManagedProxyKindBaseINS5_18Hipc2ProxyKindBaseILNS4_6detail11MessageTypeE4EEEEENS1_6detail14CoreMethodInfoINSt3__15tupleIJNSC_18OutRawArgumentInfoILm16ELm1ELl0EEEEEELm0ELm16ELb0EEESI_E7ProcessEPNS2_23CmifDomainClientMessageISB_E15ProxyBaseObjectENS2_24OutRawClientArgumentTypeILm16ELm1EEEj = 0x00000000000c5ec4 + __sdk_start;
_ZN2nn2os20TimedWaitSystemEventEPNS0_15SystemEventTypeENS_8TimeSpanE = 0x0000000000087924 + __sdk_start;
scalbnl = 0x00000000003ac0d0 + __sdk_start;
_ZTIN2nn2sf6detail27UnmanagedEmplacedImplHolderINS_5audio6server24AudioRendererManagerImplEEE = 0x00000000008e3ac8 + __sdk_start;
_ZTIN2nn2sf4cmif6client6detail13CmifProxyImplINS_3pcv6detail11IPcvServiceENS0_4hipc6client18Hipc2ProxyKindBaseILNS8_6detail11MessageTypeE4EEENS0_30MemoryResourceAllocationPolicyES7_EE = 0x0000000000903310 + __sdk_start;
_ZN2nn5audio19InitializeResamplerEPNS0_14ResamplerStateEj = 0x000000000017b69c + __sdk_start;
_ZN2nn2ec34ShowShopAddOnContentDetailsForMenuENS0_5NsUidERKNS_7account3UidENS0_8SourceIdE = 0x000000000019d5f0 + __sdk_start;
_ZTSNSt3__110__time_putE = 0x00000000007b4940 + __sdk_start;
_ZN2nn2os6detail30InterProcessEventImplByHorizon9TimedWaitEjbNS_8TimeSpanE = 0x000000000008f3f8 + __sdk_start;
_ZN7android6Thread11requestExitEv = 0x00000000002b1fc8 + __sdk_start;
_ZN2nn3svc7aarch644lp6420CreateInterruptEventEPNS0_6HandleENS0_9InterruptENS0_13InterruptTypeE = 0x00000000000a9f04 + __sdk_start;
_ZN2nn3svc7aarch644lp6419UnmapPhysicalMemoryEmm = 0x00000000000a9e34 + __sdk_start;
__nnmusl_pthread_barrier_init = 0x00000000003c4a50 + __sdk_start;
_ZNSt3__113basic_ostreamIcNS_11char_traitsIcEEE5seekpENS_4fposI11__mbstate_tEE = 0x000000000030f448 + __sdk_start;
_ZN2nn3mii6detail18Ver3StoreDataTableE = 0x000000000078a334 + __sdk_start;
fseek = 0x00000000003bac18 + __sdk_start;
_ZTSN2nn2sf4cmif6client6detail13CmifProxyImplINS_8settings24ISettingsItemKeyIteratorENS0_4hipc6client18Hipc2ProxyKindBaseILNS7_6detail11MessageTypeE4EEENS0_25StatelessAllocationPolicyINS0_22ExpHeapStaticAllocatorILm16384ENS5_28IFirmwareDebugSettingsServerEEEEES6_EE = 0x000000000076fb20 + __sdk_start;
_ZNK7android7RefBase12weakref_type7refBaseEv = 0x00000000002ae470 + __sdk_start;
_ZTVN2nn5audio6server7AuxInfoE = 0x00000000008e3948 + __sdk_start;
_ZTIN2nn2sf4cmif6client16CmifProxyFactoryINS_5visrv2sf19IManagerRootServiceENS0_4hipc6client18Hipc2ProxyKindBaseILNS7_6detail11MessageTypeE4EEENS0_30MemoryResourceAllocationPolicyEE13ServiceObjectE = 0x00000000008e4540 + __sdk_start;
_ZNK2nn3mii6detail12Ver3CreateId7IsValidEv = 0x00000000001a8948 + __sdk_start;
_ZN2nn3nfp6detail10CheckErrorERKNS_6ResultE = 0x0000000000133cf4 + __sdk_start;
_ZNSt3__111__money_putIcE13__gather_infoEbbRKNS_6localeERNS_10money_base7patternERcS8_RNS_12basic_stringIcNS_11char_traitsIcEENS_9allocatorIcEEEESF_SF_Ri = 0x000000000032a850 + __sdk_start;
_ZN2nn2sf4cmif6client6detail13CmifProxyImplINS_3hid16IHidSystemServerENS0_4hipc6client18Hipc2ProxyKindBaseILNS7_6detail11MessageTypeE4EEENS0_25StatelessAllocationPolicyINS0_22ExpHeapStaticAllocatorILm16384ENS5_6detail15HidSystemServerEEEEES6_E31_nn_sf_sync_DisconnectUniquePadENS5_6system11UniquePadIdE = 0x000000000021c978 + __sdk_start;
_ZTSN2nn5audio6server14DeviceSinkInfoE = 0x000000000077bf70 + __sdk_start;
_ZN2nn3hid6system20IsSlSrButtonOrientedERKj = 0x0000000000213ca8 + __sdk_start;
_ZTIN2nn5audio6server10EffectInfoILNS0_10EffectTypeE5ENS0_20I3dl2ReverbParameterEEE = 0x00000000008e37b0 + __sdk_start;
nnmem_nlib_thread_getid = 0x000000000007ad50 + __sdk_start;
_ZN2nn5prepo6detail7msgpack26WriteSignedIntegerAutoSizeEPNS2_17OutputStreamParamEl = 0x00000000001569b0 + __sdk_start;
_ZTSN2nn2os6detail26MultiWaitHolderOfSemaphoreE = 0x0000000000742e50 + __sdk_start;
_ZN2nn5prepo16SystemPlayReport9SetBufferEPvm = 0x0000000000157f6c + __sdk_start;
_ZNK2nn2sf13SharedPointerINS_3nfc6detail5IUserEE19FunctionForBoolTypeEv = 0x000000000012bac4 + __sdk_start;
cpow = 0x00000000003991e0 + __sdk_start;
_ZNK2nn3mii21ParamCharInfoAccessor9IsSpecialEv = 0x00000000001a1a40 + __sdk_start;
_ZN2nn5audio6server30CommandProcessingTimeEstimator8EstimateERKNS0_17VolumeRampCommandE = 0x000000000018d004 + __sdk_start;
_ZN2nn2sf4cmif6client32GetClientProcessorWithObjectBaseINS2_15CmifDomainProxyINS0_4hipc6client38Hipc2ClientSessionManagedProxyKindBaseINS6_18Hipc2ProxyKindBaseILNS5_6detail11MessageTypeE4EEEEEEEE14ObjectAssignerINS0_25StatelessAllocationPolicyINS0_22ExpHeapStaticAllocatorILm16384ENS_4time6detail7service21ServiceProviderClient30CreateTimeUserServiceObjectTagEEEEENS0_6detail23StatelessDummyAllocatorEE14AllocateObjectINS_7timesrv6detail7service16ITimeZoneServiceEEEvi = 0x000000000017069c + __sdk_start;
nnmem_nlib_mlock = 0x000000000007a5c4 + __sdk_start;
_ZN7android8Composer8setLayerERKNS_2spINS_21SurfaceComposerClientEEERKNS1_INS_7IBinderEEEi = 0x00000000002a53d4 + __sdk_start;
_ZN2nn2pl22IsIlluminanceAvailableEv = 0x00000000001b4428 + __sdk_start;
_ZTSNSt3__18messagesIwEE = 0x00000000007b4db0 + __sdk_start;
_ZN2nn3mii6detail13CoreDataTableE = 0x0000000000781344 + __sdk_start;
_ZN2nn2sf4cmif6client6detail13CmifProxyImplINS_2am7service24IApplicationProxyServiceENS2_15CmifDomainProxyINS0_4hipc6client38Hipc2ClientSessionManagedProxyKindBaseINSA_18Hipc2ProxyKindBaseILNS9_6detail11MessageTypeE4EEEEEEENS0_30MemoryResourceAllocationPolicyES7_E12GetProxyInfoEv = 0x00000000000c6b40 + __sdk_start;
_ZTSN2nn2sf6detail38ObjectImplFactoryWithStatefulAllocatorINS0_4cmif6client16CmifProxyFactoryINS_2am7service18IHomeMenuFunctionsENS4_15CmifDomainProxyINS0_4hipc6client38Hipc2ClientSessionManagedProxyKindBaseINSB_18Hipc2ProxyKindBaseILNSA_6detail11MessageTypeE4EEEEEEENS0_30MemoryResourceAllocationPolicyEE13ServiceObjectESJ_E6ObjectE = 0x0000000000754c30 + __sdk_start;
_ZNSt3__118shared_timed_mutex6unlockEv = 0x000000000033eab8 + __sdk_start;
_ZN2nn4bcat6detail17ShimLibraryGlobal25MountDeliveryCacheStorageENS_13ApplicationIdE = 0x00000000000cd97c + __sdk_start;
_ZNK2nn2sf4hipc6server18Hipc2ServerMessage10GetBuffersEPNS0_6detail14PointerAndSizeE = 0x0000000000096ee4 + __sdk_start;
_ZNK2nn4pctl11PairingInfo15IsInstanceValidEv = 0x00000000001517ac + __sdk_start;
_ZNSt3__110__time_putD2Ev = 0x0000000000323fc8 + __sdk_start;
_ZN2nn8irsensor6detail15IrSensorSession12DestroyProxyEv = 0x000000000022116c + __sdk_start;
_ZN2nn8settings6detail16SetSleepSettingsERKNS0_6system13SleepSettingsE = 0x0000000000160e30 + __sdk_start;
_ZNK2nn2sf13SharedPointerINS_5fssrv2sf16IFileSystemProxyEE19FunctionForBoolTypeEv = 0x00000000000524cc + __sdk_start;
_ZN2nn4util7FloatPiE = 0x0000000000739ed8 + __sdk_start;
__nnmusl_pthread_attr_getstacksize = 0x00000000003c49cc + __sdk_start;
_ZNK2nn5audio6server14EffectInfoBase12GetParameterEv = 0x000000000018ec58 + __sdk_start;
_ZNK2nn5audio6server14MemoryPoolInfo13GetDspAddressEv = 0x000000000018f3f8 + __sdk_start;
_ZN2nn2vi6buffer11BufferQueueC1Ev = 0x00000000001c02d4 + __sdk_start;
_ZN2nn4nifm17NetworkConnectionD1Ev = 0x000000000014a0ac + __sdk_start;
wcstoumax = 0x00000000003bebe8 + __sdk_start;
_ZTSN2nn2sf6detail38ObjectImplFactoryWithStatefulAllocatorINS0_4cmif6client16CmifProxyFactoryINS_5visrv2sf26IApplicationDisplayServiceENS0_4hipc6client18Hipc2ProxyKindBaseILNS9_6detail11MessageTypeE4EEENS0_30MemoryResourceAllocationPolicyEE13ServiceObjectESF_E6ObjectE = 0x000000000078c0d0 + __sdk_start;
_ZN2nn7nlibsdk4heap11CentralHeap4FreeEPv = 0x0000000000081f88 + __sdk_start;
_ZN2nn2sf4hipc23IsHipcServiceRegisteredEPKc = 0x0000000000099398 + __sdk_start;
_ZNKSt3__120__codecvt_utf8_utf16IDiE16do_always_noconvEv = 0x00000000003378ec + __sdk_start;
_ZN2nn2sf4cmif6client6detail13CmifProxyImplINS_2am7service15IDebugFunctionsENS2_15CmifDomainProxyINS0_4hipc6client38Hipc2ClientSessionManagedProxyKindBaseINSA_18Hipc2ProxyKindBaseILNS9_6detail11MessageTypeE4EEEEEEENS0_30MemoryResourceAllocationPolicyES7_E30_nn_sf_sync_EmulateButtonEventENS6_19EmulatedButtonEventE = 0x00000000000c0660 + __sdk_start;
_ZTSNSt3__120__codecvt_utf8_utf16IwEE = 0x00000000007b42c0 + __sdk_start;
_ZNK2nn5audio6server17AudioRenderSystem30GetCommandBufferWorkBufferSizeEv = 0x0000000000188778 + __sdk_start;
_ZNKSt3__115__codecvt_utf16IwLb0EE16do_always_noconvEv = 0x0000000000336190 + __sdk_start;
_ZN2nn4nifm6detail13RequestClient9GetResultEv = 0x0000000000143f94 + __sdk_start;
_ZN2nn3web21ShowSystemDataPageArgC1ERKNS_3ncm12SystemDataIdEPKc = 0x0000000000236b30 + __sdk_start;
_ZTIN2nn2am7service18ICommonStateGetterE = 0x00000000008d6740 + __sdk_start;
_ZN2nn2sf4cmif6client6detail13CmifProxyImplINS_3hid16IHidSystemServerENS0_4hipc6client18Hipc2ProxyKindBaseILNS7_6detail11MessageTypeE4EEENS0_25StatelessAllocationPolicyINS0_22ExpHeapStaticAllocatorILm16384ENS5_6detail15HidSystemServerEEEEES6_E30_nn_sf_sync_GetFirmwareVersionENS0_3OutINS5_6system15FirmwareVersionEvEENSL_11UniquePadIdE = 0x000000000021cae0 + __sdk_start;
_ZNSt3__113random_deviceclEv = 0x000000000033e3d8 + __sdk_start;
_ZN2nn2sf4cmif6client6detail13CmifProxyImplINS_7account4http15IOAuthProcedureENS2_15CmifDomainProxyINS0_4hipc6client38Hipc2ClientSessionManagedProxyKindBaseINSA_18Hipc2ProxyKindBaseILNS9_6detail11MessageTypeE4EEEEEEENS0_25StatelessAllocationPolicyINS0_22ExpHeapStaticAllocatorILm2048ENS5_6detail12ObjectHolder24ObjectHolderAllocatorTagEEEEENS5_3nas29IOAuthProcedureForExternalNsaEE25_nn_sf_sync_ApplyResponseERKNS0_7InArrayIcEE = 0x00000000000b554c + __sdk_start;
_ZNK2nn3mii6detail15BufferAllocator13GetCurrentPtrEv = 0x00000000001a20a8 + __sdk_start;
_ZN2nn2sf4cmif6client6detail13CmifProxyImplINS_8settings22IFactorySettingsServerENS0_4hipc6client18Hipc2ProxyKindBaseILNS7_6detail11MessageTypeE4EEENS0_25StatelessAllocationPolicyINS0_22ExpHeapStaticAllocatorILm16384ES6_EEEES6_E33_nn_sf_sync_GetBluetoothBdAddressENS0_3OutINS5_7factory9BdAddressEvEE = 0x000000000016222c + __sdk_start;
_ZTIN2nn2sf4cmif6client6detail9CmifProxyINS_7account6detail13IAsyncContextENS2_15CmifDomainProxyINS0_4hipc6client38Hipc2ClientSessionManagedProxyKindBaseINSA_18Hipc2ProxyKindBaseILNS9_6detail11MessageTypeE4EEEEEEENS0_30MemoryResourceAllocationPolicyEvEE = 0x00000000008d3f90 + __sdk_start;
_ZTIN2nn2sf4cmif6client6detail9CmifProxyINS_2am7service19IOverlayAppletProxyENS2_15CmifDomainProxyINS0_4hipc6client38Hipc2ClientSessionManagedProxyKindBaseINSA_18Hipc2ProxyKindBaseILNS9_6detail11MessageTypeE4EEEEEEENS0_30MemoryResourceAllocationPolicyEvEE = 0x00000000008d8810 + __sdk_start;
_ZN2nn3hid5debug18FinalizeHomeButtonEv = 0x0000000000211658 + __sdk_start;
_ZN2nn5codec25GetOpusPacketChannelCountEPiPKhm = 0x000000000010d8f8 + __sdk_start;
_ZN2nn3hid6detail28SetTouchScreenAutoPilotStateILm3EEENS_6ResultERKNS0_5debug25TouchScreenAutoPilotStateIXT_EEE = 0x000000000020c0b0 + __sdk_start;
_ZN2nn2sf4hipc6client24Hipc2ClientCoreProcessorILNS1_6detail11MessageTypeE4ENS0_4cmif6detail14CoreMethodInfoINSt3__15tupleIJNS7_17InRawArgumentInfoILm28ELm4ELl0EEEEEELm28ELm0ELb0EEESD_E7ProcessEPNS2_26Hipc2ClientProxyBaseObjectENS6_6client23InRawClientArgumentTypeILm28ELm4EvEEj = 0x0000000000219054 + __sdk_start;
_ZNK2nn3mii21ParamCharInfoAccessor12GetEyeAspectEv = 0x00000000001a1aa8 + __sdk_start;
_ZN2nn2ro6detail8RoModule10InitializeEmPKNS1_3Elf5Elf643DynE = 0x0000000000091a4c + __sdk_start;
silk_NLSF_VQ = 0x00000000000e7274 + __sdk_start;
_ZN2nn2fs6detail18FileSystemAccessor26DeleteDirectoryRecursivelyEPKc = 0x000000000004bc5c + __sdk_start;
_ZNK2nn5codec11OpusEncoder25CalculateFrameSampleCountEi = 0x000000000010d3e8 + __sdk_start;
_ZN2nn2sf4hipc6client24Hipc2ClientCoreProcessorILNS1_6detail11MessageTypeE4ENS0_4cmif6detail14CoreMethodInfoINSt3__15tupleIJNS7_18OutRawArgumentInfoILm8ELm8ELl0EEENS7_18BufferArgumentInfoILi0ELi10ELm0EEENS7_17InRawArgumentInfoILm8ELm8ELl0EEEEEELm8ELm8ELb0EEESH_E7ProcessEPNS2_26Hipc2ClientProxyBaseObjectENS6_6client24OutRawClientArgumentTypeILm8ELm8EEENSM_24BufferClientArgumentTypeENSM_23InRawClientArgumentTypeILm8ELm8EvEEj = 0x000000000021d34c + __sdk_start;
timegm = 0x00000000003c1cbc + __sdk_start;
_ZN2nn3hid19GetTouchScreenStateILm12EEEvPNS0_16TouchScreenStateIXT_EEE = 0x000000000021591c + __sdk_start;
_ZN2nn5audio3dsp25MailBoxImplByMessageQueue7g_IdMapE = 0x00000000009a5728 + __sdk_start;
_ZN2nn2sf4cmif6client6detail13CmifProxyImplINS_8settings21ISystemSettingsServerENS0_4hipc6client18Hipc2ProxyKindBaseILNS7_6detail11MessageTypeE4EEENS0_25StatelessAllocationPolicyINS0_22ExpHeapStaticAllocatorILm16384ES6_EEEES6_E24_nn_sf_sync_GetQuestFlagENS0_3OutIbvEE = 0x0000000000164fa8 + __sdk_start;
_ZN2nn5audio36GetRenderingTimeLimitForSystemAppletEv = 0x0000000000173d14 + __sdk_start;
_ZN2nn2fs12SetAllocatorEPFPvmEPFvS1_mE = 0x000000000005fa44 + __sdk_start;
_ZN7android5Fence9unflattenERPKvRmRPKiS4_ = 0x00000000002a97a0 + __sdk_start;
_ZNSt3__111timed_mutexD2Ev = 0x000000000033dba4 + __sdk_start;
_ZN2nn4util10BitFlagSetILi256ENS_3hid11KeyboardKeyEE4FlagILi14EE4MaskE = 0x000000000078fc58 + __sdk_start;
_ZN2nn2sf4cmif6client6detail13CmifProxyImplINS_5visrv2sf18ISystemRootServiceENS0_4hipc6client18Hipc2ProxyKindBaseILNS8_6detail11MessageTypeE4EEENS0_30MemoryResourceAllocationPolicyES7_E50_nn_sf_sync_GetDisplayServiceWithProxyNameExchangeENS0_3OutINS0_13SharedPointerINS6_26IApplicationDisplayServiceEEEvEEjNS_2vi9ProxyNameE = 0x00000000001bbd6c + __sdk_start;
_ZNK7android6Parcel19readString16InplaceEPm = 0x000000000027f554 + __sdk_start;
_ZN2nn7nlibsdk4heap10CachedHeap12GetAllocSizeEPKv = 0x0000000000082c28 + __sdk_start;
_ZN2nn4nifm6detail29TemporaryNetworkProfileClientD2Ev = 0x00000000001439fc + __sdk_start;
_ZN2nn3svc7aarch644lp6417SetThreadCoreMaskENS0_6HandleEim = 0x00000000000a9cd4 + __sdk_start;
_ZN2nn2sf4cmif6client6detail13CmifProxyImplINS_2am7service18IAppletProxyCommonENS2_15CmifDomainProxyINS0_4hipc6client38Hipc2ClientSessionManagedProxyKindBaseINSA_18Hipc2ProxyKindBaseILNS9_6detail11MessageTypeE4EEEEEEENS0_30MemoryResourceAllocationPolicyENS6_19ILibraryAppletProxyEE30_nn_sf_sync_GetAudioControllerENS0_3OutINS0_13SharedPointerINS6_16IAudioControllerEEEvEE = 0x00000000000c3800 + __sdk_start;
_ZN2nn4util10BitFlagSetILi256ENS_3hid11KeyboardKeyEE4FlagILi96EE4MaskE = 0x0000000000790698 + __sdk_start;
_ZN2nn4time39AsyncEnsureNetworkClockAvailabilityTaskC2Ev = 0x000000000016e3ac + __sdk_start;
_ZN2nn2sf4cmif6client32GetClientProcessorWithObjectBaseINS2_15CmifDomainProxyINS0_4hipc6client38Hipc2ClientSessionManagedProxyKindBaseINS6_18Hipc2ProxyKindBaseILNS5_6detail11MessageTypeE4EEEEEEEE14ObjectAssignerINS0_30MemoryResourceAllocationPolicyENS_14MemoryResourceEE14AllocateObjectINS_2am7service8IStorageEEEvi = 0x00000000000c177c + __sdk_start;
_ZN2nn3hid6system13DeactivateNfcEj = 0x0000000000213568 + __sdk_start;
_ZTSN2nn2sf4cmif6client16CmifProxyFactoryINS_7timesrv6detail7service16ITimeZoneServiceENS2_15CmifDomainProxyINS0_4hipc6client38Hipc2ClientSessionManagedProxyKindBaseINSA_18Hipc2ProxyKindBaseILNS9_6detail11MessageTypeE4EEEEEEENS0_25StatelessAllocationPolicyINS0_22ExpHeapStaticAllocatorILm16384ENS_4time6detail7service21ServiceProviderClient30CreateTimeUserServiceObjectTagEEEEEE13ServiceObjectE = 0x0000000000772d40 + __sdk_start;
_ZNSt12experimental19bad_optional_accessD0Ev = 0x000000000033e354 + __sdk_start;
_ZNSt3__120__threads_data_queueD2Ev = 0x00000000003067bc + __sdk_start;
cff_GridFit = 0x00000000001d09d4 + __sdk_start;
_ZN2nn5audio3dsp5StartEv = 0x0000000000196514 + __sdk_start;
_ZN22nerd_gillette_internal5otete11ImageCodec215OldQuantizationERiim = 0x0000000000226f10 + __sdk_start;
_ZN2nn4bcat6detail25DeliveryCacheProgressImpl23NotifyStartDownloadFileERKNS0_13DirectoryNameERKNS0_8FileNameEl = 0x00000000000cbaa0 + __sdk_start;
__floatuntixf = 0x0000000000381da0 + __sdk_start;
strcat = 0x00000000003bf7f4 + __sdk_start;
_ZN7android18BufferItemConsumer20setDefaultBufferSizeEjj = 0x000000000028bf14 + __sdk_start;
_ZN2nn8settings6system21SetWirelessLanEnabledEb = 0x000000000015d2e0 + __sdk_start;
_ZN7android6Parcel8freeDataEv = 0x00000000002821f8 + __sdk_start;
_ZN2nn2sf4cmif6client6detail13CmifProxyImplINS_7account19IAccountServiceBaseENS2_15CmifDomainProxyINS0_4hipc6client38Hipc2ClientSessionManagedProxyKindBaseINS9_18Hipc2ProxyKindBaseILNS8_6detail11MessageTypeE4EEEEEEENS0_25StatelessAllocationPolicyINS0_22ExpHeapStaticAllocatorILm2048ENS5_6detail12ObjectHolder24ObjectHolderAllocatorTagEEEEENS5_31IAccountServiceForSystemServiceEE43_nn_sf_sync_TrySelectUserWithoutInteractionENS0_3OutINS5_3UidEvEEb = 0x00000000000b0298 + __sdk_start;
fnt_IUP = 0x00000000001dad14 + __sdk_start;
NvOsFstat = 0x000000000023e6a0 + __sdk_start;
_ZNK2nn7friends7Profile7IsValidEv = 0x000000000011770c + __sdk_start;
_ZN2nn7account28NetworkServiceAccountManager38CheckNetworkServiceAccountAvailabilityEv = 0x00000000000b7f88 + __sdk_start;
_ZTIN2nn2sf6detail38ObjectImplFactoryWithStatefulAllocatorINS0_4cmif6client16CmifProxyFactoryINS_3apm8IManagerENS0_4hipc6client18Hipc2ProxyKindBaseILNS8_6detail11MessageTypeE4EEENS0_30MemoryResourceAllocationPolicyEE13ServiceObjectESE_E6ObjectE = 0x00000000008d9230 + __sdk_start;
_ZNK2nn6crypto6detail7AesImplILm16EE12DecryptBlockEPvmPKvm = 0x000000000000591c + __sdk_start;
_ZN2nn2fs15RomFsFileSystem14DoGetEntryTypeEPNS0_18DirectoryEntryTypeEPKc = 0x000000000004abbc + __sdk_start;
_ZTSN2nn2sf4cmif6client16CmifProxyFactoryINS_7account4baas24IManagerForSystemServiceENS2_15CmifDomainProxyINS0_4hipc6client38Hipc2ClientSessionManagedProxyKindBaseINS9_18Hipc2ProxyKindBaseILNS8_6detail11MessageTypeE4EEEEEEENS0_25StatelessAllocationPolicyINS0_22ExpHeapStaticAllocatorILm2048ENS4_6detail12ObjectHolder24ObjectHolderAllocatorTagEEEEEE13ServiceObjectE = 0x000000000074a350 + __sdk_start;
_ZN2nn2sf4hipc6client24Hipc2ClientCoreProcessorILNS1_6detail11MessageTypeE4ENS0_4cmif6detail14CoreMethodInfoINSt3__15tupleIJNS7_18OutRawArgumentInfoILm8ELm8ELl0EEENS7_17InRawArgumentInfoILm8ELm8ELl0EEENSD_ILm8ELm8ELl8EEEEEELm16ELm8ELb0EEESG_E7ProcessEPNS2_26Hipc2ClientProxyBaseObjectENS6_6client24OutRawClientArgumentTypeILm8ELm8EEENSL_23InRawClientArgumentTypeILm8ELm8EvEESP_j = 0x00000000001baf24 + __sdk_start;
_ZNK2nn5audio3dsp20CommandListProcessor14GetSampleCountEv = 0x0000000000195164 + __sdk_start;
_ZTSSt9exception = 0x00000000007b7308 + __sdk_start;
_ZN2nn2sf30SetGlobalDefaultMemoryResourceEPNS_14MemoryResourceE = 0x0000000000092b2c + __sdk_start;
_ZN2nn6crypto12Md5Generator20Asn1ObjectIdentifierE = 0x00000000007316a2 + __sdk_start;
_ZTSN2nn2sf6detail38ObjectImplFactoryWithStatefulAllocatorINS0_4cmif6client16CmifProxyFactoryINS_7friends6detail3ipc20INotificationServiceENS4_15CmifDomainProxyINS0_4hipc6client38Hipc2ClientSessionManagedProxyKindBaseINSC_18Hipc2ProxyKindBaseILNSB_6detail11MessageTypeE4EEEEEEENS0_30MemoryResourceAllocationPolicyEE13ServiceObjectESK_E6ObjectE = 0x00000000007632d0 + __sdk_start;
_ZN2nn6socket6detail11GetPeerNameEiP8sockaddrPj = 0x000000000009c270 + __sdk_start;
_ZN2nn3ssl6detail16SslMemoryManager13g_SfAllocatorE = 0x00000000009775e8 + __sdk_start;
_ZZN2nn2sf40SimpleAllInOneHipcSubDomainClientManagerILm1EE27InitializeShimLibraryHolderINS_5prepo6detail3ipc13IPrepoServiceEEENS_6ResultEPNS0_23ShimLibraryObjectHolderIT_EEPKcPNS_14MemoryResourceEENUlPvE_8__invokeESH_ = 0x000000000015a08c + __sdk_start;
_ZNKSt3__120__codecvt_utf8_utf16IDiE13do_max_lengthEv = 0x0000000000337914 + __sdk_start;
_ZN2nn6crypto6detail7Md5Impl7GetHashEPvm = 0x0000000000004564 + __sdk_start;
_ZN2nn2fs19MountSystemSaveDataEPKcm = 0x000000000006639c + __sdk_start;
_ZTIN2nn2sf4hipc6client26HipcClientSessionAllocatorE = 0x00000000008ce0d8 + __sdk_start;
_ZN2nn2os14IsReadLockHeldEPKNS0_20ReaderWriterLockTypeE = 0x0000000000088b90 + __sdk_start;
NvOsInterruptPriorityThreadCreate = 0x000000000023e570 + __sdk_start;
_ZN2nn5audio6server6detail27QueryAudioDeviceSystemEventEPjRKNS_6applet20AppletResourceUserIdE = 0x0000000000193db4 + __sdk_start;
_ZN2nn4nifm18GetSsidListVersionEPNS0_15SsidListVersionE = 0x00000000001498ec + __sdk_start;
_ZNSt3__18ios_base7failbitE = 0x00000000007b2adc + __sdk_start;
_ZN2nn7account31NintendoAccountLinkageProcedure10GetRequestEPNS0_10RequestUrlEPNS0_11CallbackUriENS0_37NintendoAccountAuthorizationPageThemeE = 0x00000000000b9b04 + __sdk_start;
FsLttComponent_isItalic = 0x00000000001eb46c + __sdk_start;
_ZNK2nn5audio15AudioBufferListINS0_13AudioInBufferEE4backEv = 0x000000000017340c + __sdk_start;
nnmem_nlib_memspn = 0x000000000006d088 + __sdk_start;
_ZN2nn3ldn13CreateNetworkERKNS0_13NetworkConfigERKNS0_14SecurityConfigERKNS0_10UserConfigE = 0x0000000000231dcc + __sdk_start;
_ZN2nn3aoc6detail17InitializeForHipcEv = 0x0000000000172430 + __sdk_start;
_ZN2nn2os6detail26ThreadManagerImplByHorizon17WaitForExitThreadEPNS0_10ThreadTypeE = 0x000000000008ea38 + __sdk_start;
_ZTv0_n24_NSt3__110ostrstreamD0Ev = 0x00000000003482cc + __sdk_start;
_ZN2nn5audio16IsDelayRemovableEPKNS0_9DelayTypeE = 0x0000000000174b90 + __sdk_start;
nnmem_nlib_readlink = 0x000000000007b60c + __sdk_start;
_ZN2nn2fs6detail27StorageServiceObjectAdapter7SetSizeEl = 0x0000000000066770 + __sdk_start;
